   1               		.file	"iv.c"
   2               	__SREG__ = 0x3f
   3               	__SP_H__ = 0x3e
   4               	__SP_L__ = 0x3d
   5               	__CCP__  = 0x34
   6               	__tmp_reg__ = 0
   7               	__zero_reg__ = 1
   8               		.global __do_copy_data
   9               		.global __do_clear_bss
  17               	.Ltext0:
  18               	.global	delayms
  20               	delayms:
  21               	.LFB14:
  22               	.LM1:
  23               	.LVL0:
  24               	/* prologue: function */
  25               	/* frame size = 0 */
  26 0000 9C01      		movw r18,r24
  27               	.LM2:
  28               	/* #APP */
  29               	 ;  117 "iv.c" 1
  30 0002 7894      		sei
  31               	 ;  0 "" 2
  32               	.LM3:
  33               	/* #NOAPP */
  34 0004 1092 0000 		sts (milliseconds)+1,__zero_reg__
  35 0008 1092 0000 		sts milliseconds,__zero_reg__
  36               	.LVL1:
  37               	.L2:
  38               	.LM4:
  39 000c 8091 0000 		lds r24,milliseconds
  40 0010 9091 0000 		lds r25,(milliseconds)+1
  41 0014 8217      		cp r24,r18
  42 0016 9307      		cpc r25,r19
  43 0018 00F0      		brlo .L2
  44               	/* epilogue start */
  45               	.LM5:
  46 001a 0895      		ret
  47               	.LFE14:
  49               	.global	kickthedog
  51               	kickthedog:
  52               	.LFB16:
  53               	.LM6:
  54               	/* prologue: function */
  55               	/* frame size = 0 */
  56               	.LM7:
  57               	/* #APP */
  58               	 ;  139 "iv.c" 1
  59 001c A895      		wdr
  60               	 ;  0 "" 2
  61               	/* epilogue start */
  62               	.LM8:
  63               	/* #NOAPP */
  64 001e 0895      		ret
  65               	.LFE16:
  67               	.global	gotosleep
  69               	gotosleep:
  70               	.LFB23:
  71               	.LM9:
  72               	/* prologue: function */
  73               	/* frame size = 0 */
  74               	.LM10:
  75 0020 81E0      		ldi r24,lo8(1)
  76 0022 8093 0000 		sts sleepmode,r24
  77               	.LM11:
  78 0026 5B9A      		sbi 43-32,3
  79               	.LM12:
  80 0028 8CB5      		in r24,76-32
  81 002a 8F7B      		andi r24,lo8(-65)
  82 002c 8CBD      		out 76-32,r24
  83               	.LM13:
  84 002e 85B1      		in r24,37-32
  85 0030 877D      		andi r24,lo8(-41)
  86 0032 85B9      		out 37-32,r24
  87               	.LM14:
  88 0034 5E98      		cbi 43-32,6
  89               	.LM15:
  90 0036 15BC      		out 69-32,__zero_reg__
  91               	.LM16:
  92 0038 1092 0000 		sts volume,__zero_reg__
  93               	.LM17:
  94 003c 1092 6800 		sts 104,__zero_reg__
  95               	.LM18:
  96 0040 4598      		cbi 40-32,5
  97               	.LM19:
  98 0042 85B1      		in r24,37-32
  99 0044 897F      		andi r24,lo8(-7)
 100 0046 85B9      		out 37-32,r24
 101               	.LM20:
 102 0048 8BB1      		in r24,43-32
 103 004a 8F7C      		andi r24,lo8(-49)
 104 004c 8BB9      		out 43-32,r24
 105               	.LM21:
 106 004e 2898      		cbi 37-32,0
 107               	.LM22:
 108 0050 8AB1      		in r24,42-32
 109 0052 8F7C      		andi r24,lo8(-49)
 110 0054 8AB9      		out 42-32,r24
 111               	.LM23:
 112 0056 2098      		cbi 36-32,0
 113               	.LM24:
 114 0058 5A98      		cbi 43-32,2
 115               	.LM25:
 116 005a 5298      		cbi 42-32,2
 117               	.LM26:
 118 005c E1E6      		ldi r30,lo8(97)
 119 005e F0E0      		ldi r31,hi8(97)
 120 0060 90E8      		ldi r25,lo8(-128)
 121 0062 9083      		st Z,r25
 122               	.LM27:
 123 0064 88E0      		ldi r24,lo8(8)
 124 0066 8083      		st Z,r24
 125               	.LM28:
 126 0068 449A      		sbi 40-32,4
 127               	.LM29:
 128 006a 83B7      		in r24,83-32
 129 006c 8760      		ori r24,lo8(7)
 130 006e 83BF      		out 83-32,r24
 131               	.LM30:
 132               	/* #APP */
 133               	 ;  452 "iv.c" 1
 134 0070 8895      		sleep
 135               	 ;  0 "" 2
 136               	.LM31:
 137               	/* #NOAPP */
 138 0072 9083      		st Z,r25
 139               	.LM32:
 140 0074 1082      		st Z,__zero_reg__
 141               	.LM33:
 142 0076 4498      		cbi 40-32,4
 143               	/* epilogue start */
 144               	.LM34:
 145 0078 0895      		ret
 146               	.LFE23:
 148               	.global	initbuttons
 150               	initbuttons:
 151               	.LFB25:
 152               	.LM35:
 153               	/* prologue: function */
 154               	/* frame size = 0 */
 155               	.LM36:
 156 007a 8EE2      		ldi r24,lo8(46)
 157 007c 84B9      		out 36-32,r24
 158               	.LM37:
 159 007e 88E4      		ldi r24,lo8(72)
 160 0080 8AB9      		out 42-32,r24
 161               	.LM38:
 162 0082 89E0      		ldi r24,lo8(9)
 163 0084 87B9      		out 39-32,r24
 164               	.LM39:
 165 0086 84E3      		ldi r24,lo8(52)
 166 0088 8BB9      		out 43-32,r24
 167               	.LM40:
 168 008a 91E0      		ldi r25,lo8(1)
 169 008c 95B9      		out 37-32,r25
 170               	.LM41:
 171 008e 85E0      		ldi r24,lo8(5)
 172 0090 8093 6800 		sts 104,r24
 173               	.LM42:
 174 0094 9093 6B00 		sts 107,r25
 175               	.LM43:
 176 0098 80E3      		ldi r24,lo8(48)
 177 009a 8093 6D00 		sts 109,r24
 178               	/* epilogue start */
 179               	.LM44:
 180 009e 0895      		ret
 181               	.LFE25:
 183               	.global	display_brightness
 185               	display_brightness:
 186               	.LFB32:
 187               	.LM45:
 188               	.LVL2:
 189               	/* prologue: function */
 190               	/* frame size = 0 */
 191 00a0 9C01      		movw r18,r24
 192               	.LM46:
 193 00a2 0097      		sbiw r24,0
 194 00a4 01F4      		brne .L12
 195               	.LBB234:
 196               	.LM47:
 197 00a6 E0E0      		ldi r30,lo8(alphatable)
 198 00a8 F0E0      		ldi r31,hi8(alphatable)
 199               	/* #APP */
 200               	 ;  1099 "iv.c" 1
 201 00aa 8491      		lpm r24, Z
 202               		
 203               	 ;  0 "" 2
 204               	.LVL3:
 205               	/* #NOAPP */
 206               	.LBE234:
 207 00ac 8160      		ori r24,lo8(1)
 208 00ae 8093 0000 		sts display+7,r24
 209               	.LBB235:
 210               	.LM48:
 211 00b2 7496      		adiw r30,20
 212               	/* #APP */
 213               	 ;  1100 "iv.c" 1
 214 00b4 E491      		lpm r30, Z
 215               		
 216               	 ;  0 "" 2
 217               	.LVL4:
 218               	/* #NOAPP */
 219               	.LBE235:
 220 00b6 E160      		ori r30,lo8(1)
 221 00b8 E093 0000 		sts display+8,r30
 222               	.LBB236:
 223               	.LBB237:
 224               	.LM49:
 225 00bc 8091 0000 		lds r24,brightness_level
 226               	.LVL5:
 227 00c0 8823      		tst r24
 228 00c2 01F4      		brne .L16
 229               	.LM50:
 230 00c4 8091 7A00 		lds r24,122
 231 00c8 8064      		ori r24,lo8(64)
 232 00ca 8093 7A00 		sts 122,r24
 233 00ce 0895      		ret
 234               	.LVL6:
 235               	.L12:
 236               	.LBE237:
 237               	.LBE236:
 238               	.LBB238:
 239               	.LM51:
 240 00d0 6AE0      		ldi r22,lo8(10)
 241 00d2 70E0      		ldi r23,hi8(10)
 242 00d4 0E94 0000 		call __divmodhi4
 243               	.LVL7:
 244 00d8 FB01      		movw r30,r22
 245 00da E050      		subi r30,lo8(-(numbertable))
 246 00dc F040      		sbci r31,hi8(-(numbertable))
 247               	/* #APP */
 248               	 ;  1105 "iv.c" 1
 249 00de E491      		lpm r30, Z
 250               		
 251               	 ;  0 "" 2
 252               	.LVL8:
 253               	/* #NOAPP */
 254               	.LBE238:
 255 00e0 E160      		ori r30,lo8(1)
 256 00e2 E093 0000 		sts display+7,r30
 257               	.LBB239:
 258               	.LM52:
 259 00e6 C901      		movw r24,r18
 260 00e8 6AE0      		ldi r22,lo8(10)
 261 00ea 70E0      		ldi r23,hi8(10)
 262 00ec 0E94 0000 		call __divmodhi4
 263 00f0 FC01      		movw r30,r24
 264               	.LVL9:
 265 00f2 E050      		subi r30,lo8(-(numbertable))
 266 00f4 F040      		sbci r31,hi8(-(numbertable))
 267               	/* #APP */
 268               	 ;  1106 "iv.c" 1
 269 00f6 E491      		lpm r30, Z
 270               		
 271               	 ;  0 "" 2
 272               	.LVL10:
 273               	/* #NOAPP */
 274               	.LBE239:
 275 00f8 E160      		ori r30,lo8(1)
 276 00fa E093 0000 		sts display+8,r30
 277               	.LM53:
 278 00fe 922F      		mov r25,r18
 279               	.LVL11:
 280               	.LBB240:
 281               	.LBB241:
 282               	.LM54:
 283 0100 2B35      		cpi r18,lo8(91)
 284 0102 00F0      		brlo .L14
 285               	.LVL12:
 286 0104 9AE5      		ldi r25,lo8(90)
 287               	.LVL13:
 288 0106 00C0      		rjmp .L15
 289               	.LVL14:
 290               	.L14:
 291               	.LM55:
 292 0108 2E31      		cpi r18,lo8(30)
 293 010a 00F4      		brsh .L15
 294 010c 9EE1      		ldi r25,lo8(30)
 295               	.LVL15:
 296               	.L15:
 297               	.LM56:
 298 010e 87B5      		in r24,71-32
 299 0110 8913      		cpse r24,r25
 300               	.LM57:
 301 0112 97BD      		out 71-32,r25
 302               	.LVL16:
 303               	.L16:
 304 0114 0895      		ret
 305               	.LBE241:
 306               	.LBE240:
 307               	.LFE32:
 309               	.global	clock_init
 311               	clock_init:
 312               	.LFB35:
 313               	.LM58:
 314               	/* prologue: function */
 315               	/* frame size = 0 */
 316               	.L18:
 317               	.LBB242:
 318               	.LBB243:
 319               	.LM59:
 320 0116 F999      		sbic 63-32,1
 321 0118 00C0      		rjmp .L18
 322               	.LM60:
 323 011a 84E0      		ldi r24,lo8(4)
 324 011c 90E0      		ldi r25,hi8(4)
 325 011e 92BD      		out (65)+1-32,r25
 326 0120 81BD      		out 65-32,r24
 327               	.LM61:
 328               	/* #APP */
 329               	 ;  208 "/Applications/Arduino.app/Contents/Resources/Java/hardware/tools/avr/bin/../lib/gcc/avr/4.
 330               		/* START EEPROM READ CRITICAL SECTION */ 
 331 0122 F89A      		sbi 31, 0 
 332 0124 80B5      		in r24, 32 
 333               		/* END EEPROM READ CRITICAL SECTION */ 
 334               		
 335               	 ;  0 "" 2
 336               	.LVL17:
 337               	/* #NOAPP */
 338               	.LBE243:
 339               	.LBE242:
 340               	.LM62:
 341 0126 68E1      		ldi r22,lo8(24)
 342 0128 0E94 0000 		call __udivmodqi4
 343               	.LVL18:
 344 012c 9093 0000 		sts time_h,r25
 345               	.L19:
 346               	.LBB244:
 347               	.LBB245:
 348               	.LM63:
 349 0130 F999      		sbic 63-32,1
 350 0132 00C0      		rjmp .L19
 351               	.LM64:
 352 0134 85E0      		ldi r24,lo8(5)
 353 0136 90E0      		ldi r25,hi8(5)
 354 0138 92BD      		out (65)+1-32,r25
 355 013a 81BD      		out 65-32,r24
 356               	.LM65:
 357               	/* #APP */
 358               	 ;  208 "/Applications/Arduino.app/Contents/Resources/Java/hardware/tools/avr/bin/../lib/gcc/avr/4.
 359               		/* START EEPROM READ CRITICAL SECTION */ 
 360 013c F89A      		sbi 31, 0 
 361 013e 80B5      		in r24, 32 
 362               		/* END EEPROM READ CRITICAL SECTION */ 
 363               		
 364               	 ;  0 "" 2
 365               	.LVL19:
 366               	/* #NOAPP */
 367               	.LBE245:
 368               	.LBE244:
 369               	.LM66:
 370 0140 6CE3      		ldi r22,lo8(60)
 371 0142 0E94 0000 		call __udivmodqi4
 372               	.LVL20:
 373 0146 9093 0000 		sts time_m,r25
 374               	.L20:
 375               	.LBB246:
 376               	.LBB247:
 377               	.LM67:
 378 014a F999      		sbic 63-32,1
 379 014c 00C0      		rjmp .L20
 380               	.LM68:
 381 014e 86E0      		ldi r24,lo8(6)
 382 0150 90E0      		ldi r25,hi8(6)
 383 0152 92BD      		out (65)+1-32,r25
 384 0154 81BD      		out 65-32,r24
 385               	.LM69:
 386               	/* #APP */
 387               	 ;  208 "/Applications/Arduino.app/Contents/Resources/Java/hardware/tools/avr/bin/../lib/gcc/avr/4.
 388               		/* START EEPROM READ CRITICAL SECTION */ 
 389 0156 F89A      		sbi 31, 0 
 390 0158 80B5      		in r24, 32 
 391               		/* END EEPROM READ CRITICAL SECTION */ 
 392               		
 393               	 ;  0 "" 2
 394               	.LVL21:
 395               	/* #NOAPP */
 396               	.LBE247:
 397               	.LBE246:
 398               	.LM70:
 399 015a 6CE3      		ldi r22,lo8(60)
 400 015c 0E94 0000 		call __udivmodqi4
 401               	.LVL22:
 402 0160 9093 0000 		sts time_s,r25
 403               	.L21:
 404               	.LBB248:
 405               	.LBB249:
 406               	.LM71:
 407 0164 F999      		sbic 63-32,1
 408 0166 00C0      		rjmp .L21
 409               	.LM72:
 410 0168 88E0      		ldi r24,lo8(8)
 411 016a 90E0      		ldi r25,hi8(8)
 412 016c 92BD      		out (65)+1-32,r25
 413 016e 81BD      		out 65-32,r24
 414               	.LM73:
 415               	/* #APP */
 416               	 ;  208 "/Applications/Arduino.app/Contents/Resources/Java/hardware/tools/avr/bin/../lib/gcc/avr/4.
 417               		/* START EEPROM READ CRITICAL SECTION */ 
 418 0170 F89A      		sbi 31, 0 
 419 0172 80B5      		in r24, 32 
 420               		/* END EEPROM READ CRITICAL SECTION */ 
 421               		
 422               	 ;  0 "" 2
 423               	.LVL23:
 424               	/* #NOAPP */
 425               	.LBE249:
 426               	.LBE248:
 427               	.LM74:
 428 0174 6CE3      		ldi r22,lo8(60)
 429 0176 0E94 0000 		call __udivmodqi4
 430               	.LVL24:
 431 017a 9093 0000 		sts alarm_m,r25
 432               	.L22:
 433               	.LBB250:
 434               	.LBB251:
 435               	.LM75:
 436 017e F999      		sbic 63-32,1
 437 0180 00C0      		rjmp .L22
 438               	.LM76:
 439 0182 87E0      		ldi r24,lo8(7)
 440 0184 90E0      		ldi r25,hi8(7)
 441 0186 92BD      		out (65)+1-32,r25
 442 0188 81BD      		out 65-32,r24
 443               	.LM77:
 444               	/* #APP */
 445               	 ;  208 "/Applications/Arduino.app/Contents/Resources/Java/hardware/tools/avr/bin/../lib/gcc/avr/4.
 446               		/* START EEPROM READ CRITICAL SECTION */ 
 447 018a F89A      		sbi 31, 0 
 448 018c 80B5      		in r24, 32 
 449               		/* END EEPROM READ CRITICAL SECTION */ 
 450               		
 451               	 ;  0 "" 2
 452               	.LVL25:
 453               	/* #NOAPP */
 454               	.LBE251:
 455               	.LBE250:
 456               	.LM78:
 457 018e 68E1      		ldi r22,lo8(24)
 458 0190 0E94 0000 		call __udivmodqi4
 459               	.LVL26:
 460 0194 9093 0000 		sts alarm_h,r25
 461               	.L23:
 462               	.LBB252:
 463               	.LBB253:
 464               	.LM79:
 465 0198 F999      		sbic 63-32,1
 466 019a 00C0      		rjmp .L23
 467               	.LM80:
 468 019c 81E0      		ldi r24,lo8(1)
 469 019e 90E0      		ldi r25,hi8(1)
 470 01a0 92BD      		out (65)+1-32,r25
 471 01a2 81BD      		out 65-32,r24
 472               	.LM81:
 473               	/* #APP */
 474               	 ;  208 "/Applications/Arduino.app/Contents/Resources/Java/hardware/tools/avr/bin/../lib/gcc/avr/4.
 475               		/* START EEPROM READ CRITICAL SECTION */ 
 476 01a4 F89A      		sbi 31, 0 
 477 01a6 80B5      		in r24, 32 
 478               		/* END EEPROM READ CRITICAL SECTION */ 
 479               		
 480               	 ;  0 "" 2
 481               	.LVL27:
 482               	/* #NOAPP */
 483               	.LBE253:
 484               	.LBE252:
 485               	.LM82:
 486 01a8 64E6      		ldi r22,lo8(100)
 487 01aa 0E94 0000 		call __udivmodqi4
 488               	.LVL28:
 489 01ae 9093 0000 		sts date_y,r25
 490               	.L24:
 491               	.LBB254:
 492               	.LBB255:
 493               	.LM83:
 494 01b2 F999      		sbic 63-32,1
 495 01b4 00C0      		rjmp .L24
 496               	.LM84:
 497 01b6 82E0      		ldi r24,lo8(2)
 498 01b8 90E0      		ldi r25,hi8(2)
 499 01ba 92BD      		out (65)+1-32,r25
 500 01bc 81BD      		out 65-32,r24
 501               	.LM85:
 502               	/* #APP */
 503               	 ;  208 "/Applications/Arduino.app/Contents/Resources/Java/hardware/tools/avr/bin/../lib/gcc/avr/4.
 504               		/* START EEPROM READ CRITICAL SECTION */ 
 505 01be F89A      		sbi 31, 0 
 506 01c0 80B5      		in r24, 32 
 507               		/* END EEPROM READ CRITICAL SECTION */ 
 508               		
 509               	 ;  0 "" 2
 510               	.LVL29:
 511               	/* #NOAPP */
 512               	.LBE255:
 513               	.LBE254:
 514               	.LM86:
 515 01c2 6DE0      		ldi r22,lo8(13)
 516 01c4 0E94 0000 		call __udivmodqi4
 517               	.LVL30:
 518 01c8 9093 0000 		sts date_m,r25
 519               	.L25:
 520               	.LBB256:
 521               	.LBB257:
 522               	.LM87:
 523 01cc F999      		sbic 63-32,1
 524 01ce 00C0      		rjmp .L25
 525               	.LM88:
 526 01d0 83E0      		ldi r24,lo8(3)
 527 01d2 90E0      		ldi r25,hi8(3)
 528 01d4 92BD      		out (65)+1-32,r25
 529 01d6 81BD      		out 65-32,r24
 530               	.LM89:
 531               	/* #APP */
 532               	 ;  208 "/Applications/Arduino.app/Contents/Resources/Java/hardware/tools/avr/bin/../lib/gcc/avr/4.
 533               		/* START EEPROM READ CRITICAL SECTION */ 
 534 01d8 F89A      		sbi 31, 0 
 535 01da 80B5      		in r24, 32 
 536               		/* END EEPROM READ CRITICAL SECTION */ 
 537               		
 538               	 ;  0 "" 2
 539               	.LVL31:
 540               	/* #NOAPP */
 541               	.LBE257:
 542               	.LBE256:
 543               	.LM90:
 544 01dc 8F71      		andi r24,lo8(31)
 545 01de 8093 0000 		sts date_d,r24
 546               	.LM91:
 547 01e2 91E0      		ldi r25,lo8(1)
 548 01e4 9093 0000 		sts restored,r25
 549               	.LM92:
 550 01e8 8091 B600 		lds r24,182
 551               	.LVL32:
 552 01ec 8062      		ori r24,lo8(32)
 553 01ee 8093 B600 		sts 182,r24
 554               	.LM93:
 555 01f2 85E0      		ldi r24,lo8(5)
 556 01f4 8093 B100 		sts 177,r24
 557               	.LM94:
 558 01f8 9093 7000 		sts 112,r25
 559               	.LM95:
 560               	/* #APP */
 561               	 ;  1314 "iv.c" 1
 562 01fc 7894      		sei
 563               	 ;  0 "" 2
 564               	/* epilogue start */
 565               	.LM96:
 566               	/* #NOAPP */
 567 01fe 0895      		ret
 568               	.LFE35:
 570               	.global	leapyear
 572               	leapyear:
 573               	.LFB37:
 574               	.LM97:
 575               	.LVL33:
 576               	/* prologue: function */
 577               	/* frame size = 0 */
 578 0200 FC01      		movw r30,r24
 579               	.LM98:
 580 0202 8370      		andi r24,lo8(3)
 581 0204 9070      		andi r25,hi8(3)
 582               	.LVL34:
 583 0206 892B      		or r24,r25
 584 0208 01F4      		brne .L36
 585 020a CF01      		movw r24,r30
 586 020c 64E6      		ldi r22,lo8(100)
 587 020e 70E0      		ldi r23,hi8(100)
 588 0210 0E94 0000 		call __udivmodhi4
 589 0214 892B      		or r24,r25
 590 0216 01F4      		brne .L40
 591               	.L36:
 592 0218 20E0      		ldi r18,lo8(0)
 593 021a 30E0      		ldi r19,hi8(0)
 594 021c CF01      		movw r24,r30
 595 021e 60E9      		ldi r22,lo8(400)
 596 0220 71E0      		ldi r23,hi8(400)
 597 0222 0E94 0000 		call __udivmodhi4
 598 0226 892B      		or r24,r25
 599 0228 01F4      		brne .L37
 600               	.L40:
 601 022a 21E0      		ldi r18,lo8(1)
 602 022c 30E0      		ldi r19,hi8(1)
 603               	.L37:
 604               	.LM99:
 605 022e 822F      		mov r24,r18
 606               	/* epilogue start */
 607 0230 0895      		ret
 608               	.LFE37:
 610               	.global	speaker_init
 612               	speaker_init:
 613               	.LFB38:
 614               	.LM100:
 615               	/* prologue: function */
 616               	/* frame size = 0 */
 617               	.L42:
 618               	.LBB258:
 619               	.LBB259:
 620               	.LM101:
 621 0232 F999      		sbic 63-32,1
 622 0234 00C0      		rjmp .L42
 623               	.LM102:
 624 0236 8AE0      		ldi r24,lo8(10)
 625 0238 90E0      		ldi r25,hi8(10)
 626 023a 92BD      		out (65)+1-32,r25
 627 023c 81BD      		out 65-32,r24
 628               	.LM103:
 629               	/* #APP */
 630               	 ;  208 "/Applications/Arduino.app/Contents/Resources/Java/hardware/tools/avr/bin/../lib/gcc/avr/4.
 631               		/* START EEPROM READ CRITICAL SECTION */ 
 632 023e F89A      		sbi 31, 0 
 633 0240 80B5      		in r24, 32 
 634               		/* END EEPROM READ CRITICAL SECTION */ 
 635               		
 636               	 ;  0 "" 2
 637               	.LVL35:
 638               	/* #NOAPP */
 639               	.LBE259:
 640               	.LBE258:
 641               	.LM104:
 642 0242 8093 0000 		sts volume,r24
 643               	.LM105:
 644 0246 85B1      		in r24,37-32
 645               	.LVL36:
 646 0248 8660      		ori r24,lo8(6)
 647 024a 85B9      		out 37-32,r24
 648               	.LM106:
 649 024c 82E3      		ldi r24,lo8(50)
 650 024e 8093 8000 		sts 128,r24
 651               	.LM107:
 652 0252 8091 0000 		lds r24,volume
 653 0256 8823      		tst r24
 654 0258 01F0      		breq .L43
 655               	.LM108:
 656 025a 8091 8000 		lds r24,128
 657 025e 8068      		ori r24,lo8(-128)
 658 0260 8093 8000 		sts 128,r24
 659               	.L43:
 660               	.LM109:
 661 0264 88E1      		ldi r24,lo8(24)
 662 0266 8093 8100 		sts 129,r24
 663               	.LM110:
 664 026a 8AEF      		ldi r24,lo8(250)
 665 026c 90E0      		ldi r25,hi8(250)
 666 026e 9093 8700 		sts (134)+1,r25
 667 0272 8093 8600 		sts 134,r24
 668               	.LM111:
 669 0276 8091 8600 		lds r24,134
 670 027a 9091 8700 		lds r25,(134)+1
 671 027e 9695      		lsr r25
 672 0280 8795      		ror r24
 673 0282 9093 8900 		sts (136)+1,r25
 674 0286 8093 8800 		sts 136,r24
 675 028a 8091 8800 		lds r24,136
 676 028e 9091 8900 		lds r25,(136)+1
 677 0292 9093 8B00 		sts (138)+1,r25
 678 0296 8093 8A00 		sts 138,r24
 679               	/* epilogue start */
 680               	.LM112:
 681 029a 0895      		ret
 682               	.LFE38:
 684               	.global	tick
 686               	tick:
 687               	.LFB39:
 688               	.LM113:
 689               	/* prologue: function */
 690               	/* frame size = 0 */
 691               	.LM114:
 692 029c 1092 8000 		sts 128,__zero_reg__
 693               	.LM115:
 694 02a0 1092 8100 		sts 129,__zero_reg__
 695               	.LM116:
 696 02a4 299A      		sbi 37-32,1
 697               	.LM117:
 698 02a6 2A98      		cbi 37-32,2
 699               	.LBB260:
 700               	.LBB261:
 701               	.LM118:
 702               	/* #APP */
 703               	 ;  117 "iv.c" 1
 704 02a8 7894      		sei
 705               	 ;  0 "" 2
 706               	.LM119:
 707               	/* #NOAPP */
 708 02aa 1092 0000 		sts (milliseconds)+1,__zero_reg__
 709 02ae 1092 0000 		sts milliseconds,__zero_reg__
 710               	.L47:
 711               	.LM120:
 712 02b2 8091 0000 		lds r24,milliseconds
 713 02b6 9091 0000 		lds r25,(milliseconds)+1
 714 02ba 0A97      		sbiw r24,10
 715 02bc 00F0      		brlo .L47
 716               	.LBE261:
 717               	.LBE260:
 718               	.LM121:
 719 02be 2A9A      		sbi 37-32,2
 720               	.LM122:
 721 02c0 2998      		cbi 37-32,1
 722               	.LBB262:
 723               	.LBB263:
 724               	.LM123:
 725               	/* #APP */
 726               	 ;  117 "iv.c" 1
 727 02c2 7894      		sei
 728               	 ;  0 "" 2
 729               	.LM124:
 730               	/* #NOAPP */
 731 02c4 1092 0000 		sts (milliseconds)+1,__zero_reg__
 732 02c8 1092 0000 		sts milliseconds,__zero_reg__
 733               	.L48:
 734               	.LM125:
 735 02cc 8091 0000 		lds r24,milliseconds
 736 02d0 9091 0000 		lds r25,(milliseconds)+1
 737 02d4 0A97      		sbiw r24,10
 738 02d6 00F0      		brlo .L48
 739               	.LBE263:
 740               	.LBE262:
 741               	.LM126:
 742 02d8 85B1      		in r24,37-32
 743 02da 897F      		andi r24,lo8(-7)
 744 02dc 85B9      		out 37-32,r24
 745               	.LM127:
 746 02de 82EB      		ldi r24,lo8(-78)
 747 02e0 8093 8000 		sts 128,r24
 748               	.LM128:
 749 02e4 88E1      		ldi r24,lo8(24)
 750 02e6 8093 8100 		sts 129,r24
 751               	/* epilogue start */
 752               	.LM129:
 753 02ea 0895      		ret
 754               	.LFE39:
 756               	.global	beep
 758               	beep:
 759               	.LFB40:
 760               	.LM130:
 761               	.LVL37:
 762 02ec 1F93      		push r17
 763               	/* prologue: function */
 764               	/* frame size = 0 */
 765 02ee 162F      		mov r17,r22
 766               	.LM131:
 767 02f0 9C01      		movw r18,r24
 768 02f2 40E0      		ldi r20,lo8(0)
 769 02f4 50E0      		ldi r21,hi8(0)
 770               	.LVL38:
 771 02f6 60E4      		ldi r22,lo8(1000000)
 772 02f8 72E4      		ldi r23,hi8(1000000)
 773 02fa 8FE0      		ldi r24,hlo8(1000000)
 774 02fc 90E0      		ldi r25,hhi8(1000000)
 775               	.LVL39:
 776 02fe 0E94 0000 		call __divmodsi4
 777 0302 3093 8700 		sts (134)+1,r19
 778 0306 2093 8600 		sts 134,r18
 779               	.LM132:
 780 030a 8091 8600 		lds r24,134
 781 030e 9091 8700 		lds r25,(134)+1
 782               	.LVL40:
 783 0312 9695      		lsr r25
 784 0314 8795      		ror r24
 785 0316 9093 8B00 		sts (138)+1,r25
 786 031a 8093 8A00 		sts 138,r24
 787 031e 8091 8A00 		lds r24,138
 788 0322 9091 8B00 		lds r25,(138)+1
 789 0326 9093 8900 		sts (136)+1,r25
 790 032a 8093 8800 		sts 136,r24
 791               	.LBB264:
 792               	.LBB265:
 793               	.LBB266:
 794               	.LBB267:
 795               	.LM133:
 796 032e 28EC      		ldi r18,lo8(200)
 797 0330 30E0      		ldi r19,hi8(200)
 798 0332 00C0      		rjmp .L53
 799               	.LVL41:
 800               	.L56:
 801               	.LBE267:
 802               	.LBE266:
 803               	.LBE265:
 804               	.LBE264:
 805               	.LM134:
 806 0334 8091 8100 		lds r24,129
 807               	.LVL42:
 808 0338 8260      		ori r24,lo8(2)
 809 033a 8093 8100 		sts 129,r24
 810 033e 80ED      		ldi r24,lo8(2000)
 811 0340 97E0      		ldi r25,hi8(2000)
 812               	.LVL43:
 813               	.L54:
 814               	.LBB271:
 815               	.LBB270:
 816               	.LBB269:
 817               	.LBB268:
 818               	.LM135:
 819 0342 F901      		movw r30,r18
 820               	.LVL44:
 821               	/* #APP */
 822               	 ;  105 "/Applications/Arduino.app/Contents/Resources/Java/hardware/tools/avr/bin/../lib/gcc/avr/4.
 823 0344 3197      		1: sbiw r30,1
 824 0346 01F4      		brne 1b
 825               	 ;  0 "" 2
 826               	/* #NOAPP */
 827               	.LBE268:
 828               	.LBE269:
 829               	.LM136:
 830 0348 0197      		sbiw r24,1
 831               	.LM137:
 832 034a 01F4      		brne .L54
 833               	.LBE270:
 834               	.LBE271:
 835               	.LM138:
 836 034c 8091 8100 		lds r24,129
 837               	.LVL45:
 838 0350 8D7F      		andi r24,lo8(-3)
 839 0352 8093 8100 		sts 129,r24
 840               	.LM139:
 841 0356 85B1      		in r24,37-32
 842 0358 897F      		andi r24,lo8(-7)
 843 035a 85B9      		out 37-32,r24
 844 035c 80ED      		ldi r24,lo8(2000)
 845 035e 97E0      		ldi r25,hi8(2000)
 846               	.LVL46:
 847               	.L55:
 848               	.LBB272:
 849               	.LBB273:
 850               	.LBB274:
 851               	.LBB275:
 852               	.LM140:
 853 0360 F901      		movw r30,r18
 854               	.LVL47:
 855               	/* #APP */
 856               	 ;  105 "/Applications/Arduino.app/Contents/Resources/Java/hardware/tools/avr/bin/../lib/gcc/avr/4.
 857 0362 3197      		1: sbiw r30,1
 858 0364 01F4      		brne 1b
 859               	 ;  0 "" 2
 860               	/* #NOAPP */
 861               	.LBE275:
 862               	.LBE274:
 863               	.LM141:
 864 0366 0197      		sbiw r24,1
 865               	.LM142:
 866 0368 01F4      		brne .L55
 867 036a 1150      		subi r17,lo8(-(-1))
 868               	.L53:
 869               	.LBE273:
 870               	.LBE272:
 871               	.LM143:
 872 036c 1123      		tst r17
 873 036e 01F4      		brne .L56
 874               	.LM144:
 875 0370 85B1      		in r24,37-32
 876               	.LVL48:
 877 0372 897F      		andi r24,lo8(-7)
 878 0374 85B9      		out 37-32,r24
 879               	/* epilogue start */
 880               	.LM145:
 881 0376 1F91      		pop r17
 882               	.LVL49:
 883 0378 0895      		ret
 884               	.LFE40:
 886               	.global	dimmer_init
 888               	dimmer_init:
 889               	.LFB41:
 890               	.LM146:
 891               	/* prologue: function */
 892               	/* frame size = 0 */
 893               	.LM147:
 894 037a 3D9A      		sbi 39-32,5
 895               	.LM148:
 896 037c 459A      		sbi 40-32,5
 897               	.LM149:
 898 037e AAE7      		ldi r26,lo8(122)
 899 0380 B0E0      		ldi r27,hi8(122)
 900 0382 8C91      		ld r24,X
 901 0384 8660      		ori r24,lo8(6)
 902 0386 8C93      		st X,r24
 903               	.LM150:
 904 0388 ECE7      		ldi r30,lo8(124)
 905 038a F0E0      		ldi r31,hi8(124)
 906 038c 8081      		ld r24,Z
 907 038e 8064      		ori r24,lo8(64)
 908 0390 8083      		st Z,r24
 909               	.LM151:
 910 0392 8081      		ld r24,Z
 911 0394 8460      		ori r24,lo8(4)
 912 0396 8083      		st Z,r24
 913               	.LM152:
 914 0398 EEE7      		ldi r30,lo8(126)
 915 039a F0E0      		ldi r31,hi8(126)
 916 039c 8081      		ld r24,Z
 917 039e 8061      		ori r24,lo8(16)
 918 03a0 8083      		st Z,r24
 919               	.LM153:
 920 03a2 8C91      		ld r24,X
 921 03a4 8068      		ori r24,lo8(-128)
 922 03a6 8C93      		st X,r24
 923               	.LM154:
 924 03a8 8C91      		ld r24,X
 925 03aa 8860      		ori r24,lo8(8)
 926 03ac 8C93      		st X,r24
 927               	/* epilogue start */
 928               	.LM155:
 929 03ae 0895      		ret
 930               	.LFE41:
 932               	.global	dimmer_update
 934               	dimmer_update:
 935               	.LFB42:
 936               	.LM156:
 937               	/* prologue: function */
 938               	/* frame size = 0 */
 939               	.LM157:
 940 03b0 8091 0000 		lds r24,brightness_level
 941 03b4 8823      		tst r24
 942 03b6 01F4      		brne .L64
 943               	.LM158:
 944 03b8 8091 7A00 		lds r24,122
 945 03bc 8064      		ori r24,lo8(64)
 946 03be 8093 7A00 		sts 122,r24
 947               	.L64:
 948 03c2 0895      		ret
 949               	.LFE42:
 951               	.global	__vector_21
 953               	__vector_21:
 954               	.LFB43:
 955               	.LM159:
 956 03c4 1F92      		push __zero_reg__
 957 03c6 0F92      		push r0
 958 03c8 0FB6      		in r0,__SREG__
 959 03ca 0F92      		push r0
 960 03cc 1124      		clr __zero_reg__
 961 03ce 2F93      		push r18
 962 03d0 3F93      		push r19
 963 03d2 4F93      		push r20
 964 03d4 5F93      		push r21
 965 03d6 6F93      		push r22
 966 03d8 7F93      		push r23
 967 03da 8F93      		push r24
 968 03dc 9F93      		push r25
 969 03de AF93      		push r26
 970 03e0 BF93      		push r27
 971 03e2 EF93      		push r30
 972 03e4 FF93      		push r31
 973               	/* prologue: Signal */
 974               	/* frame size = 0 */
 975               	.LM160:
 976 03e6 8091 0000 		lds r24,brightness_level
 977 03ea 8823      		tst r24
 978 03ec 01F4      		brne .L72
 979               	.LM161:
 980 03ee 3091 7800 		lds r19,120
 981               	.LVL50:
 982               	.LM162:
 983 03f2 2091 7900 		lds r18,121
 984               	.LVL51:
 985               	.LM163:
 986 03f6 922F      		mov r25,r18
 987               	.LVL52:
 988 03f8 80E0      		ldi r24,lo8(0)
 989               	.LVL53:
 990 03fa 632F      		mov r22,r19
 991               	.LVL54:
 992 03fc 70E0      		ldi r23,lo8(0)
 993               	.LVL55:
 994 03fe 682B      		or r22,r24
 995 0400 792B      		or r23,r25
 996               	.LVL56:
 997               	.LM164:
 998 0402 83E0      		ldi r24,hi8(1023)
 999 0404 6F3F      		cpi r22,lo8(1023)
 1000 0406 7807      		cpc r23,r24
 1001               	.LVL57:
 1002 0408 00F0      		brlo .L67
 1003 040a 8DE2      		ldi r24,lo8(45)
 1004 040c 90E0      		ldi r25,hi8(45)
 1005               	.LVL58:
 1006 040e 00C0      		rjmp .L68
 1007               	.LVL59:
 1008               	.L67:
 1009               	.LM165:
 1010 0410 82E0      		ldi r24,hi8(601)
 1011 0412 6935      		cpi r22,lo8(601)
 1012 0414 7807      		cpc r23,r24
 1013 0416 00F4      		brsh .L69
 1014 0418 8AE5      		ldi r24,lo8(90)
 1015 041a 90E0      		ldi r25,hi8(90)
 1016               	.LVL60:
 1017 041c 00C0      		rjmp .L68
 1018               	.LVL61:
 1019               	.L69:
 1020               	.LM166:
 1021 041e 6855      		subi r22,lo8(-(-600))
 1022 0420 7240      		sbci r23,hi8(-(-600))
 1023 0422 80E0      		ldi r24,lo8(0)
 1024 0424 90E0      		ldi r25,hi8(0)
 1025 0426 2DE2      		ldi r18,lo8(45)
 1026 0428 30E0      		ldi r19,hi8(45)
 1027 042a 40E0      		ldi r20,hlo8(45)
 1028 042c 50E0      		ldi r21,hhi8(45)
 1029 042e 0E94 0000 		call __mulsi3
 1030               	.LVL62:
 1031 0432 27EA      		ldi r18,lo8(423)
 1032 0434 31E0      		ldi r19,hi8(423)
 1033 0436 40E0      		ldi r20,hlo8(423)
 1034 0438 50E0      		ldi r21,hhi8(423)
 1035 043a 0E94 0000 		call __udivmodsi4
 1036 043e 8AE5      		ldi r24,lo8(90)
 1037 0440 90E0      		ldi r25,hi8(90)
 1038               	.LVL63:
 1039 0442 821B      		sub r24,r18
 1040 0444 930B      		sbc r25,r19
 1041               	.L68:
 1042               	.LM167:
 1043 0446 982F      		mov r25,r24
 1044               	.LVL64:
 1045               	.LBB276:
 1046               	.LBB277:
 1047               	.LM168:
 1048 0448 8B35      		cpi r24,lo8(91)
 1049 044a 00F0      		brlo .L70
 1050               	.LVL65:
 1051 044c 9AE5      		ldi r25,lo8(90)
 1052               	.LVL66:
 1053 044e 00C0      		rjmp .L71
 1054               	.LVL67:
 1055               	.L70:
 1056               	.LM169:
 1057 0450 8E31      		cpi r24,lo8(30)
 1058 0452 00F4      		brsh .L71
 1059 0454 9EE1      		ldi r25,lo8(30)
 1060               	.LVL68:
 1061               	.L71:
 1062               	.LM170:
 1063 0456 87B5      		in r24,71-32
 1064               	.LVL69:
 1065 0458 8913      		cpse r24,r25
 1066               	.LM171:
 1067 045a 97BD      		out 71-32,r25
 1068               	.L72:
 1069               	/* epilogue start */
 1070               	.LBE277:
 1071               	.LBE276:
 1072               	.LM172:
 1073 045c FF91      		pop r31
 1074 045e EF91      		pop r30
 1075 0460 BF91      		pop r27
 1076 0462 AF91      		pop r26
 1077 0464 9F91      		pop r25
 1078               	.LVL70:
 1079 0466 8F91      		pop r24
 1080 0468 7F91      		pop r23
 1081               	.LVL71:
 1082 046a 6F91      		pop r22
 1083 046c 5F91      		pop r21
 1084 046e 4F91      		pop r20
 1085 0470 3F91      		pop r19
 1086               	.LVL72:
 1087 0472 2F91      		pop r18
 1088 0474 0F90      		pop r0
 1089 0476 0FBE      		out __SREG__,r0
 1090 0478 0F90      		pop r0
 1091 047a 1F90      		pop __zero_reg__
 1092 047c 1895      		reti
 1093               	.LFE43:
 1095               	.global	boost_init
 1097               	boost_init:
 1098               	.LFB44:
 1099               	.LM173:
 1100               	.LVL73:
 1101               	/* prologue: function */
 1102               	/* frame size = 0 */
 1103 047e 982F      		mov r25,r24
 1104               	.LBB278:
 1105               	.LBB279:
 1106               	.LM174:
 1107 0480 8B35      		cpi r24,lo8(91)
 1108 0482 00F0      		brlo .L74
 1109 0484 9AE5      		ldi r25,lo8(90)
 1110               	.LVL74:
 1111 0486 00C0      		rjmp .L75
 1112               	.LVL75:
 1113               	.L74:
 1114               	.LM175:
 1115 0488 8E31      		cpi r24,lo8(30)
 1116 048a 00F4      		brsh .L75
 1117 048c 9EE1      		ldi r25,lo8(30)
 1118               	.LVL76:
 1119               	.L75:
 1120               	.LM176:
 1121 048e 87B5      		in r24,71-32
 1122 0490 8913      		cpse r24,r25
 1123               	.LM177:
 1124 0492 97BD      		out 71-32,r25
 1125               	.L76:
 1126               	.LBE279:
 1127               	.LBE278:
 1128               	.LM178:
 1129 0494 83E0      		ldi r24,lo8(3)
 1130 0496 84BD      		out 68-32,r24
 1131               	.LM179:
 1132 0498 81E0      		ldi r24,lo8(1)
 1133 049a 85BD      		out 69-32,r24
 1134               	.LM180:
 1135 049c 84B5      		in r24,68-32
 1136 049e 8068      		ori r24,lo8(-128)
 1137 04a0 84BD      		out 68-32,r24
 1138               	.LM181:
 1139 04a2 8091 6E00 		lds r24,110
 1140 04a6 8160      		ori r24,lo8(1)
 1141 04a8 8093 6E00 		sts 110,r24
 1142               	.LM182:
 1143               	/* #APP */
 1144               	 ;  1485 "iv.c" 1
 1145 04ac 7894      		sei
 1146               	 ;  0 "" 2
 1147               	/* epilogue start */
 1148               	.LM183:
 1149               	/* #NOAPP */
 1150 04ae 0895      		ret
 1151               	.LFE44:
 1153               	.global	set_vfd_brightness
 1155               	set_vfd_brightness:
 1156               	.LFB45:
 1157               	.LM184:
 1158               	.LVL77:
 1159               	/* prologue: function */
 1160               	/* frame size = 0 */
 1161 04b0 982F      		mov r25,r24
 1162               	.LM185:
 1163 04b2 8B35      		cpi r24,lo8(91)
 1164 04b4 00F0      		brlo .L79
 1165 04b6 9AE5      		ldi r25,lo8(90)
 1166               	.LVL78:
 1167 04b8 00C0      		rjmp .L80
 1168               	.LVL79:
 1169               	.L79:
 1170               	.LM186:
 1171 04ba 8E31      		cpi r24,lo8(30)
 1172 04bc 00F4      		brsh .L80
 1173 04be 9EE1      		ldi r25,lo8(30)
 1174               	.LVL80:
 1175               	.L80:
 1176               	.LM187:
 1177 04c0 87B5      		in r24,71-32
 1178 04c2 8913      		cpse r24,r25
 1179               	.LM188:
 1180 04c4 97BD      		out 71-32,r25
 1181               	.L82:
 1182 04c6 0895      		ret
 1183               	.LFE45:
 1185               	.global	display_time
 1187               	display_time:
 1188               	.LFB47:
 1189               	.LM189:
 1190               	.LVL81:
 1191 04c8 1F93      		push r17
 1192               	/* prologue: function */
 1193               	/* frame size = 0 */
 1194 04ca 182F      		mov r17,r24
 1195 04cc 262F      		mov r18,r22
 1196               	.LBB280:
 1197               	.LM190:
 1198 04ce 842F      		mov r24,r20
 1199               	.LVL82:
 1200 04d0 6AE0      		ldi r22,lo8(10)
 1201               	.LVL83:
 1202 04d2 0E94 0000 		call __udivmodqi4
 1203 04d6 E92F      		mov r30,r25
 1204 04d8 F0E0      		ldi r31,lo8(0)
 1205 04da E050      		subi r30,lo8(-(numbertable))
 1206 04dc F040      		sbci r31,hi8(-(numbertable))
 1207               	/* #APP */
 1208               	 ;  1638 "iv.c" 1
 1209 04de E491      		lpm r30, Z
 1210               		
 1211               	 ;  0 "" 2
 1212               	.LVL84:
 1213               	/* #NOAPP */
 1214               	.LBE280:
 1215 04e0 E093 0000 		sts display+8,r30
 1216               	.LBB281:
 1217               	.LM191:
 1218 04e4 842F      		mov r24,r20
 1219 04e6 0E94 0000 		call __udivmodqi4
 1220 04ea E82F      		mov r30,r24
 1221               	.LVL85:
 1222 04ec F0E0      		ldi r31,lo8(0)
 1223 04ee E050      		subi r30,lo8(-(numbertable))
 1224 04f0 F040      		sbci r31,hi8(-(numbertable))
 1225               	/* #APP */
 1226               	 ;  1639 "iv.c" 1
 1227 04f2 E491      		lpm r30, Z
 1228               		
 1229               	 ;  0 "" 2
 1230               	.LVL86:
 1231               	/* #NOAPP */
 1232               	.LBE281:
 1233 04f4 E093 0000 		sts display+7,r30
 1234               	.LM192:
 1235 04f8 8091 0000 		lds r24,secondDisp
 1236 04fc 8330      		cpi r24,lo8(3)
 1237 04fe 01F0      		breq .L88
 1238 0500 8430      		cpi r24,lo8(4)
 1239 0502 00F4      		brsh .L92
 1240 0504 8130      		cpi r24,lo8(1)
 1241 0506 01F0      		breq .L90
 1242 0508 8230      		cpi r24,lo8(2)
 1243 050a 00F4      		brsh .L87
 1244 050c 00C0      		rjmp .L104
 1245               	.L92:
 1246 050e 8530      		cpi r24,lo8(5)
 1247 0510 01F0      		breq .L90
 1248 0512 8530      		cpi r24,lo8(5)
 1249 0514 00F0      		brlo .L89
 1250 0516 8630      		cpi r24,lo8(6)
 1251 0518 01F4      		brne .L101
 1252 051a 00C0      		rjmp .L105
 1253               	.L104:
 1254               	.LM193:
 1255 051c 88E0      		ldi r24,lo8(8)
 1256 051e 00C0      		rjmp .L102
 1257               	.L87:
 1258               	.LM194:
 1259 0520 80E4      		ldi r24,lo8(64)
 1260 0522 00C0      		rjmp .L102
 1261               	.L88:
 1262               	.LM195:
 1263 0524 80E8      		ldi r24,lo8(-128)
 1264 0526 00C0      		rjmp .L102
 1265               	.L89:
 1266               	.LM196:
 1267 0528 84E0      		ldi r24,lo8(4)
 1268 052a 00C0      		rjmp .L102
 1269               	.L90:
 1270               	.LM197:
 1271 052c 82E0      		ldi r24,lo8(2)
 1272 052e 00C0      		rjmp .L102
 1273               	.L105:
 1274               	.LM198:
 1275 0530 80E2      		ldi r24,lo8(32)
 1276 0532 00C0      		rjmp .L102
 1277               	.L101:
 1278               	.LM199:
 1279 0534 80E1      		ldi r24,lo8(16)
 1280               	.L102:
 1281 0536 8093 0000 		sts display+3,r24
 1282               	.LM200:
 1283 053a 8093 0000 		sts display+6,r24
 1284               	.LM201:
 1285 053e 8091 0000 		lds r24,secondDisp
 1286 0542 8730      		cpi r24,lo8(7)
 1287 0544 01F4      		brne .L94
 1288               	.LM202:
 1289 0546 1092 0000 		sts secondDisp,__zero_reg__
 1290 054a 00C0      		rjmp .L95
 1291               	.L94:
 1292               	.LM203:
 1293 054c 8091 0000 		lds r24,secondDisp
 1294 0550 8F5F      		subi r24,lo8(-(1))
 1295 0552 8093 0000 		sts secondDisp,r24
 1296               	.L95:
 1297               	.LBB282:
 1298               	.LM204:
 1299 0556 822F      		mov r24,r18
 1300 0558 6AE0      		ldi r22,lo8(10)
 1301 055a 0E94 0000 		call __udivmodqi4
 1302 055e E92F      		mov r30,r25
 1303               	.LVL87:
 1304 0560 F0E0      		ldi r31,lo8(0)
 1305 0562 E050      		subi r30,lo8(-(numbertable))
 1306 0564 F040      		sbci r31,hi8(-(numbertable))
 1307               	/* #APP */
 1308               	 ;  1682 "iv.c" 1
 1309 0566 E491      		lpm r30, Z
 1310               		
 1311               	 ;  0 "" 2
 1312               	.LVL88:
 1313               	/* #NOAPP */
 1314               	.LBE282:
 1315 0568 E093 0000 		sts display+5,r30
 1316               	.LBB283:
 1317               	.LM205:
 1318 056c 822F      		mov r24,r18
 1319 056e 0E94 0000 		call __udivmodqi4
 1320 0572 E82F      		mov r30,r24
 1321               	.LVL89:
 1322 0574 F0E0      		ldi r31,lo8(0)
 1323 0576 E050      		subi r30,lo8(-(numbertable))
 1324 0578 F040      		sbci r31,hi8(-(numbertable))
 1325               	/* #APP */
 1326               	 ;  1683 "iv.c" 1
 1327 057a E491      		lpm r30, Z
 1328               		
 1329               	 ;  0 "" 2
 1330               	.LVL90:
 1331               	/* #NOAPP */
 1332               	.LBE283:
 1333 057c E093 0000 		sts display+4,r30
 1334               	.LM206:
 1335 0580 8091 0000 		lds r24,region
 1336 0584 8823      		tst r24
 1337 0586 01F4      		brne .L96
 1338               	.LBB284:
 1339               	.LM207:
 1340 0588 812F      		mov r24,r17
 1341 058a 90E0      		ldi r25,lo8(0)
 1342               	.LVL91:
 1343 058c 0B96      		adiw r24,11
 1344 058e 6CE0      		ldi r22,lo8(12)
 1345 0590 70E0      		ldi r23,hi8(12)
 1346 0592 0E94 0000 		call __divmodhi4
 1347 0596 9C01      		movw r18,r24
 1348               	.LVL92:
 1349 0598 2F5F      		subi r18,lo8(-(1))
 1350 059a 3F4F      		sbci r19,hi8(-(1))
 1351 059c C901      		movw r24,r18
 1352 059e 6AE0      		ldi r22,lo8(10)
 1353 05a0 70E0      		ldi r23,hi8(10)
 1354 05a2 0E94 0000 		call __divmodhi4
 1355 05a6 FC01      		movw r30,r24
 1356               	.LVL93:
 1357 05a8 E050      		subi r30,lo8(-(numbertable))
 1358 05aa F040      		sbci r31,hi8(-(numbertable))
 1359               	/* #APP */
 1360               	 ;  1688 "iv.c" 1
 1361 05ac E491      		lpm r30, Z
 1362               		
 1363               	 ;  0 "" 2
 1364               	.LVL94:
 1365               	/* #NOAPP */
 1366               	.LBE284:
 1367 05ae E093 0000 		sts display+2,r30
 1368               	.LBB285:
 1369               	.LM208:
 1370 05b2 C901      		movw r24,r18
 1371 05b4 6AE0      		ldi r22,lo8(10)
 1372 05b6 70E0      		ldi r23,hi8(10)
 1373 05b8 0E94 0000 		call __divmodhi4
 1374 05bc FB01      		movw r30,r22
 1375               	.LVL95:
 1376 05be E050      		subi r30,lo8(-(numbertable))
 1377 05c0 F040      		sbci r31,hi8(-(numbertable))
 1378               	/* #APP */
 1379               	 ;  1689 "iv.c" 1
 1380 05c2 E491      		lpm r30, Z
 1381               		
 1382               	 ;  0 "" 2
 1383               	.LVL96:
 1384               	/* #NOAPP */
 1385               	.LBE285:
 1386 05c4 E093 0000 		sts display+1,r30
 1387               	.LM209:
 1388 05c8 1C30      		cpi r17,lo8(12)
 1389 05ca 00F0      		brlo .L97
 1390               	.LM210:
 1391 05cc 8091 0000 		lds r24,display
 1392 05d0 8160      		ori r24,lo8(1)
 1393 05d2 00C0      		rjmp .L103
 1394               	.L97:
 1395               	.LM211:
 1396 05d4 8091 0000 		lds r24,display
 1397 05d8 8E7F      		andi r24,lo8(-2)
 1398               	.L103:
 1399 05da 8093 0000 		sts display,r24
 1400 05de 00C0      		rjmp .L99
 1401               	.LVL97:
 1402               	.L96:
 1403               	.LBB286:
 1404               	.LM212:
 1405 05e0 812F      		mov r24,r17
 1406 05e2 68E1      		ldi r22,lo8(24)
 1407 05e4 0E94 0000 		call __udivmodqi4
 1408 05e8 292F      		mov r18,r25
 1409               	.LVL98:
 1410 05ea 892F      		mov r24,r25
 1411 05ec 6AE0      		ldi r22,lo8(10)
 1412 05ee 0E94 0000 		call __udivmodqi4
 1413 05f2 E92F      		mov r30,r25
 1414               	.LVL99:
 1415 05f4 F0E0      		ldi r31,lo8(0)
 1416 05f6 E050      		subi r30,lo8(-(numbertable))
 1417 05f8 F040      		sbci r31,hi8(-(numbertable))
 1418               	/* #APP */
 1419               	 ;  1697 "iv.c" 1
 1420 05fa E491      		lpm r30, Z
 1421               		
 1422               	 ;  0 "" 2
 1423               	.LVL100:
 1424               	/* #NOAPP */
 1425               	.LBE286:
 1426 05fc E093 0000 		sts display+2,r30
 1427               	.LBB287:
 1428               	.LM213:
 1429 0600 822F      		mov r24,r18
 1430 0602 0E94 0000 		call __udivmodqi4
 1431 0606 E82F      		mov r30,r24
 1432               	.LVL101:
 1433 0608 F0E0      		ldi r31,lo8(0)
 1434 060a E050      		subi r30,lo8(-(numbertable))
 1435 060c F040      		sbci r31,hi8(-(numbertable))
 1436               	/* #APP */
 1437               	 ;  1698 "iv.c" 1
 1438 060e E491      		lpm r30, Z
 1439               		
 1440               	 ;  0 "" 2
 1441               	.LVL102:
 1442               	/* #NOAPP */
 1443               	.LBE287:
 1444 0610 E093 0000 		sts display+1,r30
 1445               	.LVL103:
 1446               	.L99:
 1447               	/* epilogue start */
 1448               	.LM214:
 1449 0614 1F91      		pop r17
 1450               	.LVL104:
 1451 0616 0895      		ret
 1452               	.LFE47:
 1454               	.global	set_time
 1456               	set_time:
 1457               	.LFB28:
 1458               	.LM215:
 1459 0618 BF92      		push r11
 1460 061a CF92      		push r12
 1461 061c DF92      		push r13
 1462 061e EF92      		push r14
 1463 0620 FF92      		push r15
 1464 0622 0F93      		push r16
 1465 0624 1F93      		push r17
 1466 0626 CF93      		push r28
 1467 0628 DF93      		push r29
 1468               	/* prologue: function */
 1469               	/* frame size = 0 */
 1470               	.LM216:
 1471 062a E090 0000 		lds r14,time_h
 1472               	.LVL105:
 1473               	.LM217:
 1474 062e F090 0000 		lds r15,time_m
 1475               	.LVL106:
 1476               	.LM218:
 1477 0632 0091 0000 		lds r16,time_s
 1478               	.LVL107:
 1479               	.LM219:
 1480 0636 8AE0      		ldi r24,lo8(10)
 1481 0638 8093 0000 		sts timeoutcounter,r24
 1482 063c 10E0      		ldi r17,lo8(0)
 1483               	.LVL108:
 1484               	.LM220:
 1485 063e 5AE0      		ldi r21,lo8(10)
 1486 0640 B52E      		mov r11,r21
 1487               	.LBB288:
 1488               	.LBB289:
 1489               	.LM221:
 1490 0642 45E0      		ldi r20,lo8(5)
 1491 0644 C42E      		mov r12,r20
 1492 0646 D12C      		mov r13,__zero_reg__
 1493               	.LBE289:
 1494               	.LBE288:
 1495               	.LBB291:
 1496               	.LBB292:
 1497 0648 C4E0      		ldi r28,lo8(4)
 1498 064a D0E0      		ldi r29,hi8(4)
 1499               	.L129:
 1500               	.LBE292:
 1501               	.LBE291:
 1502               	.LM222:
 1503 064c 8091 0000 		lds r24,just_pressed
 1504 0650 80FD      		sbrc r24,0
 1505 0652 00C0      		rjmp .L123
 1506               	.LM223:
 1507 0654 8091 0000 		lds r24,just_pressed
 1508 0658 8823      		tst r24
 1509 065a 01F4      		brne .L108
 1510 065c 8091 0000 		lds r24,pressed
 1511 0660 8823      		tst r24
 1512 0662 01F0      		breq .L109
 1513               	.L108:
 1514               	.LM224:
 1515 0664 B092 0000 		sts timeoutcounter,r11
 1516 0668 00C0      		rjmp .L110
 1517               	.L109:
 1518               	.LM225:
 1519 066a 8091 0000 		lds r24,timeoutcounter
 1520 066e 8823      		tst r24
 1521 0670 01F4      		brne .+2
 1522 0672 00C0      		rjmp .L130
 1523               	.L110:
 1524               	.LM226:
 1525 0674 8091 0000 		lds r24,just_pressed
 1526 0678 81FF      		sbrs r24,1
 1527 067a 00C0      		rjmp .L111
 1528               	.LM227:
 1529 067c 1092 0000 		sts just_pressed,__zero_reg__
 1530               	.LM228:
 1531 0680 1123      		tst r17
 1532 0682 01F4      		brne .L112
 1533               	.LM229:
 1534 0684 E090 0000 		lds r14,time_h
 1535               	.LM230:
 1536 0688 F090 0000 		lds r15,time_m
 1537               	.LM231:
 1538 068c 0091 0000 		lds r16,time_s
 1539               	.LM232:
 1540 0690 8E2D      		mov r24,r14
 1541 0692 6F2D      		mov r22,r15
 1542 0694 402F      		mov r20,r16
 1543 0696 0E94 0000 		call display_time
 1544               	.LM233:
 1545 069a 8091 0000 		lds r24,display+1
 1546 069e 8160      		ori r24,lo8(1)
 1547 06a0 8093 0000 		sts display+1,r24
 1548               	.LM234:
 1549 06a4 8091 0000 		lds r24,display+2
 1550 06a8 8160      		ori r24,lo8(1)
 1551 06aa 8093 0000 		sts display+2,r24
 1552 06ae 11E0      		ldi r17,lo8(1)
 1553 06b0 00C0      		rjmp .L111
 1554               	.L112:
 1555               	.LM235:
 1556 06b2 1130      		cpi r17,lo8(1)
 1557 06b4 01F4      		brne .L113
 1558               	.LM236:
 1559 06b6 8E2D      		mov r24,r14
 1560 06b8 6F2D      		mov r22,r15
 1561 06ba 402F      		mov r20,r16
 1562 06bc 0E94 0000 		call display_time
 1563               	.LM237:
 1564 06c0 8091 0000 		lds r24,display+4
 1565 06c4 8160      		ori r24,lo8(1)
 1566 06c6 8093 0000 		sts display+4,r24
 1567               	.LM238:
 1568 06ca 8091 0000 		lds r24,display+5
 1569 06ce 8160      		ori r24,lo8(1)
 1570 06d0 8093 0000 		sts display+5,r24
 1571 06d4 12E0      		ldi r17,lo8(2)
 1572 06d6 00C0      		rjmp .L111
 1573               	.L113:
 1574               	.LM239:
 1575 06d8 1230      		cpi r17,lo8(2)
 1576 06da 01F4      		brne .L114
 1577               	.LM240:
 1578 06dc 8E2D      		mov r24,r14
 1579 06de 6F2D      		mov r22,r15
 1580 06e0 402F      		mov r20,r16
 1581 06e2 0E94 0000 		call display_time
 1582               	.LM241:
 1583 06e6 8091 0000 		lds r24,display+7
 1584 06ea 8160      		ori r24,lo8(1)
 1585 06ec 8093 0000 		sts display+7,r24
 1586               	.LM242:
 1587 06f0 8091 0000 		lds r24,display+8
 1588 06f4 8160      		ori r24,lo8(1)
 1589 06f6 8093 0000 		sts display+8,r24
 1590 06fa 13E0      		ldi r17,lo8(3)
 1591 06fc 00C0      		rjmp .L111
 1592               	.L114:
 1593               	.LM243:
 1594 06fe E092 0000 		sts time_h,r14
 1595               	.LM244:
 1596 0702 F092 0000 		sts time_m,r15
 1597               	.LM245:
 1598 0706 0093 0000 		sts time_s,r16
 1599               	.L130:
 1600               	.LM246:
 1601 070a 1092 0000 		sts displaymode,__zero_reg__
 1602 070e 00C0      		rjmp .L123
 1603               	.L111:
 1604               	.LM247:
 1605 0710 8091 0000 		lds r24,just_pressed
 1606 0714 82FD      		sbrc r24,2
 1607 0716 00C0      		rjmp .L115
 1608 0718 8091 0000 		lds r24,pressed
 1609 071c 82FF      		sbrs r24,2
 1610 071e 00C0      		rjmp .L129
 1611               	.L115:
 1612               	.LM248:
 1613 0720 1092 0000 		sts just_pressed,__zero_reg__
 1614               	.LM249:
 1615 0724 1130      		cpi r17,lo8(1)
 1616 0726 01F4      		brne .L117
 1617               	.LM250:
 1618 0728 8E2D      		mov r24,r14
 1619 072a 90E0      		ldi r25,lo8(0)
 1620               	.LVL109:
 1621 072c 0196      		adiw r24,1
 1622 072e 68E1      		ldi r22,lo8(24)
 1623 0730 70E0      		ldi r23,hi8(24)
 1624 0732 0E94 0000 		call __divmodhi4
 1625 0736 E82E      		mov r14,r24
 1626               	.LM251:
 1627 0738 6F2D      		mov r22,r15
 1628 073a 402F      		mov r20,r16
 1629 073c 0E94 0000 		call display_time
 1630               	.LVL110:
 1631               	.LM252:
 1632 0740 8091 0000 		lds r24,display+1
 1633 0744 8160      		ori r24,lo8(1)
 1634 0746 8093 0000 		sts display+1,r24
 1635               	.LM253:
 1636 074a 8091 0000 		lds r24,display+2
 1637 074e 8160      		ori r24,lo8(1)
 1638 0750 8093 0000 		sts display+2,r24
 1639               	.LM254:
 1640 0754 E092 0000 		sts time_h,r14
 1641               	.LM255:
 1642 0758 8091 0000 		lds r24,time_h
 1643               	.L118:
 1644               	.LBB294:
 1645               	.LBB293:
 1646               	.LM256:
 1647 075c F999      		sbic 63-32,1
 1648 075e 00C0      		rjmp .L118
 1649               	.LM257:
 1650 0760 1FBA      		out 63-32,__zero_reg__
 1651               	.LM258:
 1652 0762 D2BD      		out (65)+1-32,r29
 1653 0764 C1BD      		out 65-32,r28
 1654               	.LM259:
 1655 0766 80BD      		out 64-32,r24
 1656               	.LM260:
 1657               	/* #APP */
 1658               	 ;  324 "/Applications/Arduino.app/Contents/Resources/Java/hardware/tools/avr/bin/../lib/gcc/avr/4.
 1659               		/* START EEPROM WRITE CRITICAL SECTION */
 1660 0768 0FB6      		in	r0, 63		
 1661 076a F894      		cli				
 1662 076c FA9A      		sbi	31, 2	
 1663 076e F99A      		sbi	31, 1	
 1664 0770 0FBE      		out	63, r0		
 1665               		/* END EEPROM WRITE CRITICAL SECTION */
 1666               	 ;  0 "" 2
 1667               	/* #NOAPP */
 1668 0772 00C0      		rjmp .L119
 1669               	.L117:
 1670               	.LBE293:
 1671               	.LBE294:
 1672               	.LM261:
 1673 0774 1230      		cpi r17,lo8(2)
 1674 0776 01F4      		brne .L120
 1675               	.LM262:
 1676 0778 8F2D      		mov r24,r15
 1677 077a 90E0      		ldi r25,lo8(0)
 1678               	.LVL111:
 1679 077c 0196      		adiw r24,1
 1680 077e 6CE3      		ldi r22,lo8(60)
 1681 0780 70E0      		ldi r23,hi8(60)
 1682 0782 0E94 0000 		call __divmodhi4
 1683 0786 F82E      		mov r15,r24
 1684               	.LM263:
 1685 0788 8E2D      		mov r24,r14
 1686 078a 6F2D      		mov r22,r15
 1687 078c 402F      		mov r20,r16
 1688 078e 0E94 0000 		call display_time
 1689               	.LVL112:
 1690               	.LM264:
 1691 0792 8091 0000 		lds r24,display+4
 1692 0796 8160      		ori r24,lo8(1)
 1693 0798 8093 0000 		sts display+4,r24
 1694               	.LM265:
 1695 079c 8091 0000 		lds r24,display+5
 1696 07a0 8160      		ori r24,lo8(1)
 1697 07a2 8093 0000 		sts display+5,r24
 1698               	.LM266:
 1699 07a6 8091 0000 		lds r24,time_m
 1700               	.L121:
 1701               	.LBB295:
 1702               	.LBB290:
 1703               	.LM267:
 1704 07aa F999      		sbic 63-32,1
 1705 07ac 00C0      		rjmp .L121
 1706               	.LM268:
 1707 07ae 1FBA      		out 63-32,__zero_reg__
 1708               	.LM269:
 1709 07b0 D2BC      		out (65)+1-32,r13
 1710 07b2 C1BC      		out 65-32,r12
 1711               	.LM270:
 1712 07b4 80BD      		out 64-32,r24
 1713               	.LM271:
 1714               	/* #APP */
 1715               	 ;  324 "/Applications/Arduino.app/Contents/Resources/Java/hardware/tools/avr/bin/../lib/gcc/avr/4.
 1716               		/* START EEPROM WRITE CRITICAL SECTION */
 1717 07b6 0FB6      		in	r0, 63		
 1718 07b8 F894      		cli				
 1719 07ba FA9A      		sbi	31, 2	
 1720 07bc F99A      		sbi	31, 1	
 1721 07be 0FBE      		out	63, r0		
 1722               		/* END EEPROM WRITE CRITICAL SECTION */
 1723               	 ;  0 "" 2
 1724               	/* #NOAPP */
 1725               	.LBE290:
 1726               	.LBE295:
 1727               	.LM272:
 1728 07c0 F092 0000 		sts time_m,r15
 1729 07c4 00C0      		rjmp .L119
 1730               	.L120:
 1731               	.LM273:
 1732 07c6 1330      		cpi r17,lo8(3)
 1733 07c8 01F4      		brne .L119
 1734               	.LM274:
 1735 07ca 802F      		mov r24,r16
 1736 07cc 90E0      		ldi r25,lo8(0)
 1737               	.LVL113:
 1738 07ce 0196      		adiw r24,1
 1739 07d0 6CE3      		ldi r22,lo8(60)
 1740 07d2 70E0      		ldi r23,hi8(60)
 1741 07d4 0E94 0000 		call __divmodhi4
 1742 07d8 082F      		mov r16,r24
 1743               	.LM275:
 1744 07da 8E2D      		mov r24,r14
 1745 07dc 6F2D      		mov r22,r15
 1746 07de 402F      		mov r20,r16
 1747 07e0 0E94 0000 		call display_time
 1748               	.LVL114:
 1749               	.LM276:
 1750 07e4 8091 0000 		lds r24,display+7
 1751 07e8 8160      		ori r24,lo8(1)
 1752 07ea 8093 0000 		sts display+7,r24
 1753               	.LM277:
 1754 07ee 8091 0000 		lds r24,display+8
 1755 07f2 8160      		ori r24,lo8(1)
 1756 07f4 8093 0000 		sts display+8,r24
 1757               	.LM278:
 1758 07f8 0093 0000 		sts time_s,r16
 1759               	.L119:
 1760               	.LM279:
 1761 07fc 8091 0000 		lds r24,pressed
 1762 0800 82FF      		sbrs r24,2
 1763 0802 00C0      		rjmp .L129
 1764               	.LBB296:
 1765               	.LBB297:
 1766               	.LM280:
 1767               	/* #APP */
 1768               	 ;  117 "iv.c" 1
 1769 0804 7894      		sei
 1770               	 ;  0 "" 2
 1771               	.LM281:
 1772               	/* #NOAPP */
 1773 0806 1092 0000 		sts (milliseconds)+1,__zero_reg__
 1774 080a 1092 0000 		sts milliseconds,__zero_reg__
 1775               	.L122:
 1776               	.LM282:
 1777 080e 8091 0000 		lds r24,milliseconds
 1778 0812 9091 0000 		lds r25,(milliseconds)+1
 1779 0816 8B34      		cpi r24,75
 1780 0818 9105      		cpc r25,__zero_reg__
 1781 081a 00F0      		brlo .L122
 1782 081c 00C0      		rjmp .L129
 1783               	.L123:
 1784               	/* epilogue start */
 1785               	.LBE297:
 1786               	.LBE296:
 1787               	.LM283:
 1788 081e DF91      		pop r29
 1789 0820 CF91      		pop r28
 1790 0822 1F91      		pop r17
 1791               	.LVL115:
 1792 0824 0F91      		pop r16
 1793               	.LVL116:
 1794 0826 FF90      		pop r15
 1795               	.LVL117:
 1796 0828 EF90      		pop r14
 1797               	.LVL118:
 1798 082a DF90      		pop r13
 1799 082c CF90      		pop r12
 1800 082e BF90      		pop r11
 1801 0830 0895      		ret
 1802               	.LFE28:
 1804               	.global	display_alarm
 1806               	display_alarm:
 1807               	.LFB48:
 1808               	.LM284:
 1809               	.LVL119:
 1810               	/* prologue: function */
 1811               	/* frame size = 0 */
 1812 0832 382F      		mov r19,r24
 1813 0834 262F      		mov r18,r22
 1814               	.LM285:
 1815 0836 1092 0000 		sts display+8,__zero_reg__
 1816               	.LM286:
 1817 083a 1092 0000 		sts display+7,__zero_reg__
 1818               	.LM287:
 1819 083e 1092 0000 		sts display+6,__zero_reg__
 1820               	.LBB298:
 1821               	.LM288:
 1822 0842 862F      		mov r24,r22
 1823               	.LVL120:
 1824 0844 6AE0      		ldi r22,lo8(10)
 1825               	.LVL121:
 1826 0846 0E94 0000 		call __udivmodqi4
 1827 084a E92F      		mov r30,r25
 1828 084c F0E0      		ldi r31,lo8(0)
 1829 084e E050      		subi r30,lo8(-(numbertable))
 1830 0850 F040      		sbci r31,hi8(-(numbertable))
 1831               	/* #APP */
 1832               	 ;  1707 "iv.c" 1
 1833 0852 E491      		lpm r30, Z
 1834               		
 1835               	 ;  0 "" 2
 1836               	.LVL122:
 1837               	/* #NOAPP */
 1838               	.LBE298:
 1839 0854 E093 0000 		sts display+5,r30
 1840               	.LBB299:
 1841               	.LM289:
 1842 0858 822F      		mov r24,r18
 1843 085a 0E94 0000 		call __udivmodqi4
 1844 085e E82F      		mov r30,r24
 1845               	.LVL123:
 1846 0860 F0E0      		ldi r31,lo8(0)
 1847 0862 E050      		subi r30,lo8(-(numbertable))
 1848 0864 F040      		sbci r31,hi8(-(numbertable))
 1849               	/* #APP */
 1850               	 ;  1708 "iv.c" 1
 1851 0866 E491      		lpm r30, Z
 1852               		
 1853               	 ;  0 "" 2
 1854               	.LVL124:
 1855               	/* #NOAPP */
 1856               	.LBE299:
 1857 0868 E093 0000 		sts display+4,r30
 1858               	.LM290:
 1859 086c 1092 0000 		sts display+3,__zero_reg__
 1860               	.LM291:
 1861 0870 8091 0000 		lds r24,region
 1862 0874 8823      		tst r24
 1863 0876 01F0      		breq .+2
 1864 0878 00C0      		rjmp .L132
 1865               	.LM292:
 1866 087a 3C30      		cpi r19,lo8(12)
 1867 087c 00F0      		brlo .L133
 1868               	.LM293:
 1869 087e 8091 0000 		lds r24,display
 1870 0882 8160      		ori r24,lo8(1)
 1871 0884 8093 0000 		sts display,r24
 1872               	.LBB300:
 1873               	.LM294:
 1874 0888 E0E0      		ldi r30,lo8(alphatable+15)
 1875 088a F0E0      		ldi r31,hi8(alphatable+15)
 1876               	.LVL125:
 1877               	/* #APP */
 1878               	 ;  1715 "iv.c" 1
 1879 088c E491      		lpm r30, Z
 1880               		
 1881               	 ;  0 "" 2
 1882               	.LVL126:
 1883               	/* #NOAPP */
 1884               	.LBE300:
 1885 088e E093 0000 		sts display+7,r30
 1886 0892 00C0      		rjmp .L134
 1887               	.LVL127:
 1888               	.L133:
 1889               	.LBB301:
 1890               	.LM295:
 1891 0894 E0E0      		ldi r30,lo8(alphatable)
 1892 0896 F0E0      		ldi r31,hi8(alphatable)
 1893               	.LVL128:
 1894               	/* #APP */
 1895               	 ;  1717 "iv.c" 1
 1896 0898 E491      		lpm r30, Z
 1897               		
 1898               	 ;  0 "" 2
 1899               	.LVL129:
 1900               	/* #NOAPP */
 1901               	.LBE301:
 1902 089a E093 0000 		sts display+7,r30
 1903               	.LM296:
 1904 089e 8091 0000 		lds r24,display
 1905 08a2 8E7F      		andi r24,lo8(-2)
 1906 08a4 8093 0000 		sts display,r24
 1907               	.LVL130:
 1908               	.L134:
 1909               	.LBB302:
 1910               	.LM297:
 1911 08a8 E0E0      		ldi r30,lo8(alphatable+12)
 1912 08aa F0E0      		ldi r31,hi8(alphatable+12)
 1913               	.LVL131:
 1914               	/* #APP */
 1915               	 ;  1720 "iv.c" 1
 1916 08ac E491      		lpm r30, Z
 1917               		
 1918               	 ;  0 "" 2
 1919               	.LVL132:
 1920               	/* #NOAPP */
 1921               	.LBE302:
 1922 08ae E093 0000 		sts display+8,r30
 1923               	.LBB303:
 1924               	.LM298:
 1925 08b2 832F      		mov r24,r19
 1926 08b4 90E0      		ldi r25,lo8(0)
 1927               	.LVL133:
 1928 08b6 0B96      		adiw r24,11
 1929 08b8 6CE0      		ldi r22,lo8(12)
 1930 08ba 70E0      		ldi r23,hi8(12)
 1931 08bc 0E94 0000 		call __divmodhi4
 1932 08c0 9C01      		movw r18,r24
 1933               	.LVL134:
 1934 08c2 2F5F      		subi r18,lo8(-(1))
 1935 08c4 3F4F      		sbci r19,hi8(-(1))
 1936 08c6 C901      		movw r24,r18
 1937 08c8 6AE0      		ldi r22,lo8(10)
 1938 08ca 70E0      		ldi r23,hi8(10)
 1939 08cc 0E94 0000 		call __divmodhi4
 1940 08d0 FC01      		movw r30,r24
 1941               	.LVL135:
 1942 08d2 E050      		subi r30,lo8(-(numbertable))
 1943 08d4 F040      		sbci r31,hi8(-(numbertable))
 1944               	/* #APP */
 1945               	 ;  1722 "iv.c" 1
 1946 08d6 E491      		lpm r30, Z
 1947               		
 1948               	 ;  0 "" 2
 1949               	.LVL136:
 1950               	/* #NOAPP */
 1951               	.LBE303:
 1952 08d8 E093 0000 		sts display+2,r30
 1953               	.LBB304:
 1954               	.LM299:
 1955 08dc C901      		movw r24,r18
 1956 08de 6AE0      		ldi r22,lo8(10)
 1957 08e0 70E0      		ldi r23,hi8(10)
 1958 08e2 0E94 0000 		call __divmodhi4
 1959 08e6 FB01      		movw r30,r22
 1960               	.LVL137:
 1961 08e8 E050      		subi r30,lo8(-(numbertable))
 1962 08ea F040      		sbci r31,hi8(-(numbertable))
 1963               	/* #APP */
 1964               	 ;  1723 "iv.c" 1
 1965 08ec E491      		lpm r30, Z
 1966               		
 1967               	 ;  0 "" 2
 1968               	.LVL138:
 1969               	/* #NOAPP */
 1970 08ee 00C0      		rjmp .L137
 1971               	.LVL139:
 1972               	.L132:
 1973               	.LBE304:
 1974               	.LBB305:
 1975               	.LM300:
 1976 08f0 832F      		mov r24,r19
 1977 08f2 90E0      		ldi r25,lo8(0)
 1978               	.LVL140:
 1979 08f4 4796      		adiw r24,23
 1980 08f6 68E1      		ldi r22,lo8(24)
 1981 08f8 70E0      		ldi r23,hi8(24)
 1982 08fa 0E94 0000 		call __divmodhi4
 1983 08fe 9C01      		movw r18,r24
 1984               	.LVL141:
 1985 0900 2F5F      		subi r18,lo8(-(1))
 1986 0902 3F4F      		sbci r19,hi8(-(1))
 1987 0904 C901      		movw r24,r18
 1988 0906 6AE0      		ldi r22,lo8(10)
 1989 0908 70E0      		ldi r23,hi8(10)
 1990 090a 0E94 0000 		call __divmodhi4
 1991 090e FC01      		movw r30,r24
 1992               	.LVL142:
 1993 0910 E050      		subi r30,lo8(-(numbertable))
 1994 0912 F040      		sbci r31,hi8(-(numbertable))
 1995               	/* #APP */
 1996               	 ;  1725 "iv.c" 1
 1997 0914 E491      		lpm r30, Z
 1998               		
 1999               	 ;  0 "" 2
 2000               	.LVL143:
 2001               	/* #NOAPP */
 2002               	.LBE305:
 2003 0916 E093 0000 		sts display+2,r30
 2004               	.LBB306:
 2005               	.LM301:
 2006 091a C901      		movw r24,r18
 2007 091c 6AE0      		ldi r22,lo8(10)
 2008 091e 70E0      		ldi r23,hi8(10)
 2009 0920 0E94 0000 		call __divmodhi4
 2010 0924 FB01      		movw r30,r22
 2011               	.LVL144:
 2012 0926 E050      		subi r30,lo8(-(numbertable))
 2013 0928 F040      		sbci r31,hi8(-(numbertable))
 2014               	/* #APP */
 2015               	 ;  1726 "iv.c" 1
 2016 092a E491      		lpm r30, Z
 2017               		
 2018               	 ;  0 "" 2
 2019               	.LVL145:
 2020               	/* #NOAPP */
 2021               	.L137:
 2022               	.LBE306:
 2023 092c E093 0000 		sts display+1,r30
 2024 0930 0895      		ret
 2025               	.LFE48:
 2027               	.global	set_alarm
 2029               	set_alarm:
 2030               	.LFB27:
 2031               	.LM302:
 2032 0932 EF92      		push r14
 2033 0934 FF92      		push r15
 2034 0936 0F93      		push r16
 2035 0938 1F93      		push r17
 2036               	/* prologue: function */
 2037               	/* frame size = 0 */
 2038               	.LM303:
 2039 093a 1091 0000 		lds r17,alarm_h
 2040               	.LVL146:
 2041               	.LM304:
 2042 093e 0091 0000 		lds r16,alarm_m
 2043               	.LVL147:
 2044               	.LM305:
 2045 0942 8AE0      		ldi r24,lo8(10)
 2046 0944 8093 0000 		sts timeoutcounter,r24
 2047 0948 FF24      		clr r15
 2048               	.LVL148:
 2049               	.LM306:
 2050 094a 7AE0      		ldi r23,lo8(10)
 2051 094c E72E      		mov r14,r23
 2052               	.L163:
 2053               	.LM307:
 2054 094e 8091 0000 		lds r24,just_pressed
 2055 0952 80FD      		sbrc r24,0
 2056 0954 00C0      		rjmp .L155
 2057               	.LM308:
 2058 0956 8091 0000 		lds r24,just_pressed
 2059 095a 8823      		tst r24
 2060 095c 01F4      		brne .L140
 2061 095e 8091 0000 		lds r24,pressed
 2062 0962 8823      		tst r24
 2063 0964 01F0      		breq .L141
 2064               	.L140:
 2065               	.LM309:
 2066 0966 E092 0000 		sts timeoutcounter,r14
 2067 096a 00C0      		rjmp .L142
 2068               	.L141:
 2069               	.LM310:
 2070 096c 8091 0000 		lds r24,timeoutcounter
 2071 0970 8823      		tst r24
 2072 0972 01F4      		brne .L142
 2073               	.LM311:
 2074 0974 1092 0000 		sts displaymode,__zero_reg__
 2075               	.LM312:
 2076 0978 1093 0000 		sts alarm_h,r17
 2077               	.LM313:
 2078 097c 0093 0000 		sts alarm_m,r16
 2079               	.LM314:
 2080 0980 2091 0000 		lds r18,alarm_h
 2081               	.L143:
 2082               	.LBB307:
 2083               	.LBB308:
 2084               	.LM315:
 2085 0984 F999      		sbic 63-32,1
 2086 0986 00C0      		rjmp .L143
 2087               	.LM316:
 2088 0988 1FBA      		out 63-32,__zero_reg__
 2089               	.LM317:
 2090 098a 87E0      		ldi r24,lo8(7)
 2091 098c 90E0      		ldi r25,hi8(7)
 2092 098e 92BD      		out (65)+1-32,r25
 2093 0990 81BD      		out 65-32,r24
 2094               	.LM318:
 2095 0992 20BD      		out 64-32,r18
 2096               	.LM319:
 2097               	/* #APP */
 2098               	 ;  324 "/Applications/Arduino.app/Contents/Resources/Java/hardware/tools/avr/bin/../lib/gcc/avr/4.
 2099               		/* START EEPROM WRITE CRITICAL SECTION */
 2100 0994 0FB6      		in	r0, 63		
 2101 0996 F894      		cli				
 2102 0998 FA9A      		sbi	31, 2	
 2103 099a F99A      		sbi	31, 1	
 2104 099c 0FBE      		out	63, r0		
 2105               		/* END EEPROM WRITE CRITICAL SECTION */
 2106               	 ;  0 "" 2
 2107               	/* #NOAPP */
 2108               	.LBE308:
 2109               	.LBE307:
 2110               	.LM320:
 2111 099e 2091 0000 		lds r18,alarm_m
 2112               	.L144:
 2113               	.LBB309:
 2114               	.LBB310:
 2115               	.LM321:
 2116 09a2 F999      		sbic 63-32,1
 2117 09a4 00C0      		rjmp .L144
 2118               	.LM322:
 2119 09a6 1FBA      		out 63-32,__zero_reg__
 2120               	.LM323:
 2121 09a8 88E0      		ldi r24,lo8(8)
 2122 09aa 90E0      		ldi r25,hi8(8)
 2123 09ac 92BD      		out (65)+1-32,r25
 2124 09ae 81BD      		out 65-32,r24
 2125               	.LM324:
 2126 09b0 20BD      		out 64-32,r18
 2127               	.LM325:
 2128               	/* #APP */
 2129               	 ;  324 "/Applications/Arduino.app/Contents/Resources/Java/hardware/tools/avr/bin/../lib/gcc/avr/4.
 2130               		/* START EEPROM WRITE CRITICAL SECTION */
 2131 09b2 0FB6      		in	r0, 63		
 2132 09b4 F894      		cli				
 2133 09b6 FA9A      		sbi	31, 2	
 2134 09b8 F99A      		sbi	31, 1	
 2135 09ba 0FBE      		out	63, r0		
 2136               		/* END EEPROM WRITE CRITICAL SECTION */
 2137               	 ;  0 "" 2
 2138               	/* #NOAPP */
 2139 09bc 00C0      		rjmp .L155
 2140               	.L142:
 2141               	.LBE310:
 2142               	.LBE309:
 2143               	.LM326:
 2144 09be 8091 0000 		lds r24,just_pressed
 2145 09c2 81FF      		sbrs r24,1
 2146 09c4 00C0      		rjmp .L145
 2147               	.LM327:
 2148 09c6 1092 0000 		sts just_pressed,__zero_reg__
 2149               	.LM328:
 2150 09ca FF20      		tst r15
 2151 09cc 01F4      		brne .L146
 2152               	.LM329:
 2153 09ce 812F      		mov r24,r17
 2154 09d0 602F      		mov r22,r16
 2155 09d2 0E94 0000 		call display_alarm
 2156               	.LM330:
 2157 09d6 8091 0000 		lds r24,display+1
 2158 09da 8160      		ori r24,lo8(1)
 2159 09dc 8093 0000 		sts display+1,r24
 2160               	.LM331:
 2161 09e0 8091 0000 		lds r24,display+2
 2162 09e4 8160      		ori r24,lo8(1)
 2163 09e6 8093 0000 		sts display+2,r24
 2164 09ea FF24      		clr r15
 2165 09ec F394      		inc r15
 2166 09ee 00C0      		rjmp .L145
 2167               	.L146:
 2168               	.LM332:
 2169 09f0 81E0      		ldi r24,lo8(1)
 2170 09f2 F816      		cp r15,r24
 2171 09f4 01F4      		brne .L147
 2172               	.LM333:
 2173 09f6 812F      		mov r24,r17
 2174 09f8 602F      		mov r22,r16
 2175 09fa 0E94 0000 		call display_alarm
 2176               	.LM334:
 2177 09fe 8091 0000 		lds r24,display+4
 2178 0a02 8160      		ori r24,lo8(1)
 2179 0a04 8093 0000 		sts display+4,r24
 2180               	.LM335:
 2181 0a08 8091 0000 		lds r24,display+5
 2182 0a0c 8160      		ori r24,lo8(1)
 2183 0a0e 8093 0000 		sts display+5,r24
 2184 0a12 62E0      		ldi r22,lo8(2)
 2185 0a14 F62E      		mov r15,r22
 2186 0a16 00C0      		rjmp .L145
 2187               	.L147:
 2188               	.LM336:
 2189 0a18 1093 0000 		sts alarm_h,r17
 2190               	.LM337:
 2191 0a1c 0093 0000 		sts alarm_m,r16
 2192               	.LM338:
 2193 0a20 2091 0000 		lds r18,alarm_h
 2194               	.L148:
 2195               	.LBB311:
 2196               	.LBB312:
 2197               	.LM339:
 2198 0a24 F999      		sbic 63-32,1
 2199 0a26 00C0      		rjmp .L148
 2200               	.LM340:
 2201 0a28 1FBA      		out 63-32,__zero_reg__
 2202               	.LM341:
 2203 0a2a 87E0      		ldi r24,lo8(7)
 2204 0a2c 90E0      		ldi r25,hi8(7)
 2205 0a2e 92BD      		out (65)+1-32,r25
 2206 0a30 81BD      		out 65-32,r24
 2207               	.LM342:
 2208 0a32 20BD      		out 64-32,r18
 2209               	.LM343:
 2210               	/* #APP */
 2211               	 ;  324 "/Applications/Arduino.app/Contents/Resources/Java/hardware/tools/avr/bin/../lib/gcc/avr/4.
 2212               		/* START EEPROM WRITE CRITICAL SECTION */
 2213 0a34 0FB6      		in	r0, 63		
 2214 0a36 F894      		cli				
 2215 0a38 FA9A      		sbi	31, 2	
 2216 0a3a F99A      		sbi	31, 1	
 2217 0a3c 0FBE      		out	63, r0		
 2218               		/* END EEPROM WRITE CRITICAL SECTION */
 2219               	 ;  0 "" 2
 2220               	/* #NOAPP */
 2221               	.LBE312:
 2222               	.LBE311:
 2223               	.LM344:
 2224 0a3e 2091 0000 		lds r18,alarm_m
 2225               	.L149:
 2226               	.LBB313:
 2227               	.LBB314:
 2228               	.LM345:
 2229 0a42 F999      		sbic 63-32,1
 2230 0a44 00C0      		rjmp .L149
 2231               	.LM346:
 2232 0a46 1FBA      		out 63-32,__zero_reg__
 2233               	.LM347:
 2234 0a48 88E0      		ldi r24,lo8(8)
 2235 0a4a 90E0      		ldi r25,hi8(8)
 2236 0a4c 92BD      		out (65)+1-32,r25
 2237 0a4e 81BD      		out 65-32,r24
 2238               	.LM348:
 2239 0a50 20BD      		out 64-32,r18
 2240               	.LM349:
 2241               	/* #APP */
 2242               	 ;  324 "/Applications/Arduino.app/Contents/Resources/Java/hardware/tools/avr/bin/../lib/gcc/avr/4.
 2243               		/* START EEPROM WRITE CRITICAL SECTION */
 2244 0a52 0FB6      		in	r0, 63		
 2245 0a54 F894      		cli				
 2246 0a56 FA9A      		sbi	31, 2	
 2247 0a58 F99A      		sbi	31, 1	
 2248 0a5a 0FBE      		out	63, r0		
 2249               		/* END EEPROM WRITE CRITICAL SECTION */
 2250               	 ;  0 "" 2
 2251               	/* #NOAPP */
 2252               	.LBE314:
 2253               	.LBE313:
 2254               	.LM350:
 2255 0a5c 1092 0000 		sts displaymode,__zero_reg__
 2256 0a60 00C0      		rjmp .L155
 2257               	.L145:
 2258               	.LM351:
 2259 0a62 8091 0000 		lds r24,just_pressed
 2260 0a66 82FD      		sbrc r24,2
 2261 0a68 00C0      		rjmp .L150
 2262 0a6a 8091 0000 		lds r24,pressed
 2263 0a6e 82FF      		sbrs r24,2
 2264 0a70 00C0      		rjmp .L163
 2265               	.L150:
 2266               	.LM352:
 2267 0a72 1092 0000 		sts just_pressed,__zero_reg__
 2268               	.LM353:
 2269 0a76 81E0      		ldi r24,lo8(1)
 2270 0a78 F816      		cp r15,r24
 2271 0a7a 01F4      		brne .L152
 2272               	.LM354:
 2273 0a7c 812F      		mov r24,r17
 2274 0a7e 90E0      		ldi r25,lo8(0)
 2275               	.LVL149:
 2276 0a80 0196      		adiw r24,1
 2277 0a82 68E1      		ldi r22,lo8(24)
 2278 0a84 70E0      		ldi r23,hi8(24)
 2279 0a86 0E94 0000 		call __divmodhi4
 2280 0a8a 182F      		mov r17,r24
 2281               	.LM355:
 2282 0a8c 602F      		mov r22,r16
 2283 0a8e 0E94 0000 		call display_alarm
 2284               	.LVL150:
 2285               	.LM356:
 2286 0a92 8091 0000 		lds r24,display+1
 2287 0a96 8160      		ori r24,lo8(1)
 2288 0a98 8093 0000 		sts display+1,r24
 2289               	.LM357:
 2290 0a9c 8091 0000 		lds r24,display+2
 2291 0aa0 8160      		ori r24,lo8(1)
 2292 0aa2 8093 0000 		sts display+2,r24
 2293 0aa6 00C0      		rjmp .L153
 2294               	.L152:
 2295               	.LM358:
 2296 0aa8 82E0      		ldi r24,lo8(2)
 2297 0aaa F816      		cp r15,r24
 2298 0aac 01F4      		brne .L153
 2299               	.LM359:
 2300 0aae 802F      		mov r24,r16
 2301 0ab0 90E0      		ldi r25,lo8(0)
 2302               	.LVL151:
 2303 0ab2 0196      		adiw r24,1
 2304 0ab4 6CE3      		ldi r22,lo8(60)
 2305 0ab6 70E0      		ldi r23,hi8(60)
 2306 0ab8 0E94 0000 		call __divmodhi4
 2307 0abc 082F      		mov r16,r24
 2308               	.LM360:
 2309 0abe 812F      		mov r24,r17
 2310 0ac0 602F      		mov r22,r16
 2311 0ac2 0E94 0000 		call display_alarm
 2312               	.LVL152:
 2313               	.LM361:
 2314 0ac6 8091 0000 		lds r24,display+4
 2315 0aca 8160      		ori r24,lo8(1)
 2316 0acc 8093 0000 		sts display+4,r24
 2317               	.LM362:
 2318 0ad0 8091 0000 		lds r24,display+5
 2319 0ad4 8160      		ori r24,lo8(1)
 2320 0ad6 8093 0000 		sts display+5,r24
 2321               	.L153:
 2322               	.LM363:
 2323 0ada 8091 0000 		lds r24,pressed
 2324 0ade 82FF      		sbrs r24,2
 2325 0ae0 00C0      		rjmp .L163
 2326               	.LBB315:
 2327               	.LBB316:
 2328               	.LM364:
 2329               	/* #APP */
 2330               	 ;  117 "iv.c" 1
 2331 0ae2 7894      		sei
 2332               	 ;  0 "" 2
 2333               	.LM365:
 2334               	/* #NOAPP */
 2335 0ae4 1092 0000 		sts (milliseconds)+1,__zero_reg__
 2336 0ae8 1092 0000 		sts milliseconds,__zero_reg__
 2337               	.L154:
 2338               	.LM366:
 2339 0aec 8091 0000 		lds r24,milliseconds
 2340 0af0 9091 0000 		lds r25,(milliseconds)+1
 2341 0af4 8B34      		cpi r24,75
 2342 0af6 9105      		cpc r25,__zero_reg__
 2343 0af8 00F0      		brlo .L154
 2344 0afa 00C0      		rjmp .L163
 2345               	.L155:
 2346               	/* epilogue start */
 2347               	.LBE316:
 2348               	.LBE315:
 2349               	.LM367:
 2350 0afc 1F91      		pop r17
 2351               	.LVL153:
 2352 0afe 0F91      		pop r16
 2353               	.LVL154:
 2354 0b00 FF90      		pop r15
 2355               	.LVL155:
 2356 0b02 EF90      		pop r14
 2357 0b04 0895      		ret
 2358               	.LFE27:
 2360               	.global	display_timezone
 2362               	display_timezone:
 2363               	.LFB49:
 2364               	.LM368:
 2365               	.LVL156:
 2366               	/* prologue: function */
 2367               	/* frame size = 0 */
 2368 0b06 482F      		mov r20,r24
 2369 0b08 262F      		mov r18,r22
 2370               	.LBB317:
 2371               	.LM369:
 2372 0b0a E0E0      		ldi r30,lo8(alphatable+2)
 2373 0b0c F0E0      		ldi r31,hi8(alphatable+2)
 2374               	/* #APP */
 2375               	 ;  1732 "iv.c" 1
 2376 0b0e 8491      		lpm r24, Z
 2377               		
 2378               	 ;  0 "" 2
 2379               	.LVL157:
 2380               	/* #NOAPP */
 2381               	.LBE317:
 2382 0b10 8093 0000 		sts display+8,r24
 2383               	.LBB318:
 2384               	.LM370:
 2385 0b14 7196      		adiw r30,17
 2386               	/* #APP */
 2387               	 ;  1733 "iv.c" 1
 2388 0b16 8491      		lpm r24, Z
 2389               		
 2390               	 ;  0 "" 2
 2391               	.LVL158:
 2392               	/* #NOAPP */
 2393               	.LBE318:
 2394 0b18 8093 0000 		sts display+7,r24
 2395               	.LBB319:
 2396               	.LM371:
 2397 0b1c 3196      		adiw r30,1
 2398               	/* #APP */
 2399               	 ;  1734 "iv.c" 1
 2400 0b1e E491      		lpm r30, Z
 2401               		
 2402               	 ;  0 "" 2
 2403               	.LVL159:
 2404               	/* #NOAPP */
 2405               	.LBE319:
 2406 0b20 E093 0000 		sts display+6,r30
 2407               	.LBB320:
 2408               	.LM372:
 2409 0b24 862F      		mov r24,r22
 2410               	.LVL160:
 2411 0b26 6AE0      		ldi r22,lo8(10)
 2412               	.LVL161:
 2413 0b28 0E94 0000 		call __udivmodqi4
 2414 0b2c E92F      		mov r30,r25
 2415               	.LVL162:
 2416 0b2e F0E0      		ldi r31,lo8(0)
 2417 0b30 E050      		subi r30,lo8(-(numbertable))
 2418 0b32 F040      		sbci r31,hi8(-(numbertable))
 2419               	/* #APP */
 2420               	 ;  1735 "iv.c" 1
 2421 0b34 E491      		lpm r30, Z
 2422               		
 2423               	 ;  0 "" 2
 2424               	.LVL163:
 2425               	/* #NOAPP */
 2426               	.LBE320:
 2427 0b36 E093 0000 		sts display+5,r30
 2428               	.LBB321:
 2429               	.LM373:
 2430 0b3a 822F      		mov r24,r18
 2431 0b3c 0E94 0000 		call __udivmodqi4
 2432 0b40 E82F      		mov r30,r24
 2433               	.LVL164:
 2434 0b42 F0E0      		ldi r31,lo8(0)
 2435 0b44 E050      		subi r30,lo8(-(numbertable))
 2436 0b46 F040      		sbci r31,hi8(-(numbertable))
 2437               	/* #APP */
 2438               	 ;  1736 "iv.c" 1
 2439 0b48 E491      		lpm r30, Z
 2440               		
 2441               	 ;  0 "" 2
 2442               	.LVL165:
 2443               	/* #NOAPP */
 2444               	.LBE321:
 2445 0b4a E093 0000 		sts display+4,r30
 2446               	.LM374:
 2447 0b4e 1092 0000 		sts display+3,__zero_reg__
 2448               	.LBB322:
 2449               	.LM375:
 2450 0b52 242F      		mov r18,r20
 2451 0b54 3327      		clr r19
 2452 0b56 27FD      		sbrc r18,7
 2453 0b58 3095      		com r19
 2454               	.LVL166:
 2455 0b5a 37FF      		sbrs r19,7
 2456 0b5c 00C0      		rjmp .L165
 2457 0b5e 3095      		com r19
 2458 0b60 2195      		neg r18
 2459 0b62 3F4F      		sbci r19,lo8(-1)
 2460               	.L165:
 2461 0b64 C901      		movw r24,r18
 2462 0b66 6AE0      		ldi r22,lo8(10)
 2463 0b68 70E0      		ldi r23,hi8(10)
 2464 0b6a 0E94 0000 		call __divmodhi4
 2465 0b6e FC01      		movw r30,r24
 2466               	.LVL167:
 2467 0b70 E050      		subi r30,lo8(-(numbertable))
 2468 0b72 F040      		sbci r31,hi8(-(numbertable))
 2469               	/* #APP */
 2470               	 ;  1738 "iv.c" 1
 2471 0b74 E491      		lpm r30, Z
 2472               		
 2473               	 ;  0 "" 2
 2474               	.LVL168:
 2475               	/* #NOAPP */
 2476               	.LBE322:
 2477 0b76 E093 0000 		sts display+2,r30
 2478               	.LBB323:
 2479               	.LM376:
 2480 0b7a C901      		movw r24,r18
 2481 0b7c 6AE0      		ldi r22,lo8(10)
 2482 0b7e 70E0      		ldi r23,hi8(10)
 2483 0b80 0E94 0000 		call __divmodhi4
 2484 0b84 FB01      		movw r30,r22
 2485               	.LVL169:
 2486 0b86 E050      		subi r30,lo8(-(numbertable))
 2487 0b88 F040      		sbci r31,hi8(-(numbertable))
 2488               	/* #APP */
 2489               	 ;  1739 "iv.c" 1
 2490 0b8a E491      		lpm r30, Z
 2491               		
 2492               	 ;  0 "" 2
 2493               	.LVL170:
 2494               	/* #NOAPP */
 2495               	.LBE323:
 2496 0b8c E093 0000 		sts display+1,r30
 2497               	.LM377:
 2498 0b90 47FD      		sbrc r20,7
 2499 0b92 00C0      		rjmp .L166
 2500               	.LM378:
 2501 0b94 8091 0000 		lds r24,display
 2502 0b98 8D7F      		andi r24,lo8(-3)
 2503 0b9a 00C0      		rjmp .L169
 2504               	.L166:
 2505               	.LM379:
 2506 0b9c 8091 0000 		lds r24,display
 2507 0ba0 8260      		ori r24,lo8(2)
 2508               	.L169:
 2509 0ba2 8093 0000 		sts display,r24
 2510 0ba6 0895      		ret
 2511               	.LFE49:
 2513               	.global	display_str
 2515               	display_str:
 2516               	.LFB50:
 2517               	.LM380:
 2518               	.LVL171:
 2519 0ba8 CF93      		push r28
 2520 0baa DF93      		push r29
 2521               	/* prologue: function */
 2522               	/* frame size = 0 */
 2523               	.LM381:
 2524 0bac 1092 0000 		sts display,__zero_reg__
 2525 0bb0 EC01      		movw r28,r24
 2526               	.LVL172:
 2527 0bb2 A0E0      		ldi r26,lo8(display+1)
 2528 0bb4 B0E0      		ldi r27,hi8(display+1)
 2529               	.LVL173:
 2530               	.L175:
 2531               	.LM382:
 2532 0bb6 E881      		ld r30,Y
 2533               	.LVL174:
 2534 0bb8 EE23      		tst r30
 2535 0bba 01F0      		breq .L176
 2536               	.LM383:
 2537 0bbc 8E2F      		mov r24,r30
 2538 0bbe 8156      		subi r24,lo8(-(-97))
 2539 0bc0 8A31      		cpi r24,lo8(26)
 2540 0bc2 00F4      		brsh .L172
 2541               	.LBB324:
 2542               	.LM384:
 2543 0bc4 F0E0      		ldi r31,lo8(0)
 2544 0bc6 E050      		subi r30,lo8(-(alphatable-97))
 2545 0bc8 F040      		sbci r31,hi8(-(alphatable-97))
 2546               	/* #APP */
 2547               	 ;  1763 "iv.c" 1
 2548 0bca E491      		lpm r30, Z
 2549               		
 2550               	 ;  0 "" 2
 2551               	.LVL175:
 2552               	/* #NOAPP */
 2553 0bcc 00C0      		rjmp .L178
 2554               	.LVL176:
 2555               	.L172:
 2556               	.LBE324:
 2557               	.LM385:
 2558 0bce 8E2F      		mov r24,r30
 2559 0bd0 8053      		subi r24,lo8(-(-48))
 2560 0bd2 8A30      		cpi r24,lo8(10)
 2561 0bd4 00F4      		brsh .L174
 2562               	.LBB325:
 2563               	.LM386:
 2564 0bd6 F0E0      		ldi r31,lo8(0)
 2565 0bd8 E050      		subi r30,lo8(-(numbertable-48))
 2566 0bda F040      		sbci r31,hi8(-(numbertable-48))
 2567               	/* #APP */
 2568               	 ;  1765 "iv.c" 1
 2569 0bdc E491      		lpm r30, Z
 2570               		
 2571               	 ;  0 "" 2
 2572               	.LVL177:
 2573               	/* #NOAPP */
 2574               	.L178:
 2575               	.LBE325:
 2576 0bde EC93      		st X,r30
 2577 0be0 00C0      		rjmp .L173
 2578               	.LVL178:
 2579               	.L174:
 2580               	.LM387:
 2581 0be2 1C92      		st X,__zero_reg__
 2582               	.LVL179:
 2583               	.L173:
 2584 0be4 2196      		adiw r28,1
 2585 0be6 1196      		adiw r26,1
 2586               	.LM388:
 2587 0be8 80E0      		ldi r24,hi8(display+9)
 2588 0bea A030      		cpi r26,lo8(display+9)
 2589 0bec B807      		cpc r27,r24
 2590 0bee 01F4      		brne .L175
 2591               	.L176:
 2592               	/* epilogue start */
 2593               	.LM389:
 2594 0bf0 DF91      		pop r29
 2595 0bf2 CF91      		pop r28
 2596 0bf4 0895      		ret
 2597               	.LFE50:
 2599               		.data
 2600               	.LC0:
 2601 0000 7375 6E64 		.string	"sunday"
 2601      6179 00
 2602               	.LC1:
 2603 0007 6D6F 6E64 		.string	"monday"
 2603      6179 00
 2604               	.LC2:
 2605 000e 7475 6573 		.string	"tuesday"
 2605      6461 7900 
 2606               	.LC3:
 2607 0016 7765 646E 		.string	"wednsday"
 2607      7364 6179 
 2607      00
 2608               	.LC4:
 2609 001f 7468 7572 		.string	"thursday"
 2609      7364 6179 
 2609      00
 2610               	.LC5:
 2611 0028 6672 6964 		.string	"friday"
 2611      6179 00
 2612               	.LC6:
 2613 002f 7361 7475 		.string	"saturday"
 2613      7264 6179 
 2613      00
 2614               	.LC7:
 2615 0038 6A61 6E00 		.string	"jan"
 2616               	.LC8:
 2617 003c 6665 6200 		.string	"feb"
 2618               	.LC9:
 2619 0040 6D61 7263 		.string	"march"
 2619      6800 
 2620               	.LC10:
 2621 0046 6170 7269 		.string	"april"
 2621      6C00 
 2622               	.LC11:
 2623 004c 6D61 7900 		.string	"may"
 2624               	.LC12:
 2625 0050 6A75 6E65 		.string	"june"
 2625      00
 2626               	.LC13:
 2627 0055 6A75 6C79 		.string	"july"
 2627      00
 2628               	.LC14:
 2629 005a 6175 6773 		.string	"augst"
 2629      7400 
 2630               	.LC15:
 2631 0060 7365 7074 		.string	"sept"
 2631      00
 2632               	.LC16:
 2633 0065 6F63 746F 		.string	"octob"
 2633      6200 
 2634               	.LC17:
 2635 006b 6E6F 7665 		.string	"novem"
 2635      6D00 
 2636               	.LC18:
 2637 0071 6465 6365 		.string	"decem"
 2637      6D00 
 2638               		.text
 2639               	.global	display_date
 2641               	display_date:
 2642               	.LFB46:
 2643               	.LM390:
 2644               	.LVL180:
 2645 0bf6 CF93      		push r28
 2646 0bf8 DF93      		push r29
 2647               	/* prologue: function */
 2648               	/* frame size = 0 */
 2649               	.LM391:
 2650 0bfa 8823      		tst r24
 2651 0bfc 01F0      		breq .+2
 2652 0bfe 00C0      		rjmp .L180
 2653               	.LM392:
 2654 0c00 1092 0000 		sts display,__zero_reg__
 2655               	.LM393:
 2656 0c04 82E0      		ldi r24,lo8(2)
 2657               	.LVL181:
 2658 0c06 8093 0000 		sts display+3,r24
 2659 0c0a 8093 0000 		sts display+6,r24
 2660               	.LM394:
 2661 0c0e 8091 0000 		lds r24,region
 2662 0c12 8823      		tst r24
 2663 0c14 01F0      		breq .+2
 2664 0c16 00C0      		rjmp .L181
 2665               	.LBB326:
 2666               	.LM395:
 2667 0c18 8091 0000 		lds r24,date_m
 2668 0c1c 6AE0      		ldi r22,lo8(10)
 2669 0c1e 0E94 0000 		call __divmodqi4
 2670 0c22 E82F      		mov r30,r24
 2671 0c24 FF27      		clr r31
 2672 0c26 E7FD      		sbrc r30,7
 2673 0c28 F095      		com r31
 2674 0c2a E050      		subi r30,lo8(-(numbertable))
 2675 0c2c F040      		sbci r31,hi8(-(numbertable))
 2676               	/* #APP */
 2677               	 ;  1521 "iv.c" 1
 2678 0c2e E491      		lpm r30, Z
 2679               		
 2680               	 ;  0 "" 2
 2681               	.LVL182:
 2682               	/* #NOAPP */
 2683               	.LBE326:
 2684 0c30 E093 0000 		sts display+1,r30
 2685               	.LBB327:
 2686               	.LM396:
 2687 0c34 8091 0000 		lds r24,date_m
 2688 0c38 6AE0      		ldi r22,lo8(10)
 2689 0c3a 0E94 0000 		call __divmodqi4
 2690 0c3e E92F      		mov r30,r25
 2691 0c40 FF27      		clr r31
 2692 0c42 E7FD      		sbrc r30,7
 2693 0c44 F095      		com r31
 2694               	.LVL183:
 2695 0c46 E050      		subi r30,lo8(-(numbertable))
 2696 0c48 F040      		sbci r31,hi8(-(numbertable))
 2697               	/* #APP */
 2698               	 ;  1522 "iv.c" 1
 2699 0c4a E491      		lpm r30, Z
 2700               		
 2701               	 ;  0 "" 2
 2702               	.LVL184:
 2703               	/* #NOAPP */
 2704               	.LBE327:
 2705 0c4c E093 0000 		sts display+2,r30
 2706               	.LBB328:
 2707               	.LM397:
 2708 0c50 8091 0000 		lds r24,date_d
 2709 0c54 6AE0      		ldi r22,lo8(10)
 2710 0c56 0E94 0000 		call __divmodqi4
 2711 0c5a E82F      		mov r30,r24
 2712 0c5c FF27      		clr r31
 2713 0c5e E7FD      		sbrc r30,7
 2714 0c60 F095      		com r31
 2715               	.LVL185:
 2716 0c62 E050      		subi r30,lo8(-(numbertable))
 2717 0c64 F040      		sbci r31,hi8(-(numbertable))
 2718               	/* #APP */
 2719               	 ;  1523 "iv.c" 1
 2720 0c66 E491      		lpm r30, Z
 2721               		
 2722               	 ;  0 "" 2
 2723               	.LVL186:
 2724               	/* #NOAPP */
 2725               	.LBE328:
 2726 0c68 E093 0000 		sts display+4,r30
 2727               	.LBB329:
 2728               	.LM398:
 2729 0c6c 8091 0000 		lds r24,date_d
 2730 0c70 6AE0      		ldi r22,lo8(10)
 2731 0c72 0E94 0000 		call __divmodqi4
 2732 0c76 E92F      		mov r30,r25
 2733 0c78 FF27      		clr r31
 2734 0c7a E7FD      		sbrc r30,7
 2735 0c7c F095      		com r31
 2736               	.LVL187:
 2737 0c7e E050      		subi r30,lo8(-(numbertable))
 2738 0c80 F040      		sbci r31,hi8(-(numbertable))
 2739               	/* #APP */
 2740               	 ;  1524 "iv.c" 1
 2741 0c82 E491      		lpm r30, Z
 2742               		
 2743               	 ;  0 "" 2
 2744               	.LVL188:
 2745               	/* #NOAPP */
 2746 0c84 00C0      		rjmp .L214
 2747               	.LVL189:
 2748               	.L181:
 2749               	.LBE329:
 2750               	.LBB330:
 2751               	.LM399:
 2752 0c86 8091 0000 		lds r24,date_d
 2753 0c8a 6AE0      		ldi r22,lo8(10)
 2754 0c8c 0E94 0000 		call __divmodqi4
 2755 0c90 E82F      		mov r30,r24
 2756 0c92 FF27      		clr r31
 2757 0c94 E7FD      		sbrc r30,7
 2758 0c96 F095      		com r31
 2759 0c98 E050      		subi r30,lo8(-(numbertable))
 2760 0c9a F040      		sbci r31,hi8(-(numbertable))
 2761               	/* #APP */
 2762               	 ;  1527 "iv.c" 1
 2763 0c9c E491      		lpm r30, Z
 2764               		
 2765               	 ;  0 "" 2
 2766               	.LVL190:
 2767               	/* #NOAPP */
 2768               	.LBE330:
 2769 0c9e E093 0000 		sts display+1,r30
 2770               	.LBB331:
 2771               	.LM400:
 2772 0ca2 8091 0000 		lds r24,date_d
 2773 0ca6 6AE0      		ldi r22,lo8(10)
 2774 0ca8 0E94 0000 		call __divmodqi4
 2775 0cac E92F      		mov r30,r25
 2776 0cae FF27      		clr r31
 2777 0cb0 E7FD      		sbrc r30,7
 2778 0cb2 F095      		com r31
 2779               	.LVL191:
 2780 0cb4 E050      		subi r30,lo8(-(numbertable))
 2781 0cb6 F040      		sbci r31,hi8(-(numbertable))
 2782               	/* #APP */
 2783               	 ;  1528 "iv.c" 1
 2784 0cb8 E491      		lpm r30, Z
 2785               		
 2786               	 ;  0 "" 2
 2787               	.LVL192:
 2788               	/* #NOAPP */
 2789               	.LBE331:
 2790 0cba E093 0000 		sts display+2,r30
 2791               	.LBB332:
 2792               	.LM401:
 2793 0cbe 8091 0000 		lds r24,date_m
 2794 0cc2 6AE0      		ldi r22,lo8(10)
 2795 0cc4 0E94 0000 		call __divmodqi4
 2796 0cc8 E82F      		mov r30,r24
 2797 0cca FF27      		clr r31
 2798 0ccc E7FD      		sbrc r30,7
 2799 0cce F095      		com r31
 2800               	.LVL193:
 2801 0cd0 E050      		subi r30,lo8(-(numbertable))
 2802 0cd2 F040      		sbci r31,hi8(-(numbertable))
 2803               	/* #APP */
 2804               	 ;  1529 "iv.c" 1
 2805 0cd4 E491      		lpm r30, Z
 2806               		
 2807               	 ;  0 "" 2
 2808               	.LVL194:
 2809               	/* #NOAPP */
 2810               	.LBE332:
 2811 0cd6 E093 0000 		sts display+4,r30
 2812               	.LBB333:
 2813               	.LM402:
 2814 0cda 8091 0000 		lds r24,date_m
 2815 0cde 6AE0      		ldi r22,lo8(10)
 2816 0ce0 0E94 0000 		call __divmodqi4
 2817 0ce4 E92F      		mov r30,r25
 2818 0ce6 FF27      		clr r31
 2819 0ce8 E7FD      		sbrc r30,7
 2820 0cea F095      		com r31
 2821               	.LVL195:
 2822 0cec E050      		subi r30,lo8(-(numbertable))
 2823 0cee F040      		sbci r31,hi8(-(numbertable))
 2824               	/* #APP */
 2825               	 ;  1530 "iv.c" 1
 2826 0cf0 E491      		lpm r30, Z
 2827               		
 2828               	 ;  0 "" 2
 2829               	.LVL196:
 2830               	/* #NOAPP */
 2831               	.L214:
 2832               	.LBE333:
 2833 0cf2 E093 0000 		sts display+5,r30
 2834               	.LBB334:
 2835               	.LM403:
 2836 0cf6 8091 0000 		lds r24,date_y
 2837 0cfa 6AE0      		ldi r22,lo8(10)
 2838 0cfc 0E94 0000 		call __divmodqi4
 2839 0d00 E82F      		mov r30,r24
 2840 0d02 FF27      		clr r31
 2841 0d04 E7FD      		sbrc r30,7
 2842 0d06 F095      		com r31
 2843               	.LVL197:
 2844 0d08 E050      		subi r30,lo8(-(numbertable))
 2845 0d0a F040      		sbci r31,hi8(-(numbertable))
 2846               	/* #APP */
 2847               	 ;  1533 "iv.c" 1
 2848 0d0c E491      		lpm r30, Z
 2849               		
 2850               	 ;  0 "" 2
 2851               	.LVL198:
 2852               	/* #NOAPP */
 2853               	.LBE334:
 2854 0d0e E093 0000 		sts display+7,r30
 2855               	.LBB335:
 2856               	.LM404:
 2857 0d12 8091 0000 		lds r24,date_y
 2858 0d16 6AE0      		ldi r22,lo8(10)
 2859 0d18 0E94 0000 		call __divmodqi4
 2860 0d1c E92F      		mov r30,r25
 2861 0d1e FF27      		clr r31
 2862 0d20 E7FD      		sbrc r30,7
 2863 0d22 F095      		com r31
 2864               	.LVL199:
 2865 0d24 E050      		subi r30,lo8(-(numbertable))
 2866 0d26 F040      		sbci r31,hi8(-(numbertable))
 2867               	/* #APP */
 2868               	 ;  1534 "iv.c" 1
 2869 0d28 E491      		lpm r30, Z
 2870               		
 2871               	 ;  0 "" 2
 2872               	.LVL200:
 2873               	/* #NOAPP */
 2874 0d2a 00C0      		rjmp .L217
 2875               	.LVL201:
 2876               	.L180:
 2877               	.LBE335:
 2878               	.LM405:
 2879 0d2c 8130      		cpi r24,lo8(1)
 2880 0d2e 01F0      		breq .+2
 2881 0d30 00C0      		rjmp .L211
 2882               	.LBB336:
 2883               	.LM406:
 2884 0d32 8091 0000 		lds r24,date_m
 2885               	.LVL202:
 2886 0d36 C82F      		mov r28,r24
 2887 0d38 DD27      		clr r29
 2888 0d3a C7FD      		sbrc r28,7
 2889 0d3c D095      		com r29
 2890               	.LVL203:
 2891               	.LM407:
 2892 0d3e 8091 0000 		lds r24,date_y
 2893 0d42 E82F      		mov r30,r24
 2894 0d44 FF27      		clr r31
 2895 0d46 E7FD      		sbrc r30,7
 2896 0d48 F095      		com r31
 2897               	.LVL204:
 2898 0d4a E053      		subi r30,lo8(-(2000))
 2899 0d4c F84F      		sbci r31,hi8(-(2000))
 2900               	.LM408:
 2901 0d4e 8091 0000 		lds r24,date_m
 2902 0d52 8330      		cpi r24,lo8(3)
 2903 0d54 04F4      		brge .L184
 2904               	.LM409:
 2905 0d56 2C96      		adiw r28,12
 2906               	.LM410:
 2907 0d58 3197      		sbiw r30,1
 2908               	.L184:
 2909               	.LM411:
 2910 0d5a 2091 0000 		lds r18,date_d
 2911               	.LM412:
 2912 0d5e 1092 0000 		sts display+7,__zero_reg__
 2913 0d62 1092 0000 		sts display+8,__zero_reg__
 2914               	.LM413:
 2915 0d66 3327      		clr r19
 2916 0d68 27FD      		sbrc r18,7
 2917 0d6a 3095      		com r19
 2918 0d6c 2F5F      		subi r18,lo8(-(1))
 2919 0d6e 3F4F      		sbci r19,hi8(-(1))
 2920 0d70 2E0F      		add r18,r30
 2921 0d72 3F1F      		adc r19,r31
 2922 0d74 CE01      		movw r24,r28
 2923 0d76 880F      		lsl r24
 2924 0d78 991F      		rol r25
 2925 0d7a 280F      		add r18,r24
 2926 0d7c 391F      		adc r19,r25
 2927 0d7e CF01      		movw r24,r30
 2928 0d80 9695      		lsr r25
 2929 0d82 8795      		ror r24
 2930 0d84 9695      		lsr r25
 2931 0d86 8795      		ror r24
 2932 0d88 280F      		add r18,r24
 2933 0d8a 391F      		adc r19,r25
 2934 0d8c CF01      		movw r24,r30
 2935 0d8e 60E9      		ldi r22,lo8(400)
 2936 0d90 71E0      		ldi r23,hi8(400)
 2937 0d92 0E94 0000 		call __udivmodhi4
 2938 0d96 260F      		add r18,r22
 2939 0d98 371F      		adc r19,r23
 2940 0d9a CF01      		movw r24,r30
 2941 0d9c 64E6      		ldi r22,lo8(100)
 2942 0d9e 70E0      		ldi r23,hi8(100)
 2943 0da0 0E94 0000 		call __udivmodhi4
 2944 0da4 261B      		sub r18,r22
 2945 0da6 370B      		sbc r19,r23
 2946 0da8 AE01      		movw r20,r28
 2947 0daa 4F5F      		subi r20,lo8(-(1))
 2948 0dac 5F4F      		sbci r21,hi8(-(1))
 2949 0dae CA01      		movw r24,r20
 2950 0db0 880F      		lsl r24
 2951 0db2 991F      		rol r25
 2952 0db4 840F      		add r24,r20
 2953 0db6 951F      		adc r25,r21
 2954 0db8 880F      		lsl r24
 2955 0dba 991F      		rol r25
 2956               	.LVL205:
 2957 0dbc 6AE0      		ldi r22,lo8(10)
 2958 0dbe 70E0      		ldi r23,hi8(10)
 2959 0dc0 0E94 0000 		call __udivmodhi4
 2960 0dc4 C901      		movw r24,r18
 2961 0dc6 860F      		add r24,r22
 2962 0dc8 971F      		adc r25,r23
 2963 0dca 67E0      		ldi r22,lo8(7)
 2964 0dcc 70E0      		ldi r23,hi8(7)
 2965 0dce 0E94 0000 		call __udivmodhi4
 2966 0dd2 8330      		cpi r24,lo8(3)
 2967 0dd4 01F0      		breq .L189
 2968 0dd6 8430      		cpi r24,lo8(4)
 2969 0dd8 00F4      		brsh .L193
 2970 0dda 8130      		cpi r24,lo8(1)
 2971 0ddc 01F0      		breq .L187
 2972 0dde 8230      		cpi r24,lo8(2)
 2973 0de0 00F4      		brsh .L188
 2974 0de2 00C0      		rjmp .L218
 2975               	.L193:
 2976 0de4 8530      		cpi r24,lo8(5)
 2977 0de6 01F0      		breq .L191
 2978 0de8 8530      		cpi r24,lo8(5)
 2979 0dea 00F0      		brlo .L190
 2980 0dec 8630      		cpi r24,lo8(6)
 2981 0dee 01F4      		brne .L185
 2982 0df0 00C0      		rjmp .L219
 2983               	.L218:
 2984               	.LM414:
 2985 0df2 80E0      		ldi r24,lo8(.LC0)
 2986 0df4 90E0      		ldi r25,hi8(.LC0)
 2987 0df6 00C0      		rjmp .L215
 2988               	.L187:
 2989               	.LM415:
 2990 0df8 80E0      		ldi r24,lo8(.LC1)
 2991 0dfa 90E0      		ldi r25,hi8(.LC1)
 2992 0dfc 00C0      		rjmp .L215
 2993               	.L188:
 2994               	.LM416:
 2995 0dfe 80E0      		ldi r24,lo8(.LC2)
 2996 0e00 90E0      		ldi r25,hi8(.LC2)
 2997 0e02 00C0      		rjmp .L215
 2998               	.L189:
 2999               	.LM417:
 3000 0e04 80E0      		ldi r24,lo8(.LC3)
 3001 0e06 90E0      		ldi r25,hi8(.LC3)
 3002 0e08 00C0      		rjmp .L215
 3003               	.L190:
 3004               	.LM418:
 3005 0e0a 80E0      		ldi r24,lo8(.LC4)
 3006 0e0c 90E0      		ldi r25,hi8(.LC4)
 3007 0e0e 00C0      		rjmp .L215
 3008               	.L191:
 3009               	.LM419:
 3010 0e10 80E0      		ldi r24,lo8(.LC5)
 3011 0e12 90E0      		ldi r25,hi8(.LC5)
 3012 0e14 00C0      		rjmp .L215
 3013               	.L219:
 3014               	.LM420:
 3015 0e16 80E0      		ldi r24,lo8(.LC6)
 3016 0e18 90E0      		ldi r25,hi8(.LC6)
 3017               	.L215:
 3018 0e1a 0E94 0000 		call display_str
 3019               	.L185:
 3020               	.LBB337:
 3021               	.LBB338:
 3022               	.LM421:
 3023               	/* #APP */
 3024               	 ;  117 "iv.c" 1
 3025 0e1e 7894      		sei
 3026               	 ;  0 "" 2
 3027               	.LM422:
 3028               	/* #NOAPP */
 3029 0e20 1092 0000 		sts (milliseconds)+1,__zero_reg__
 3030 0e24 1092 0000 		sts milliseconds,__zero_reg__
 3031               	.L194:
 3032               	.LM423:
 3033 0e28 8091 0000 		lds r24,milliseconds
 3034 0e2c 9091 0000 		lds r25,(milliseconds)+1
 3035 0e30 885E      		subi r24,lo8(1000)
 3036 0e32 9340      		sbci r25,hi8(1000)
 3037 0e34 00F0      		brlo .L194
 3038               	.LBE338:
 3039               	.LBE337:
 3040               	.LM424:
 3041 0e36 1092 0000 		sts display+4,__zero_reg__
 3042 0e3a 1092 0000 		sts display+5,__zero_reg__
 3043 0e3e 1092 0000 		sts display+6,__zero_reg__
 3044               	.LM425:
 3045 0e42 8091 0000 		lds r24,date_m
 3046 0e46 8630      		cpi r24,lo8(6)
 3047 0e48 01F0      		breq .L201
 3048 0e4a 8730      		cpi r24,lo8(7)
 3049 0e4c 04F4      		brge .L208
 3050 0e4e 8330      		cpi r24,lo8(3)
 3051 0e50 01F0      		breq .L198
 3052 0e52 8430      		cpi r24,lo8(4)
 3053 0e54 04F4      		brge .L209
 3054 0e56 8130      		cpi r24,lo8(1)
 3055 0e58 01F0      		breq .L196
 3056 0e5a 8230      		cpi r24,lo8(2)
 3057 0e5c 01F4      		brne .L195
 3058 0e5e 00C0      		rjmp .L220
 3059               	.L209:
 3060 0e60 8430      		cpi r24,lo8(4)
 3061 0e62 01F0      		breq .L199
 3062 0e64 8530      		cpi r24,lo8(5)
 3063 0e66 01F4      		brne .L195
 3064 0e68 00C0      		rjmp .L221
 3065               	.L208:
 3066 0e6a 8930      		cpi r24,lo8(9)
 3067 0e6c 01F0      		breq .L204
 3068 0e6e 8A30      		cpi r24,lo8(10)
 3069 0e70 04F4      		brge .L210
 3070 0e72 8730      		cpi r24,lo8(7)
 3071 0e74 01F0      		breq .L202
 3072 0e76 8830      		cpi r24,lo8(8)
 3073 0e78 01F4      		brne .L195
 3074 0e7a 00C0      		rjmp .L222
 3075               	.L210:
 3076 0e7c 8B30      		cpi r24,lo8(11)
 3077 0e7e 01F0      		breq .L206
 3078 0e80 8B30      		cpi r24,lo8(11)
 3079 0e82 04F0      		brlt .L205
 3080 0e84 8C30      		cpi r24,lo8(12)
 3081 0e86 01F4      		brne .L195
 3082 0e88 00C0      		rjmp .L223
 3083               	.L196:
 3084               	.LM426:
 3085 0e8a 80E0      		ldi r24,lo8(.LC7)
 3086 0e8c 90E0      		ldi r25,hi8(.LC7)
 3087 0e8e 00C0      		rjmp .L216
 3088               	.L220:
 3089               	.LM427:
 3090 0e90 80E0      		ldi r24,lo8(.LC8)
 3091 0e92 90E0      		ldi r25,hi8(.LC8)
 3092 0e94 00C0      		rjmp .L216
 3093               	.L198:
 3094               	.LM428:
 3095 0e96 80E0      		ldi r24,lo8(.LC9)
 3096 0e98 90E0      		ldi r25,hi8(.LC9)
 3097 0e9a 00C0      		rjmp .L216
 3098               	.L199:
 3099               	.LM429:
 3100 0e9c 80E0      		ldi r24,lo8(.LC10)
 3101 0e9e 90E0      		ldi r25,hi8(.LC10)
 3102 0ea0 00C0      		rjmp .L216
 3103               	.L221:
 3104               	.LM430:
 3105 0ea2 80E0      		ldi r24,lo8(.LC11)
 3106 0ea4 90E0      		ldi r25,hi8(.LC11)
 3107 0ea6 00C0      		rjmp .L216
 3108               	.L201:
 3109               	.LM431:
 3110 0ea8 80E0      		ldi r24,lo8(.LC12)
 3111 0eaa 90E0      		ldi r25,hi8(.LC12)
 3112 0eac 00C0      		rjmp .L216
 3113               	.L202:
 3114               	.LM432:
 3115 0eae 80E0      		ldi r24,lo8(.LC13)
 3116 0eb0 90E0      		ldi r25,hi8(.LC13)
 3117 0eb2 00C0      		rjmp .L216
 3118               	.L222:
 3119               	.LM433:
 3120 0eb4 80E0      		ldi r24,lo8(.LC14)
 3121 0eb6 90E0      		ldi r25,hi8(.LC14)
 3122 0eb8 00C0      		rjmp .L216
 3123               	.L204:
 3124               	.LM434:
 3125 0eba 80E0      		ldi r24,lo8(.LC15)
 3126 0ebc 90E0      		ldi r25,hi8(.LC15)
 3127 0ebe 00C0      		rjmp .L216
 3128               	.L205:
 3129               	.LM435:
 3130 0ec0 80E0      		ldi r24,lo8(.LC16)
 3131 0ec2 90E0      		ldi r25,hi8(.LC16)
 3132 0ec4 00C0      		rjmp .L216
 3133               	.L206:
 3134               	.LM436:
 3135 0ec6 80E0      		ldi r24,lo8(.LC17)
 3136 0ec8 90E0      		ldi r25,hi8(.LC17)
 3137 0eca 00C0      		rjmp .L216
 3138               	.L223:
 3139               	.LM437:
 3140 0ecc 80E0      		ldi r24,lo8(.LC18)
 3141 0ece 90E0      		ldi r25,hi8(.LC18)
 3142               	.L216:
 3143 0ed0 0E94 0000 		call display_str
 3144               	.L195:
 3145               	.LBB339:
 3146               	.LM438:
 3147 0ed4 8091 0000 		lds r24,date_d
 3148 0ed8 6AE0      		ldi r22,lo8(10)
 3149 0eda 0E94 0000 		call __divmodqi4
 3150 0ede E82F      		mov r30,r24
 3151 0ee0 FF27      		clr r31
 3152 0ee2 E7FD      		sbrc r30,7
 3153 0ee4 F095      		com r31
 3154 0ee6 E050      		subi r30,lo8(-(numbertable))
 3155 0ee8 F040      		sbci r31,hi8(-(numbertable))
 3156               	/* #APP */
 3157               	 ;  1602 "iv.c" 1
 3158 0eea E491      		lpm r30, Z
 3159               		
 3160               	 ;  0 "" 2
 3161               	.LVL206:
 3162               	/* #NOAPP */
 3163               	.LBE339:
 3164 0eec E093 0000 		sts display+7,r30
 3165               	.LBB340:
 3166               	.LM439:
 3167 0ef0 8091 0000 		lds r24,date_d
 3168 0ef4 6AE0      		ldi r22,lo8(10)
 3169 0ef6 0E94 0000 		call __divmodqi4
 3170 0efa E92F      		mov r30,r25
 3171 0efc FF27      		clr r31
 3172 0efe E7FD      		sbrc r30,7
 3173 0f00 F095      		com r31
 3174               	.LVL207:
 3175 0f02 E050      		subi r30,lo8(-(numbertable))
 3176 0f04 F040      		sbci r31,hi8(-(numbertable))
 3177               	/* #APP */
 3178               	 ;  1603 "iv.c" 1
 3179 0f06 E491      		lpm r30, Z
 3180               		
 3181               	 ;  0 "" 2
 3182               	.LVL208:
 3183               	/* #NOAPP */
 3184               	.L217:
 3185               	.LBE340:
 3186 0f08 E093 0000 		sts display+8,r30
 3187               	.LVL209:
 3188               	.L211:
 3189               	/* epilogue start */
 3190               	.LBE336:
 3191               	.LM440:
 3192 0f0c DF91      		pop r29
 3193 0f0e CF91      		pop r28
 3194               	.LVL210:
 3195 0f10 0895      		ret
 3196               	.LFE46:
 3198               		.data
 3199               	.LC19:
 3200 0077 7573 612D 		.string	"usa-12hr"
 3200      3132 6872 
 3200      00
 3201               	.LC20:
 3202 0080 6575 722D 		.string	"eur-24hr"
 3202      3234 6872 
 3202      00
 3203               		.text
 3204               	.global	set_region
 3206               	set_region:
 3207               	.LFB34:
 3208               	.LM441:
 3209 0f12 0F93      		push r16
 3210 0f14 1F93      		push r17
 3211 0f16 CF93      		push r28
 3212 0f18 DF93      		push r29
 3213               	/* prologue: function */
 3214               	/* frame size = 0 */
 3215               	.LM442:
 3216 0f1a 8AE0      		ldi r24,lo8(10)
 3217 0f1c 8093 0000 		sts timeoutcounter,r24
 3218               	.L225:
 3219               	.LBB341:
 3220               	.LBB342:
 3221               	.LM443:
 3222 0f20 F999      		sbic 63-32,1
 3223 0f22 00C0      		rjmp .L225
 3224               	.LM444:
 3225 0f24 8BE0      		ldi r24,lo8(11)
 3226 0f26 90E0      		ldi r25,hi8(11)
 3227 0f28 92BD      		out (65)+1-32,r25
 3228 0f2a 81BD      		out 65-32,r24
 3229               	.LM445:
 3230               	/* #APP */
 3231               	 ;  208 "/Applications/Arduino.app/Contents/Resources/Java/hardware/tools/avr/bin/../lib/gcc/avr/4.
 3232               		/* START EEPROM READ CRITICAL SECTION */ 
 3233 0f2c F89A      		sbi 31, 0 
 3234 0f2e 80B5      		in r24, 32 
 3235               		/* END EEPROM READ CRITICAL SECTION */ 
 3236               		
 3237               	 ;  0 "" 2
 3238               	.LVL211:
 3239               	/* #NOAPP */
 3240               	.LBE342:
 3241               	.LBE341:
 3242               	.LM446:
 3243 0f30 8093 0000 		sts region,r24
 3244 0f34 10E0      		ldi r17,lo8(0)
 3245               	.LVL212:
 3246               	.LM447:
 3247 0f36 0AE0      		ldi r16,lo8(10)
 3248               	.LBB343:
 3249               	.LBB344:
 3250               	.LM448:
 3251 0f38 CBE0      		ldi r28,lo8(11)
 3252 0f3a D0E0      		ldi r29,hi8(11)
 3253 0f3c 00C0      		rjmp .L244
 3254               	.LVL213:
 3255               	.L234:
 3256               	.LBE344:
 3257               	.LBE343:
 3258               	.LM449:
 3259 0f3e 10E0      		ldi r17,lo8(0)
 3260               	.LVL214:
 3261               	.L244:
 3262               	.LM450:
 3263 0f40 8091 0000 		lds r24,just_pressed
 3264               	.LVL215:
 3265 0f44 8823      		tst r24
 3266 0f46 01F4      		brne .L227
 3267 0f48 8091 0000 		lds r24,pressed
 3268 0f4c 8823      		tst r24
 3269 0f4e 01F0      		breq .L228
 3270               	.L227:
 3271               	.LM451:
 3272 0f50 0093 0000 		sts timeoutcounter,r16
 3273 0f54 00C0      		rjmp .L229
 3274               	.L228:
 3275               	.LM452:
 3276 0f56 8091 0000 		lds r24,timeoutcounter
 3277 0f5a 8823      		tst r24
 3278 0f5c 01F0      		breq .L232
 3279               	.L229:
 3280               	.LM453:
 3281 0f5e 8091 0000 		lds r24,just_pressed
 3282 0f62 80FD      		sbrc r24,0
 3283 0f64 00C0      		rjmp .L239
 3284               	.LM454:
 3285 0f66 8091 0000 		lds r24,just_pressed
 3286 0f6a 81FF      		sbrs r24,1
 3287 0f6c 00C0      		rjmp .L231
 3288               	.LM455:
 3289 0f6e 1092 0000 		sts just_pressed,__zero_reg__
 3290               	.LM456:
 3291 0f72 1123      		tst r17
 3292 0f74 01F4      		brne .L232
 3293               	.LM457:
 3294 0f76 8091 0000 		lds r24,region
 3295 0f7a 8823      		tst r24
 3296 0f7c 01F4      		brne .L233
 3297               	.LM458:
 3298 0f7e 80E0      		ldi r24,lo8(.LC19)
 3299 0f80 90E0      		ldi r25,hi8(.LC19)
 3300 0f82 00C0      		rjmp .L245
 3301               	.L233:
 3302               	.LM459:
 3303 0f84 80E0      		ldi r24,lo8(.LC20)
 3304 0f86 90E0      		ldi r25,hi8(.LC20)
 3305               	.L245:
 3306 0f88 0E94 0000 		call display_str
 3307 0f8c 11E0      		ldi r17,lo8(1)
 3308 0f8e 00C0      		rjmp .L231
 3309               	.L232:
 3310               	.LM460:
 3311 0f90 1092 0000 		sts displaymode,__zero_reg__
 3312 0f94 00C0      		rjmp .L239
 3313               	.L231:
 3314               	.LM461:
 3315 0f96 8091 0000 		lds r24,just_pressed
 3316 0f9a 82FF      		sbrs r24,2
 3317 0f9c 00C0      		rjmp .L244
 3318               	.LM462:
 3319 0f9e 1092 0000 		sts just_pressed,__zero_reg__
 3320               	.LM463:
 3321 0fa2 1130      		cpi r17,lo8(1)
 3322 0fa4 01F4      		brne .L234
 3323               	.LM464:
 3324 0fa6 90E0      		ldi r25,lo8(0)
 3325 0fa8 8091 0000 		lds r24,region
 3326 0fac 8823      		tst r24
 3327 0fae 01F4      		brne .L235
 3328 0fb0 91E0      		ldi r25,lo8(1)
 3329               	.L235:
 3330 0fb2 9093 0000 		sts region,r25
 3331               	.LM465:
 3332 0fb6 9923      		tst r25
 3333 0fb8 01F4      		brne .L236
 3334               	.LM466:
 3335 0fba 80E0      		ldi r24,lo8(.LC19)
 3336 0fbc 90E0      		ldi r25,hi8(.LC19)
 3337 0fbe 00C0      		rjmp .L246
 3338               	.L236:
 3339               	.LM467:
 3340 0fc0 80E0      		ldi r24,lo8(.LC20)
 3341 0fc2 90E0      		ldi r25,hi8(.LC20)
 3342               	.L246:
 3343 0fc4 0E94 0000 		call display_str
 3344               	.LM468:
 3345 0fc8 8091 0000 		lds r24,region
 3346               	.L238:
 3347               	.LBB346:
 3348               	.LBB345:
 3349               	.LM469:
 3350 0fcc F999      		sbic 63-32,1
 3351 0fce 00C0      		rjmp .L238
 3352               	.LM470:
 3353 0fd0 1FBA      		out 63-32,__zero_reg__
 3354               	.LM471:
 3355 0fd2 D2BD      		out (65)+1-32,r29
 3356 0fd4 C1BD      		out 65-32,r28
 3357               	.LM472:
 3358 0fd6 80BD      		out 64-32,r24
 3359               	.LM473:
 3360               	/* #APP */
 3361               	 ;  324 "/Applications/Arduino.app/Contents/Resources/Java/hardware/tools/avr/bin/../lib/gcc/avr/4.
 3362               		/* START EEPROM WRITE CRITICAL SECTION */
 3363 0fd8 0FB6      		in	r0, 63		
 3364 0fda F894      		cli				
 3365 0fdc FA9A      		sbi	31, 2	
 3366 0fde F99A      		sbi	31, 1	
 3367 0fe0 0FBE      		out	63, r0		
 3368               		/* END EEPROM WRITE CRITICAL SECTION */
 3369               	 ;  0 "" 2
 3370               	/* #NOAPP */
 3371 0fe2 00C0      		rjmp .L244
 3372               	.L239:
 3373               	/* epilogue start */
 3374               	.LBE345:
 3375               	.LBE346:
 3376               	.LM474:
 3377 0fe4 DF91      		pop r29
 3378 0fe6 CF91      		pop r28
 3379 0fe8 1F91      		pop r17
 3380               	.LVL216:
 3381 0fea 0F91      		pop r16
 3382 0fec 0895      		ret
 3383               	.LFE34:
 3385               		.data
 3386               	.LC21:
 3387 0089 766F 6C20 		.string	"vol high"
 3387      6869 6768 
 3387      00
 3388               	.LC22:
 3389 0092 766F 6C20 		.string	"vol  low"
 3389      206C 6F77 
 3389      00
 3390               		.text
 3391               	.global	set_volume
 3393               	set_volume:
 3394               	.LFB33:
 3395               	.LM475:
 3396 0fee EF92      		push r14
 3397 0ff0 FF92      		push r15
 3398 0ff2 0F93      		push r16
 3399 0ff4 1F93      		push r17
 3400 0ff6 CF93      		push r28
 3401 0ff8 DF93      		push r29
 3402               	/* prologue: function */
 3403               	/* frame size = 0 */
 3404               	.LM476:
 3405 0ffa 8AE0      		ldi r24,lo8(10)
 3406 0ffc 8093 0000 		sts timeoutcounter,r24
 3407               	.L248:
 3408               	.LBB347:
 3409               	.LBB348:
 3410               	.LM477:
 3411 1000 F999      		sbic 63-32,1
 3412 1002 00C0      		rjmp .L248
 3413               	.LM478:
 3414 1004 8AE0      		ldi r24,lo8(10)
 3415 1006 90E0      		ldi r25,hi8(10)
 3416 1008 92BD      		out (65)+1-32,r25
 3417 100a 81BD      		out 65-32,r24
 3418               	.LM479:
 3419               	/* #APP */
 3420               	 ;  208 "/Applications/Arduino.app/Contents/Resources/Java/hardware/tools/avr/bin/../lib/gcc/avr/4.
 3421               		/* START EEPROM READ CRITICAL SECTION */ 
 3422 100c F89A      		sbi 31, 0 
 3423 100e F0B4      		in r15, 32 
 3424               		/* END EEPROM READ CRITICAL SECTION */ 
 3425               		
 3426               	 ;  0 "" 2
 3427               	.LVL217:
 3428               	/* #NOAPP */
 3429 1010 00E0      		ldi r16,lo8(0)
 3430               	.LVL218:
 3431               	.LBE348:
 3432               	.LBE347:
 3433               	.LM480:
 3434 1012 1AE0      		ldi r17,lo8(10)
 3435 1014 E12E      		mov r14,r17
 3436               	.LBB350:
 3437               	.LBB351:
 3438               	.LM481:
 3439 1016 CAE0      		ldi r28,lo8(10)
 3440 1018 D0E0      		ldi r29,hi8(10)
 3441 101a 00C0      		rjmp .L268
 3442               	.L258:
 3443               	.LBE351:
 3444               	.LBE350:
 3445               	.LBB353:
 3446               	.LBB349:
 3447               	.LM482:
 3448 101c 00E0      		ldi r16,lo8(0)
 3449               	.L268:
 3450               	.LBE349:
 3451               	.LBE353:
 3452               	.LM483:
 3453 101e 8091 0000 		lds r24,just_pressed
 3454 1022 8823      		tst r24
 3455 1024 01F4      		brne .L250
 3456 1026 8091 0000 		lds r24,pressed
 3457 102a 8823      		tst r24
 3458 102c 01F0      		breq .L251
 3459               	.L250:
 3460               	.LM484:
 3461 102e E092 0000 		sts timeoutcounter,r14
 3462 1032 00C0      		rjmp .L252
 3463               	.L251:
 3464               	.LM485:
 3465 1034 8091 0000 		lds r24,timeoutcounter
 3466 1038 8823      		tst r24
 3467 103a 01F0      		breq .L255
 3468               	.L252:
 3469               	.LM486:
 3470 103c 8091 0000 		lds r24,just_pressed
 3471 1040 80FD      		sbrc r24,0
 3472 1042 00C0      		rjmp .L263
 3473               	.LM487:
 3474 1044 8091 0000 		lds r24,just_pressed
 3475 1048 81FF      		sbrs r24,1
 3476 104a 00C0      		rjmp .L254
 3477               	.LM488:
 3478 104c 1092 0000 		sts just_pressed,__zero_reg__
 3479               	.LM489:
 3480 1050 0023      		tst r16
 3481 1052 01F4      		brne .L255
 3482               	.LM490:
 3483 1054 FF20      		tst r15
 3484 1056 01F0      		breq .L256
 3485               	.LM491:
 3486 1058 80E0      		ldi r24,lo8(.LC21)
 3487 105a 90E0      		ldi r25,hi8(.LC21)
 3488 105c 0E94 0000 		call display_str
 3489               	.LM492:
 3490 1060 8091 0000 		lds r24,display+5
 3491 1064 8160      		ori r24,lo8(1)
 3492 1066 8093 0000 		sts display+5,r24
 3493 106a 00C0      		rjmp .L257
 3494               	.L256:
 3495               	.LM493:
 3496 106c 80E0      		ldi r24,lo8(.LC22)
 3497 106e 90E0      		ldi r25,hi8(.LC22)
 3498 1070 0E94 0000 		call display_str
 3499               	.L257:
 3500               	.LM494:
 3501 1074 8091 0000 		lds r24,display+6
 3502 1078 8160      		ori r24,lo8(1)
 3503 107a 8093 0000 		sts display+6,r24
 3504               	.LM495:
 3505 107e 8091 0000 		lds r24,display+7
 3506 1082 8160      		ori r24,lo8(1)
 3507 1084 8093 0000 		sts display+7,r24
 3508               	.LM496:
 3509 1088 8091 0000 		lds r24,display+8
 3510 108c 8160      		ori r24,lo8(1)
 3511 108e 8093 0000 		sts display+8,r24
 3512 1092 01E0      		ldi r16,lo8(1)
 3513 1094 00C0      		rjmp .L254
 3514               	.L255:
 3515               	.LM497:
 3516 1096 1092 0000 		sts displaymode,__zero_reg__
 3517 109a 00C0      		rjmp .L263
 3518               	.L254:
 3519               	.LM498:
 3520 109c 8091 0000 		lds r24,just_pressed
 3521 10a0 82FF      		sbrs r24,2
 3522 10a2 00C0      		rjmp .L268
 3523               	.LM499:
 3524 10a4 1092 0000 		sts just_pressed,__zero_reg__
 3525               	.LM500:
 3526 10a8 0130      		cpi r16,lo8(1)
 3527 10aa 01F0      		breq .+2
 3528 10ac 00C0      		rjmp .L258
 3529               	.LM501:
 3530 10ae 10E0      		ldi r17,lo8(0)
 3531 10b0 FF20      		tst r15
 3532 10b2 01F4      		brne .L259
 3533 10b4 11E0      		ldi r17,lo8(1)
 3534               	.L259:
 3535 10b6 F12E      		mov r15,r17
 3536               	.LM502:
 3537 10b8 1123      		tst r17
 3538 10ba 01F0      		breq .L260
 3539               	.LM503:
 3540 10bc 80E0      		ldi r24,lo8(.LC21)
 3541 10be 90E0      		ldi r25,hi8(.LC21)
 3542 10c0 0E94 0000 		call display_str
 3543               	.LM504:
 3544 10c4 8091 0000 		lds r24,display+5
 3545 10c8 8160      		ori r24,lo8(1)
 3546 10ca 8093 0000 		sts display+5,r24
 3547 10ce 00C0      		rjmp .L261
 3548               	.L260:
 3549               	.LM505:
 3550 10d0 80E0      		ldi r24,lo8(.LC22)
 3551 10d2 90E0      		ldi r25,hi8(.LC22)
 3552 10d4 0E94 0000 		call display_str
 3553               	.L261:
 3554               	.LM506:
 3555 10d8 8091 0000 		lds r24,display+6
 3556 10dc 8160      		ori r24,lo8(1)
 3557 10de 8093 0000 		sts display+6,r24
 3558               	.LM507:
 3559 10e2 8091 0000 		lds r24,display+7
 3560 10e6 8160      		ori r24,lo8(1)
 3561 10e8 8093 0000 		sts display+7,r24
 3562               	.LM508:
 3563 10ec 8091 0000 		lds r24,display+8
 3564 10f0 8160      		ori r24,lo8(1)
 3565 10f2 8093 0000 		sts display+8,r24
 3566               	.L262:
 3567               	.LBB354:
 3568               	.LBB352:
 3569               	.LM509:
 3570 10f6 F999      		sbic 63-32,1
 3571 10f8 00C0      		rjmp .L262
 3572               	.LM510:
 3573 10fa 1FBA      		out 63-32,__zero_reg__
 3574               	.LM511:
 3575 10fc D2BD      		out (65)+1-32,r29
 3576 10fe C1BD      		out 65-32,r28
 3577               	.LM512:
 3578 1100 10BD      		out 64-32,r17
 3579               	.LM513:
 3580               	/* #APP */
 3581               	 ;  324 "/Applications/Arduino.app/Contents/Resources/Java/hardware/tools/avr/bin/../lib/gcc/avr/4.
 3582               		/* START EEPROM WRITE CRITICAL SECTION */
 3583 1102 0FB6      		in	r0, 63		
 3584 1104 F894      		cli				
 3585 1106 FA9A      		sbi	31, 2	
 3586 1108 F99A      		sbi	31, 1	
 3587 110a 0FBE      		out	63, r0		
 3588               		/* END EEPROM WRITE CRITICAL SECTION */
 3589               	 ;  0 "" 2
 3590               	/* #NOAPP */
 3591               	.LBE352:
 3592               	.LBE354:
 3593               	.LM514:
 3594 110c 0E94 0000 		call speaker_init
 3595               	.LM515:
 3596 1110 80EA      		ldi r24,lo8(4000)
 3597 1112 9FE0      		ldi r25,hi8(4000)
 3598 1114 61E0      		ldi r22,lo8(1)
 3599 1116 0E94 0000 		call beep
 3600 111a 00C0      		rjmp .L268
 3601               	.L263:
 3602               	/* epilogue start */
 3603               	.LM516:
 3604 111c DF91      		pop r29
 3605 111e CF91      		pop r28
 3606 1120 1F91      		pop r17
 3607 1122 0F91      		pop r16
 3608               	.LVL219:
 3609 1124 FF90      		pop r15
 3610               	.LVL220:
 3611 1126 EF90      		pop r14
 3612 1128 0895      		ret
 3613               	.LFE33:
 3615               		.data
 3616               	.LC23:
 3617 009b 6272 6974 		.string	"brite "
 3617      6520 00
 3618               		.text
 3619               	.global	set_brightness
 3621               	set_brightness:
 3622               	.LFB31:
 3623               	.LM517:
 3624 112a FF92      		push r15
 3625 112c 0F93      		push r16
 3626 112e 1F93      		push r17
 3627               	/* prologue: function */
 3628               	/* frame size = 0 */
 3629               	.LM518:
 3630 1130 8AE0      		ldi r24,lo8(10)
 3631 1132 8093 0000 		sts timeoutcounter,r24
 3632 1136 10E0      		ldi r17,lo8(0)
 3633               	.LVL221:
 3634               	.LM519:
 3635 1138 0AE0      		ldi r16,lo8(10)
 3636 113a F02E      		mov r15,r16
 3637               	.LM520:
 3638 113c 0EE1      		ldi r16,lo8(30)
 3639 113e 00C0      		rjmp .L288
 3640               	.L280:
 3641               	.LM521:
 3642 1140 10E0      		ldi r17,lo8(0)
 3643               	.L288:
 3644               	.LM522:
 3645 1142 8091 0000 		lds r24,just_pressed
 3646 1146 8823      		tst r24
 3647 1148 01F4      		brne .L271
 3648 114a 8091 0000 		lds r24,pressed
 3649 114e 8823      		tst r24
 3650 1150 01F0      		breq .L272
 3651               	.L271:
 3652               	.LM523:
 3653 1152 F092 0000 		sts timeoutcounter,r15
 3654 1156 00C0      		rjmp .L273
 3655               	.L272:
 3656               	.LM524:
 3657 1158 8091 0000 		lds r24,timeoutcounter
 3658 115c 8823      		tst r24
 3659 115e 01F4      		brne .L273
 3660               	.LM525:
 3661 1160 1092 0000 		sts displaymode,__zero_reg__
 3662               	.LM526:
 3663 1164 2091 0000 		lds r18,brightness_level
 3664               	.L274:
 3665               	.LBB355:
 3666               	.LBB356:
 3667               	.LM527:
 3668 1168 F999      		sbic 63-32,1
 3669 116a 00C0      		rjmp .L274
 3670 116c 00C0      		rjmp .L289
 3671               	.L273:
 3672               	.LBE356:
 3673               	.LBE355:
 3674               	.LM528:
 3675 116e 8091 0000 		lds r24,just_pressed
 3676 1172 80FD      		sbrc r24,0
 3677 1174 00C0      		rjmp .L283
 3678               	.LM529:
 3679 1176 8091 0000 		lds r24,just_pressed
 3680 117a 81FF      		sbrs r24,1
 3681 117c 00C0      		rjmp .L276
 3682               	.LM530:
 3683 117e 1092 0000 		sts just_pressed,__zero_reg__
 3684               	.LM531:
 3685 1182 1123      		tst r17
 3686 1184 01F4      		brne .L277
 3687               	.LM532:
 3688 1186 80E0      		ldi r24,lo8(.LC23)
 3689 1188 90E0      		ldi r25,hi8(.LC23)
 3690 118a 0E94 0000 		call display_str
 3691               	.LM533:
 3692 118e 8091 0000 		lds r24,brightness_level
 3693 1192 90E0      		ldi r25,lo8(0)
 3694 1194 0E94 0000 		call display_brightness
 3695 1198 11E0      		ldi r17,lo8(1)
 3696 119a 00C0      		rjmp .L276
 3697               	.L277:
 3698               	.LM534:
 3699 119c 1092 0000 		sts displaymode,__zero_reg__
 3700               	.LM535:
 3701 11a0 2091 0000 		lds r18,brightness_level
 3702               	.L278:
 3703               	.LBB357:
 3704               	.LBB358:
 3705               	.LM536:
 3706 11a4 F999      		sbic 63-32,1
 3707 11a6 00C0      		rjmp .L278
 3708               	.L289:
 3709               	.LM537:
 3710 11a8 1FBA      		out 63-32,__zero_reg__
 3711               	.LM538:
 3712 11aa 89E0      		ldi r24,lo8(9)
 3713 11ac 90E0      		ldi r25,hi8(9)
 3714 11ae 92BD      		out (65)+1-32,r25
 3715 11b0 81BD      		out 65-32,r24
 3716               	.LM539:
 3717 11b2 20BD      		out 64-32,r18
 3718               	.LM540:
 3719               	/* #APP */
 3720               	 ;  324 "/Applications/Arduino.app/Contents/Resources/Java/hardware/tools/avr/bin/../lib/gcc/avr/4.
 3721               		/* START EEPROM WRITE CRITICAL SECTION */
 3722 11b4 0FB6      		in	r0, 63		
 3723 11b6 F894      		cli				
 3724 11b8 FA9A      		sbi	31, 2	
 3725 11ba F99A      		sbi	31, 1	
 3726 11bc 0FBE      		out	63, r0		
 3727               		/* END EEPROM WRITE CRITICAL SECTION */
 3728               	 ;  0 "" 2
 3729               	/* #NOAPP */
 3730 11be 00C0      		rjmp .L283
 3731               	.L276:
 3732               	.LBE358:
 3733               	.LBE357:
 3734               	.LM541:
 3735 11c0 8091 0000 		lds r24,just_pressed
 3736 11c4 82FD      		sbrc r24,2
 3737 11c6 00C0      		rjmp .L279
 3738 11c8 8091 0000 		lds r24,pressed
 3739 11cc 82FF      		sbrs r24,2
 3740 11ce 00C0      		rjmp .L288
 3741               	.L279:
 3742               	.LM542:
 3743 11d0 1092 0000 		sts just_pressed,__zero_reg__
 3744               	.LM543:
 3745 11d4 1130      		cpi r17,lo8(1)
 3746 11d6 01F0      		breq .+2
 3747 11d8 00C0      		rjmp .L280
 3748               	.LM544:
 3749 11da 8091 0000 		lds r24,brightness_level
 3750 11de 8823      		tst r24
 3751 11e0 01F4      		brne .L281
 3752               	.LM545:
 3753 11e2 0093 0000 		sts brightness_level,r16
 3754 11e6 00C0      		rjmp .L282
 3755               	.L281:
 3756               	.LM546:
 3757 11e8 8091 0000 		lds r24,brightness_level
 3758 11ec 8B5F      		subi r24,lo8(-(5))
 3759 11ee 8093 0000 		sts brightness_level,r24
 3760               	.LM547:
 3761 11f2 8091 0000 		lds r24,brightness_level
 3762 11f6 8B35      		cpi r24,lo8(91)
 3763 11f8 00F0      		brlo .L282
 3764               	.LM548:
 3765 11fa 1092 0000 		sts brightness_level,__zero_reg__
 3766               	.L282:
 3767               	.LM549:
 3768 11fe 8091 0000 		lds r24,brightness_level
 3769 1202 90E0      		ldi r25,lo8(0)
 3770 1204 0E94 0000 		call display_brightness
 3771 1208 00C0      		rjmp .L288
 3772               	.L283:
 3773               	/* epilogue start */
 3774               	.LM550:
 3775 120a 1F91      		pop r17
 3776               	.LVL222:
 3777 120c 0F91      		pop r16
 3778 120e FF90      		pop r15
 3779 1210 0895      		ret
 3780               	.LFE31:
 3782               	.global	vfd_init
 3784               	vfd_init:
 3785               	.LFB51:
 3786               	.LM551:
 3787               	/* prologue: function */
 3788               	/* frame size = 0 */
 3789               	.LM552:
 3790 1212 81E5      		ldi r24,lo8(81)
 3791 1214 8CBD      		out 76-32,r24
 3792               	/* epilogue start */
 3793               	.LM553:
 3794 1216 0895      		ret
 3795               	.LFE51:
 3797               	.global	vfd_send
 3799               	vfd_send:
 3800               	.LFB53:
 3801               	.LM554:
 3802               	.LVL223:
 3803               	/* prologue: function */
 3804               	/* frame size = 0 */
 3805 1218 9B01      		movw r18,r22
 3806 121a AC01      		movw r20,r24
 3807               	.LM555:
 3808               	/* #APP */
 3809               	 ;  1807 "iv.c" 1
 3810 121c F894      		cli
 3811               	 ;  0 "" 2
 3812               	.LM556:
 3813               	/* #NOAPP */
 3814 121e CA01      		movw r24,r20
 3815 1220 AA27      		clr r26
 3816 1222 BB27      		clr r27
 3817               	.LBB359:
 3818               	.LBB360:
 3819               	.LM557:
 3820 1224 8EBD      		out 78-32,r24
 3821               	.LVL224:
 3822               	.L293:
 3823               	.LM558:
 3824 1226 0DB4      		in __tmp_reg__,77-32
 3825 1228 07FE      		sbrs __tmp_reg__,7
 3826 122a 00C0      		rjmp .L293
 3827               	.LBE360:
 3828               	.LBE359:
 3829               	.LM559:
 3830 122c BB27      		clr r27
 3831 122e A52F      		mov r26,r21
 3832 1230 942F      		mov r25,r20
 3833 1232 832F      		mov r24,r19
 3834               	.LBB361:
 3835               	.LBB362:
 3836               	.LM560:
 3837 1234 8EBD      		out 78-32,r24
 3838               	.L294:
 3839               	.LM561:
 3840 1236 0DB4      		in __tmp_reg__,77-32
 3841 1238 07FE      		sbrs __tmp_reg__,7
 3842 123a 00C0      		rjmp .L294
 3843               	.LBE362:
 3844               	.LBE361:
 3845               	.LBB363:
 3846               	.LBB364:
 3847               	.LM562:
 3848 123c 2EBD      		out 78-32,r18
 3849               	.L295:
 3850               	.LM563:
 3851 123e 0DB4      		in __tmp_reg__,77-32
 3852 1240 07FE      		sbrs __tmp_reg__,7
 3853 1242 00C0      		rjmp .L295
 3854               	.LBE364:
 3855               	.LBE363:
 3856               	.LM564:
 3857 1244 409A      		sbi 40-32,0
 3858               	.LM565:
 3859 1246 4098      		cbi 40-32,0
 3860               	.LM566:
 3861               	/* #APP */
 3862               	 ;  1815 "iv.c" 1
 3863 1248 7894      		sei
 3864               	 ;  0 "" 2
 3865               	/* epilogue start */
 3866               	.LM567:
 3867               	/* #NOAPP */
 3868 124a 0895      		ret
 3869               	.LFE53:
 3871               	.global	setdisplay
 3873               	setdisplay:
 3874               	.LFB52:
 3875               	.LM568:
 3876               	.LVL225:
 3877 124c AF92      		push r10
 3878 124e BF92      		push r11
 3879 1250 CF92      		push r12
 3880 1252 DF92      		push r13
 3881 1254 EF92      		push r14
 3882 1256 FF92      		push r15
 3883 1258 0F93      		push r16
 3884 125a 1F93      		push r17
 3885               	/* prologue: function */
 3886               	/* frame size = 0 */
 3887               	.LBB365:
 3888               	.LM569:
 3889 125c E82F      		mov r30,r24
 3890 125e F0E0      		ldi r31,lo8(0)
 3891               	.LVL226:
 3892 1260 E050      		subi r30,lo8(-(digittable))
 3893 1262 F040      		sbci r31,hi8(-(digittable))
 3894               	.LVL227:
 3895               	/* #APP */
 3896               	 ;  1787 "iv.c" 1
 3897 1264 E491      		lpm r30, Z
 3898               		
 3899               	 ;  0 "" 2
 3900               	.LVL228:
 3901               	/* #NOAPP */
 3902               	.LBE365:
 3903 1266 81E0      		ldi r24,lo8(1)
 3904 1268 90E0      		ldi r25,hi8(1)
 3905 126a 00C0      		rjmp 2f
 3906 126c 880F      	1:	lsl r24
 3907 126e 991F      		rol r25
 3908 1270 EA95      	2:	dec r30
 3909 1272 02F4      		brpl 1b
 3910 1274 7C01      		movw r14,r24
 3911 1276 0027      		clr r16
 3912 1278 F7FC      		sbrc r15,7
 3913 127a 0095      		com r16
 3914 127c 102F      		mov r17,r16
 3915               	.LVL229:
 3916 127e 2091 0000 		lds r18,t
 3917 1282 3091 0000 		lds r19,(t)+1
 3918 1286 4091 0000 		lds r20,(t)+2
 3919 128a 5091 0000 		lds r21,(t)+3
 3920 128e A0E0      		ldi r26,lo8(0)
 3921 1290 B0E0      		ldi r27,hi8(0)
 3922               	.LM570:
 3923 1292 70E0      		ldi r23,lo8(0)
 3924               	.LVL230:
 3925               	.LM571:
 3926 1294 E1E0      		ldi r30,lo8(1)
 3927 1296 AE2E      		mov r10,r30
 3928 1298 B12C      		mov r11,__zero_reg__
 3929 129a C12C      		mov r12,__zero_reg__
 3930 129c D12C      		mov r13,__zero_reg__
 3931               	.LVL231:
 3932               	.L302:
 3933               	.LM572:
 3934 129e CB01      		movw r24,r22
 3935 12a0 0A2E      		mov r0,r26
 3936 12a2 00C0      		rjmp 2f
 3937 12a4 9595      	1:	asr r25
 3938 12a6 8795      		ror r24
 3939 12a8 0A94      	2:	dec r0
 3940 12aa 02F4      		brpl 1b
 3941 12ac 80FF      		sbrs r24,0
 3942 12ae 00C0      		rjmp .L301
 3943               	.LBB366:
 3944               	.LM573:
 3945 12b0 FD01      		movw r30,r26
 3946               	.LVL232:
 3947 12b2 E050      		subi r30,lo8(-(segmenttable))
 3948 12b4 F040      		sbci r31,hi8(-(segmenttable))
 3949               	/* #APP */
 3950               	 ;  1794 "iv.c" 1
 3951 12b6 E491      		lpm r30, Z
 3952               		
 3953               	 ;  0 "" 2
 3954               	.LVL233:
 3955               	/* #NOAPP */
 3956               	.LBE366:
 3957 12b8 A601      		movw r20,r12
 3958 12ba 9501      		movw r18,r10
 3959 12bc 00C0      		rjmp 2f
 3960 12be 220F      	1:	lsl r18
 3961 12c0 331F      		rol r19
 3962 12c2 441F      		rol r20
 3963 12c4 551F      		rol r21
 3964 12c6 EA95      	2:	dec r30
 3965 12c8 02F4      		brpl 1b
 3966               	.LM574:
 3967 12ca E22A      		or r14,r18
 3968 12cc F32A      		or r15,r19
 3969 12ce 042B      		or r16,r20
 3970 12d0 152B      		or r17,r21
 3971               	.L301:
 3972 12d2 1196      		adiw r26,1
 3973               	.LM575:
 3974 12d4 A830      		cpi r26,8
 3975 12d6 B105      		cpc r27,__zero_reg__
 3976 12d8 01F4      		brne .L302
 3977 12da 2093 0000 		sts t,r18
 3978 12de 3093 0000 		sts (t)+1,r19
 3979 12e2 4093 0000 		sts (t)+2,r20
 3980 12e6 5093 0000 		sts (t)+3,r21
 3981               	.LM576:
 3982 12ea C801      		movw r24,r16
 3983 12ec B701      		movw r22,r14
 3984               	.LVL234:
 3985 12ee 0E94 0000 		call vfd_send
 3986               	.LVL235:
 3987               	/* epilogue start */
 3988               	.LM577:
 3989 12f2 1F91      		pop r17
 3990 12f4 0F91      		pop r16
 3991 12f6 FF90      		pop r15
 3992 12f8 EF90      		pop r14
 3993               	.LVL236:
 3994 12fa DF90      		pop r13
 3995 12fc CF90      		pop r12
 3996 12fe BF90      		pop r11
 3997 1300 AF90      		pop r10
 3998 1302 0895      		ret
 3999               	.LFE52:
 4001               	.global	__vector_16
 4003               	__vector_16:
 4004               	.LFB17:
 4005               	.LM578:
 4006 1304 1F92      		push __zero_reg__
 4007 1306 0F92      		push r0
 4008 1308 0FB6      		in r0,__SREG__
 4009 130a 0F92      		push r0
 4010 130c 1124      		clr __zero_reg__
 4011 130e 2F93      		push r18
 4012 1310 3F93      		push r19
 4013 1312 4F93      		push r20
 4014 1314 5F93      		push r21
 4015 1316 6F93      		push r22
 4016 1318 7F93      		push r23
 4017 131a 8F93      		push r24
 4018 131c 9F93      		push r25
 4019 131e AF93      		push r26
 4020 1320 BF93      		push r27
 4021 1322 EF93      		push r30
 4022 1324 FF93      		push r31
 4023               	/* prologue: Signal */
 4024               	/* frame size = 0 */
 4025               	.LM579:
 4026               	/* #APP */
 4027               	 ;  145 "iv.c" 1
 4028 1326 7894      		sei
 4029               	 ;  0 "" 2
 4030               	/* #NOAPP */
 4031               	.LBB367:
 4032               	.LBB368:
 4033               	.LM580:
 4034               	/* #APP */
 4035               	 ;  139 "iv.c" 1
 4036 1328 A895      		wdr
 4037               	 ;  0 "" 2
 4038               	/* #NOAPP */
 4039               	.LBE368:
 4040               	.LBE367:
 4041               	.LM581:
 4042 132a 8091 0000 		lds r24,muxdiv
 4043 132e 9091 0000 		lds r25,(muxdiv)+1
 4044 1332 0196      		adiw r24,1
 4045 1334 9093 0000 		sts (muxdiv)+1,r25
 4046 1338 8093 0000 		sts muxdiv,r24
 4047               	.LM582:
 4048 133c 8197      		sbiw r24,33
 4049 133e 00F4      		brsh .+2
 4050 1340 00C0      		rjmp .L309
 4051               	.LM583:
 4052 1342 1092 0000 		sts (muxdiv)+1,__zero_reg__
 4053 1346 1092 0000 		sts muxdiv,__zero_reg__
 4054               	.LM584:
 4055 134a 8091 0000 		lds r24,milliseconds
 4056 134e 9091 0000 		lds r25,(milliseconds)+1
 4057 1352 0196      		adiw r24,1
 4058 1354 9093 0000 		sts (milliseconds)+1,r25
 4059 1358 8093 0000 		sts milliseconds,r24
 4060               	.LM585:
 4061 135c 8091 0000 		lds r24,currdigit
 4062 1360 8930      		cpi r24,lo8(9)
 4063 1362 00F0      		brlo .L307
 4064               	.LM586:
 4065 1364 1092 0000 		sts currdigit,__zero_reg__
 4066               	.L307:
 4067               	.LM587:
 4068 1368 8091 0000 		lds r24,currdigit
 4069 136c E82F      		mov r30,r24
 4070 136e F0E0      		ldi r31,lo8(0)
 4071 1370 E050      		subi r30,lo8(-(display))
 4072 1372 F040      		sbci r31,hi8(-(display))
 4073 1374 6081      		ld r22,Z
 4074 1376 0E94 0000 		call setdisplay
 4075               	.LM588:
 4076 137a 8091 0000 		lds r24,currdigit
 4077 137e 8F5F      		subi r24,lo8(-(1))
 4078 1380 8093 0000 		sts currdigit,r24
 4079               	.LM589:
 4080 1384 8091 0000 		lds r24,alarming
 4081 1388 8823      		tst r24
 4082 138a 01F4      		brne .+2
 4083 138c 00C0      		rjmp .L309
 4084 138e 8091 0000 		lds r24,snoozetimer
 4085 1392 9091 0000 		lds r25,(snoozetimer)+1
 4086 1396 892B      		or r24,r25
 4087 1398 01F0      		breq .+2
 4088 139a 00C0      		rjmp .L309
 4089               	.LM590:
 4090 139c 8091 0000 		lds r24,alarmdiv
 4091 13a0 9091 0000 		lds r25,(alarmdiv)+1
 4092 13a4 0196      		adiw r24,1
 4093 13a6 9093 0000 		sts (alarmdiv)+1,r25
 4094 13aa 8093 0000 		sts alarmdiv,r24
 4095               	.LM591:
 4096 13ae 8536      		cpi r24,101
 4097 13b0 9105      		cpc r25,__zero_reg__
 4098 13b2 00F0      		brlo .L309
 4099               	.LM592:
 4100 13b4 1092 0000 		sts (alarmdiv)+1,__zero_reg__
 4101 13b8 1092 0000 		sts alarmdiv,__zero_reg__
 4102               	.LM593:
 4103 13bc 8AEF      		ldi r24,lo8(250)
 4104 13be 90E0      		ldi r25,hi8(250)
 4105 13c0 9093 8700 		sts (134)+1,r25
 4106 13c4 8093 8600 		sts 134,r24
 4107               	.LM594:
 4108 13c8 8091 8600 		lds r24,134
 4109 13cc 9091 8700 		lds r25,(134)+1
 4110 13d0 9695      		lsr r25
 4111 13d2 8795      		ror r24
 4112 13d4 9093 8B00 		sts (138)+1,r25
 4113 13d8 8093 8A00 		sts 138,r24
 4114 13dc 8091 8A00 		lds r24,138
 4115 13e0 9091 8B00 		lds r25,(138)+1
 4116 13e4 9093 8900 		sts (136)+1,r25
 4117 13e8 8093 8800 		sts 136,r24
 4118               	.LM595:
 4119 13ec 8091 0000 		lds r24,alarming
 4120 13f0 807F      		andi r24,lo8(-16)
 4121 13f2 01F0      		breq .L308
 4122               	.LM596:
 4123 13f4 8091 0000 		lds r24,alarming
 4124 13f8 8F70      		andi r24,lo8(15)
 4125 13fa 8093 0000 		sts alarming,r24
 4126               	.LM597:
 4127 13fe 8091 8100 		lds r24,129
 4128 1402 8D7F      		andi r24,lo8(-3)
 4129 1404 00C0      		rjmp .L310
 4130               	.L308:
 4131               	.LM598:
 4132 1406 8091 0000 		lds r24,alarming
 4133 140a 806F      		ori r24,lo8(-16)
 4134 140c 8093 0000 		sts alarming,r24
 4135               	.LM599:
 4136 1410 8091 8100 		lds r24,129
 4137 1414 8260      		ori r24,lo8(2)
 4138               	.L310:
 4139 1416 8093 8100 		sts 129,r24
 4140               	.L309:
 4141               	/* epilogue start */
 4142               	.LM600:
 4143 141a FF91      		pop r31
 4144 141c EF91      		pop r30
 4145 141e BF91      		pop r27
 4146 1420 AF91      		pop r26
 4147 1422 9F91      		pop r25
 4148 1424 8F91      		pop r24
 4149 1426 7F91      		pop r23
 4150 1428 6F91      		pop r22
 4151 142a 5F91      		pop r21
 4152 142c 4F91      		pop r20
 4153 142e 3F91      		pop r19
 4154 1430 2F91      		pop r18
 4155 1432 0F90      		pop r0
 4156 1434 0FBE      		out __SREG__,r0
 4157 1436 0F90      		pop r0
 4158 1438 1F90      		pop __zero_reg__
 4159 143a 1895      		reti
 4160               	.LFE17:
 4162               	.global	spi_xfer
 4164               	spi_xfer:
 4165               	.LFB54:
 4166               	.LM601:
 4167               	.LVL237:
 4168               	/* prologue: function */
 4169               	/* frame size = 0 */
 4170               	.LM602:
 4171 143c 8EBD      		out 78-32,r24
 4172               	.L312:
 4173               	.LM603:
 4174 143e 0DB4      		in __tmp_reg__,77-32
 4175 1440 07FE      		sbrs __tmp_reg__,7
 4176 1442 00C0      		rjmp .L312
 4177               	/* epilogue start */
 4178               	.LM604:
 4179 1444 0895      		ret
 4180               	.LFE54:
 4182               	.global	gpsdataready
 4184               	gpsdataready:
 4185               	.LFB55:
 4186               	.LM605:
 4187               	/* prologue: function */
 4188               	/* frame size = 0 */
 4189               	.LM606:
 4190 1446 8091 C000 		lds r24,192
 4191               	.LM607:
 4192 144a 8078      		andi r24,lo8(-128)
 4193               	/* epilogue start */
 4194 144c 0895      		ret
 4195               	.LFE55:
 4197               	.global	setgpstime
 4199               	setgpstime:
 4200               	.LFB57:
 4201               	.LM608:
 4202               	.LVL238:
 4203               	/* prologue: function */
 4204               	/* frame size = 0 */
 4205 144e FC01      		movw r30,r24
 4206               	.LM609:
 4207 1450 5381      		ldd r21,Z+3
 4208               	.LVL239:
 4209 1452 5051      		subi r21,lo8(-(-16))
 4210 1454 8281      		ldd r24,Z+2
 4211               	.LVL240:
 4212 1456 4AE0      		ldi r20,lo8(10)
 4213 1458 849F      		mul r24,r20
 4214 145a C001      		movw r24,r0
 4215 145c 1124      		clr r1
 4216 145e 580F      		add r21,r24
 4217               	.LM610:
 4218 1460 7481      		ldd r23,Z+4
 4219               	.LM611:
 4220 1462 6581      		ldd r22,Z+5
 4221               	.LM612:
 4222 1464 3091 0000 		lds r19,intTimeZoneHour
 4223 1468 232F      		mov r18,r19
 4224 146a 2051      		subi r18,lo8(-(-16))
 4225 146c 8181      		ldd r24,Z+1
 4226 146e 280F      		add r18,r24
 4227 1470 8081      		ld r24,Z
 4228 1472 849F      		mul r24,r20
 4229 1474 C001      		movw r24,r0
 4230 1476 1124      		clr r1
 4231 1478 280F      		add r18,r24
 4232 147a 2093 0000 		sts time_h,r18
 4233 147e 8091 0000 		lds r24,intTimeZoneMin
 4234               	.LM613:
 4235 1482 37FF      		sbrs r19,7
 4236 1484 00C0      		rjmp .L318
 4237               	.LM614:
 4238 1486 581B      		sub r21,r24
 4239 1488 00C0      		rjmp .L322
 4240               	.L318:
 4241               	.LM615:
 4242 148a 580F      		add r21,r24
 4243               	.L322:
 4244 148c 5093 0000 		sts time_m,r21
 4245               	.LM616:
 4246 1490 6051      		subi r22,lo8(-(-16))
 4247 1492 8AE0      		ldi r24,lo8(10)
 4248 1494 789F      		mul r23,r24
 4249 1496 C001      		movw r24,r0
 4250 1498 1124      		clr r1
 4251 149a 680F      		add r22,r24
 4252 149c 6093 0000 		sts time_s,r22
 4253               	.LM617:
 4254 14a0 8091 0000 		lds r24,time_s
 4255 14a4 8F5F      		subi r24,lo8(-(1))
 4256 14a6 8093 0000 		sts time_s,r24
 4257               	.LM618:
 4258 14aa 8091 0000 		lds r24,time_s
 4259 14ae 8C33      		cpi r24,lo8(60)
 4260 14b0 04F0      		brlt .L321
 4261               	.LM619:
 4262 14b2 8091 0000 		lds r24,time_s
 4263 14b6 8C53      		subi r24,lo8(-(-60))
 4264 14b8 8093 0000 		sts time_s,r24
 4265               	.LM620:
 4266 14bc 8091 0000 		lds r24,time_m
 4267 14c0 8F5F      		subi r24,lo8(-(1))
 4268 14c2 8093 0000 		sts time_m,r24
 4269               	.LM621:
 4270 14c6 8091 0000 		lds r24,time_m
 4271 14ca 8C33      		cpi r24,lo8(60)
 4272 14cc 04F0      		brlt .L321
 4273               	.LM622:
 4274 14ce 8091 0000 		lds r24,time_m
 4275 14d2 8C53      		subi r24,lo8(-(-60))
 4276 14d4 8093 0000 		sts time_m,r24
 4277               	.LM623:
 4278 14d8 8091 0000 		lds r24,time_h
 4279 14dc 8F5F      		subi r24,lo8(-(1))
 4280 14de 8093 0000 		sts time_h,r24
 4281               	.LM624:
 4282 14e2 8091 0000 		lds r24,time_h
 4283 14e6 8831      		cpi r24,lo8(24)
 4284 14e8 04F0      		brlt .L321
 4285               	.LM625:
 4286 14ea 8091 0000 		lds r24,time_h
 4287 14ee 8851      		subi r24,lo8(-(-24))
 4288 14f0 8093 0000 		sts time_h,r24
 4289               	.L321:
 4290 14f4 0895      		ret
 4291               	.LFE57:
 4293               	.global	setgpsdate
 4295               	setgpsdate:
 4296               	.LFB58:
 4297               	.LM626:
 4298               	.LVL241:
 4299               	/* prologue: function */
 4300               	/* frame size = 0 */
 4301 14f6 FC01      		movw r30,r24
 4302               	.LM627:
 4303 14f8 5181      		ldd r21,Z+1
 4304 14fa 5051      		subi r21,lo8(-(-16))
 4305 14fc 8081      		ld r24,Z
 4306               	.LVL242:
 4307 14fe 4AE0      		ldi r20,lo8(10)
 4308 1500 849F      		mul r24,r20
 4309 1502 C001      		movw r24,r0
 4310 1504 1124      		clr r1
 4311 1506 580F      		add r21,r24
 4312               	.LM628:
 4313 1508 3381      		ldd r19,Z+3
 4314 150a 3051      		subi r19,lo8(-(-16))
 4315 150c 8281      		ldd r24,Z+2
 4316 150e 849F      		mul r24,r20
 4317 1510 C001      		movw r24,r0
 4318 1512 1124      		clr r1
 4319 1514 380F      		add r19,r24
 4320               	.LM629:
 4321 1516 2581      		ldd r18,Z+5
 4322 1518 2051      		subi r18,lo8(-(-16))
 4323 151a 8481      		ldd r24,Z+4
 4324 151c 849F      		mul r24,r20
 4325 151e C001      		movw r24,r0
 4326 1520 1124      		clr r1
 4327 1522 280F      		add r18,r24
 4328               	.LM630:
 4329 1524 1092 0000 		sts timeunknown,__zero_reg__
 4330               	.LM631:
 4331 1528 1092 0000 		sts restored,__zero_reg__
 4332               	.LM632:
 4333 152c 5093 0000 		sts date_d,r21
 4334               	.LM633:
 4335 1530 3093 0000 		sts date_m,r19
 4336               	.LM634:
 4337 1534 2093 0000 		sts date_y,r18
 4338               	/* epilogue start */
 4339               	.LM635:
 4340 1538 0895      		ret
 4341               	.LFE58:
 4343               	.global	fix_time
 4345               	fix_time:
 4346               	.LFB60:
 4347               	.LM636:
 4348               	/* prologue: function */
 4349               	/* frame size = 0 */
 4350               	.LM637:
 4351 153a 8091 0000 		lds r24,time_s
 4352 153e 8C33      		cpi r24,lo8(60)
 4353 1540 04F0      		brlt .L326
 4354               	.LM638:
 4355 1542 8091 0000 		lds r24,time_s
 4356 1546 8C53      		subi r24,lo8(-(-60))
 4357 1548 8093 0000 		sts time_s,r24
 4358               	.LM639:
 4359 154c 8091 0000 		lds r24,time_m
 4360 1550 8F5F      		subi r24,lo8(-(1))
 4361 1552 8093 0000 		sts time_m,r24
 4362               	.L326:
 4363               	.LM640:
 4364 1556 8091 0000 		lds r24,time_s
 4365 155a 87FF      		sbrs r24,7
 4366 155c 00C0      		rjmp .L327
 4367               	.LM641:
 4368 155e 8091 0000 		lds r24,time_s
 4369 1562 845C      		subi r24,lo8(-(60))
 4370 1564 8093 0000 		sts time_s,r24
 4371               	.LM642:
 4372 1568 8091 0000 		lds r24,time_m
 4373 156c 8150      		subi r24,lo8(-(-1))
 4374 156e 8093 0000 		sts time_m,r24
 4375               	.L327:
 4376               	.LM643:
 4377 1572 8091 0000 		lds r24,time_m
 4378 1576 8C33      		cpi r24,lo8(60)
 4379 1578 04F0      		brlt .L328
 4380               	.LM644:
 4381 157a 8091 0000 		lds r24,time_m
 4382 157e 8C53      		subi r24,lo8(-(-60))
 4383 1580 8093 0000 		sts time_m,r24
 4384               	.LM645:
 4385 1584 8091 0000 		lds r24,time_h
 4386 1588 8F5F      		subi r24,lo8(-(1))
 4387 158a 8093 0000 		sts time_h,r24
 4388               	.LM646:
 4389 158e 2091 0000 		lds r18,time_h
 4390               	.L329:
 4391               	.LBB369:
 4392               	.LBB370:
 4393               	.LM647:
 4394 1592 F999      		sbic 63-32,1
 4395 1594 00C0      		rjmp .L329
 4396               	.LM648:
 4397 1596 1FBA      		out 63-32,__zero_reg__
 4398               	.LM649:
 4399 1598 84E0      		ldi r24,lo8(4)
 4400 159a 90E0      		ldi r25,hi8(4)
 4401 159c 92BD      		out (65)+1-32,r25
 4402 159e 81BD      		out 65-32,r24
 4403               	.LM650:
 4404 15a0 20BD      		out 64-32,r18
 4405               	.LM651:
 4406               	/* #APP */
 4407               	 ;  324 "/Applications/Arduino.app/Contents/Resources/Java/hardware/tools/avr/bin/../lib/gcc/avr/4.
 4408               		/* START EEPROM WRITE CRITICAL SECTION */
 4409 15a2 0FB6      		in	r0, 63		
 4410 15a4 F894      		cli				
 4411 15a6 FA9A      		sbi	31, 2	
 4412 15a8 F99A      		sbi	31, 1	
 4413 15aa 0FBE      		out	63, r0		
 4414               		/* END EEPROM WRITE CRITICAL SECTION */
 4415               	 ;  0 "" 2
 4416               	/* #NOAPP */
 4417               	.LBE370:
 4418               	.LBE369:
 4419               	.LM652:
 4420 15ac 2091 0000 		lds r18,time_m
 4421               	.L330:
 4422               	.LBB371:
 4423               	.LBB372:
 4424               	.LM653:
 4425 15b0 F999      		sbic 63-32,1
 4426 15b2 00C0      		rjmp .L330
 4427               	.LM654:
 4428 15b4 1FBA      		out 63-32,__zero_reg__
 4429               	.LM655:
 4430 15b6 85E0      		ldi r24,lo8(5)
 4431 15b8 90E0      		ldi r25,hi8(5)
 4432 15ba 92BD      		out (65)+1-32,r25
 4433 15bc 81BD      		out 65-32,r24
 4434               	.LM656:
 4435 15be 20BD      		out 64-32,r18
 4436               	.LM657:
 4437               	/* #APP */
 4438               	 ;  324 "/Applications/Arduino.app/Contents/Resources/Java/hardware/tools/avr/bin/../lib/gcc/avr/4.
 4439               		/* START EEPROM WRITE CRITICAL SECTION */
 4440 15c0 0FB6      		in	r0, 63		
 4441 15c2 F894      		cli				
 4442 15c4 FA9A      		sbi	31, 2	
 4443 15c6 F99A      		sbi	31, 1	
 4444 15c8 0FBE      		out	63, r0		
 4445               		/* END EEPROM WRITE CRITICAL SECTION */
 4446               	 ;  0 "" 2
 4447               	/* #NOAPP */
 4448               	.L328:
 4449               	.LBE372:
 4450               	.LBE371:
 4451               	.LM658:
 4452 15ca 8091 0000 		lds r24,time_m
 4453 15ce 87FF      		sbrs r24,7
 4454 15d0 00C0      		rjmp .L331
 4455               	.LM659:
 4456 15d2 8091 0000 		lds r24,time_m
 4457 15d6 845C      		subi r24,lo8(-(60))
 4458 15d8 8093 0000 		sts time_m,r24
 4459               	.LM660:
 4460 15dc 8091 0000 		lds r24,time_h
 4461 15e0 8150      		subi r24,lo8(-(-1))
 4462 15e2 8093 0000 		sts time_h,r24
 4463               	.LM661:
 4464 15e6 2091 0000 		lds r18,time_h
 4465               	.L332:
 4466               	.LBB373:
 4467               	.LBB374:
 4468               	.LM662:
 4469 15ea F999      		sbic 63-32,1
 4470 15ec 00C0      		rjmp .L332
 4471               	.LM663:
 4472 15ee 1FBA      		out 63-32,__zero_reg__
 4473               	.LM664:
 4474 15f0 84E0      		ldi r24,lo8(4)
 4475 15f2 90E0      		ldi r25,hi8(4)
 4476 15f4 92BD      		out (65)+1-32,r25
 4477 15f6 81BD      		out 65-32,r24
 4478               	.LM665:
 4479 15f8 20BD      		out 64-32,r18
 4480               	.LM666:
 4481               	/* #APP */
 4482               	 ;  324 "/Applications/Arduino.app/Contents/Resources/Java/hardware/tools/avr/bin/../lib/gcc/avr/4.
 4483               		/* START EEPROM WRITE CRITICAL SECTION */
 4484 15fa 0FB6      		in	r0, 63		
 4485 15fc F894      		cli				
 4486 15fe FA9A      		sbi	31, 2	
 4487 1600 F99A      		sbi	31, 1	
 4488 1602 0FBE      		out	63, r0		
 4489               		/* END EEPROM WRITE CRITICAL SECTION */
 4490               	 ;  0 "" 2
 4491               	/* #NOAPP */
 4492               	.LBE374:
 4493               	.LBE373:
 4494               	.LM667:
 4495 1604 2091 0000 		lds r18,time_m
 4496               	.L333:
 4497               	.LBB375:
 4498               	.LBB376:
 4499               	.LM668:
 4500 1608 F999      		sbic 63-32,1
 4501 160a 00C0      		rjmp .L333
 4502               	.LM669:
 4503 160c 1FBA      		out 63-32,__zero_reg__
 4504               	.LM670:
 4505 160e 85E0      		ldi r24,lo8(5)
 4506 1610 90E0      		ldi r25,hi8(5)
 4507 1612 92BD      		out (65)+1-32,r25
 4508 1614 81BD      		out 65-32,r24
 4509               	.LM671:
 4510 1616 20BD      		out 64-32,r18
 4511               	.LM672:
 4512               	/* #APP */
 4513               	 ;  324 "/Applications/Arduino.app/Contents/Resources/Java/hardware/tools/avr/bin/../lib/gcc/avr/4.
 4514               		/* START EEPROM WRITE CRITICAL SECTION */
 4515 1618 0FB6      		in	r0, 63		
 4516 161a F894      		cli				
 4517 161c FA9A      		sbi	31, 2	
 4518 161e F99A      		sbi	31, 1	
 4519 1620 0FBE      		out	63, r0		
 4520               		/* END EEPROM WRITE CRITICAL SECTION */
 4521               	 ;  0 "" 2
 4522               	/* #NOAPP */
 4523               	.L331:
 4524               	.LBE376:
 4525               	.LBE375:
 4526               	.LM673:
 4527 1622 8091 0000 		lds r24,time_h
 4528 1626 8831      		cpi r24,lo8(24)
 4529 1628 04F0      		brlt .L334
 4530               	.LM674:
 4531 162a 8091 0000 		lds r24,time_h
 4532 162e 8851      		subi r24,lo8(-(-24))
 4533 1630 8093 0000 		sts time_h,r24
 4534               	.LM675:
 4535 1634 8091 0000 		lds r24,date_d
 4536 1638 8F5F      		subi r24,lo8(-(1))
 4537 163a 8093 0000 		sts date_d,r24
 4538               	.LM676:
 4539 163e 2091 0000 		lds r18,date_d
 4540               	.L335:
 4541               	.LBB377:
 4542               	.LBB378:
 4543               	.LM677:
 4544 1642 F999      		sbic 63-32,1
 4545 1644 00C0      		rjmp .L335
 4546               	.LM678:
 4547 1646 1FBA      		out 63-32,__zero_reg__
 4548               	.LM679:
 4549 1648 83E0      		ldi r24,lo8(3)
 4550 164a 90E0      		ldi r25,hi8(3)
 4551 164c 92BD      		out (65)+1-32,r25
 4552 164e 81BD      		out 65-32,r24
 4553               	.LM680:
 4554 1650 20BD      		out 64-32,r18
 4555               	.LM681:
 4556               	/* #APP */
 4557               	 ;  324 "/Applications/Arduino.app/Contents/Resources/Java/hardware/tools/avr/bin/../lib/gcc/avr/4.
 4558               		/* START EEPROM WRITE CRITICAL SECTION */
 4559 1652 0FB6      		in	r0, 63		
 4560 1654 F894      		cli				
 4561 1656 FA9A      		sbi	31, 2	
 4562 1658 F99A      		sbi	31, 1	
 4563 165a 0FBE      		out	63, r0		
 4564               		/* END EEPROM WRITE CRITICAL SECTION */
 4565               	 ;  0 "" 2
 4566               	/* #NOAPP */
 4567               	.L334:
 4568               	.LBE378:
 4569               	.LBE377:
 4570               	.LM682:
 4571 165c 8091 0000 		lds r24,time_h
 4572 1660 87FF      		sbrs r24,7
 4573 1662 00C0      		rjmp .L336
 4574               	.LM683:
 4575 1664 8091 0000 		lds r24,time_h
 4576 1668 885E      		subi r24,lo8(-(24))
 4577 166a 8093 0000 		sts time_h,r24
 4578               	.LM684:
 4579 166e 8091 0000 		lds r24,date_d
 4580 1672 8150      		subi r24,lo8(-(-1))
 4581 1674 8093 0000 		sts date_d,r24
 4582               	.LM685:
 4583 1678 2091 0000 		lds r18,date_d
 4584               	.L337:
 4585               	.LBB379:
 4586               	.LBB380:
 4587               	.LM686:
 4588 167c F999      		sbic 63-32,1
 4589 167e 00C0      		rjmp .L337
 4590               	.LM687:
 4591 1680 1FBA      		out 63-32,__zero_reg__
 4592               	.LM688:
 4593 1682 83E0      		ldi r24,lo8(3)
 4594 1684 90E0      		ldi r25,hi8(3)
 4595 1686 92BD      		out (65)+1-32,r25
 4596 1688 81BD      		out 65-32,r24
 4597               	.LM689:
 4598 168a 20BD      		out 64-32,r18
 4599               	.LM690:
 4600               	/* #APP */
 4601               	 ;  324 "/Applications/Arduino.app/Contents/Resources/Java/hardware/tools/avr/bin/../lib/gcc/avr/4.
 4602               		/* START EEPROM WRITE CRITICAL SECTION */
 4603 168c 0FB6      		in	r0, 63		
 4604 168e F894      		cli				
 4605 1690 FA9A      		sbi	31, 2	
 4606 1692 F99A      		sbi	31, 1	
 4607 1694 0FBE      		out	63, r0		
 4608               		/* END EEPROM WRITE CRITICAL SECTION */
 4609               	 ;  0 "" 2
 4610               	/* #NOAPP */
 4611               	.L336:
 4612               	.LBE380:
 4613               	.LBE379:
 4614               	.LM691:
 4615 1696 8091 0000 		lds r24,date_d
 4616 169a 8032      		cpi r24,lo8(32)
 4617 169c 04F4      		brge .L338
 4618 169e 8091 0000 		lds r24,date_d
 4619 16a2 8F31      		cpi r24,lo8(31)
 4620 16a4 01F4      		brne .L339
 4621 16a6 8091 0000 		lds r24,date_m
 4622 16aa 8430      		cpi r24,lo8(4)
 4623 16ac 01F0      		breq .L338
 4624 16ae 8091 0000 		lds r24,date_m
 4625 16b2 8630      		cpi r24,lo8(6)
 4626 16b4 01F0      		breq .L338
 4627 16b6 8091 0000 		lds r24,date_m
 4628 16ba 8930      		cpi r24,lo8(9)
 4629 16bc 01F0      		breq .L338
 4630 16be 8091 0000 		lds r24,date_m
 4631 16c2 8B30      		cpi r24,lo8(11)
 4632 16c4 01F0      		breq .L338
 4633               	.L339:
 4634 16c6 8091 0000 		lds r24,date_d
 4635 16ca 8E31      		cpi r24,lo8(30)
 4636 16cc 01F4      		brne .L340
 4637 16ce 8091 0000 		lds r24,date_m
 4638 16d2 8230      		cpi r24,lo8(2)
 4639 16d4 01F0      		breq .L338
 4640               	.L340:
 4641 16d6 8091 0000 		lds r24,date_d
 4642 16da 8D31      		cpi r24,lo8(29)
 4643 16dc 01F4      		brne .L341
 4644 16de 8091 0000 		lds r24,date_m
 4645 16e2 8230      		cpi r24,lo8(2)
 4646 16e4 01F4      		brne .L341
 4647 16e6 8091 0000 		lds r24,date_y
 4648 16ea 9927      		clr r25
 4649 16ec 87FD      		sbrc r24,7
 4650 16ee 9095      		com r25
 4651 16f0 8053      		subi r24,lo8(-(2000))
 4652 16f2 984F      		sbci r25,hi8(-(2000))
 4653 16f4 0E94 0000 		call leapyear
 4654 16f8 8823      		tst r24
 4655 16fa 01F4      		brne .L341
 4656               	.L338:
 4657               	.LM692:
 4658 16fc 81E0      		ldi r24,lo8(1)
 4659 16fe 8093 0000 		sts date_d,r24
 4660               	.LM693:
 4661 1702 8091 0000 		lds r24,date_m
 4662 1706 8F5F      		subi r24,lo8(-(1))
 4663 1708 8093 0000 		sts date_m,r24
 4664               	.LM694:
 4665 170c 2091 0000 		lds r18,date_m
 4666               	.L342:
 4667               	.LBB381:
 4668               	.LBB382:
 4669               	.LM695:
 4670 1710 F999      		sbic 63-32,1
 4671 1712 00C0      		rjmp .L342
 4672               	.LM696:
 4673 1714 1FBA      		out 63-32,__zero_reg__
 4674               	.LM697:
 4675 1716 82E0      		ldi r24,lo8(2)
 4676 1718 90E0      		ldi r25,hi8(2)
 4677 171a 92BD      		out (65)+1-32,r25
 4678 171c 81BD      		out 65-32,r24
 4679               	.LM698:
 4680 171e 20BD      		out 64-32,r18
 4681               	.LM699:
 4682               	/* #APP */
 4683               	 ;  324 "/Applications/Arduino.app/Contents/Resources/Java/hardware/tools/avr/bin/../lib/gcc/avr/4.
 4684               		/* START EEPROM WRITE CRITICAL SECTION */
 4685 1720 0FB6      		in	r0, 63		
 4686 1722 F894      		cli				
 4687 1724 FA9A      		sbi	31, 2	
 4688 1726 F99A      		sbi	31, 1	
 4689 1728 0FBE      		out	63, r0		
 4690               		/* END EEPROM WRITE CRITICAL SECTION */
 4691               	 ;  0 "" 2
 4692               	/* #NOAPP */
 4693               	.L341:
 4694               	.LBE382:
 4695               	.LBE381:
 4696               	.LM700:
 4697 172a 8091 0000 		lds r24,date_d
 4698 172e 1816      		cp __zero_reg__,r24
 4699 1730 04F4      		brge .+2
 4700 1732 00C0      		rjmp .L343
 4701               	.LM701:
 4702 1734 8091 0000 		lds r24,date_m
 4703 1738 8630      		cpi r24,lo8(6)
 4704 173a 01F0      		breq .L345
 4705 173c 8730      		cpi r24,lo8(7)
 4706 173e 04F4      		brge .L348
 4707 1740 8330      		cpi r24,lo8(3)
 4708 1742 01F0      		breq .L346
 4709 1744 8430      		cpi r24,lo8(4)
 4710 1746 04F4      		brge .L349
 4711 1748 8130      		cpi r24,lo8(1)
 4712 174a 04F4      		brge .L345
 4713 174c 00C0      		rjmp .L344
 4714               	.L349:
 4715 174e 8430      		cpi r24,lo8(4)
 4716 1750 01F0      		breq .L345
 4717 1752 8530      		cpi r24,lo8(5)
 4718 1754 01F4      		brne .L344
 4719 1756 00C0      		rjmp .L347
 4720               	.L348:
 4721 1758 8A30      		cpi r24,lo8(10)
 4722 175a 04F4      		brge .L350
 4723 175c 8830      		cpi r24,lo8(8)
 4724 175e 04F4      		brge .L345
 4725 1760 00C0      		rjmp .L347
 4726               	.L350:
 4727 1762 8B30      		cpi r24,lo8(11)
 4728 1764 01F0      		breq .L345
 4729 1766 8B30      		cpi r24,lo8(11)
 4730 1768 04F0      		brlt .L347
 4731 176a 8C30      		cpi r24,lo8(12)
 4732 176c 01F4      		brne .L344
 4733 176e 00C0      		rjmp .L347
 4734               	.L345:
 4735               	.LM702:
 4736 1770 8091 0000 		lds r24,date_d
 4737 1774 815E      		subi r24,lo8(-(31))
 4738 1776 00C0      		rjmp .L373
 4739               	.L347:
 4740               	.LM703:
 4741 1778 8091 0000 		lds r24,date_d
 4742 177c 825E      		subi r24,lo8(-(30))
 4743               	.L373:
 4744 177e 8093 0000 		sts date_d,r24
 4745               	.LM704:
 4746 1782 8091 0000 		lds r24,date_m
 4747 1786 8150      		subi r24,lo8(-(-1))
 4748 1788 8093 0000 		sts date_m,r24
 4749 178c 00C0      		rjmp .L351
 4750               	.L346:
 4751               	.LM705:
 4752 178e 8091 0000 		lds r24,date_y
 4753 1792 9927      		clr r25
 4754 1794 87FD      		sbrc r24,7
 4755 1796 9095      		com r25
 4756 1798 8053      		subi r24,lo8(-(2000))
 4757 179a 984F      		sbci r25,hi8(-(2000))
 4758 179c 0E94 0000 		call leapyear
 4759 17a0 8823      		tst r24
 4760 17a2 01F0      		breq .L352
 4761               	.LM706:
 4762 17a4 8091 0000 		lds r24,date_d
 4763 17a8 835E      		subi r24,lo8(-(29))
 4764 17aa 00C0      		rjmp .L373
 4765               	.L352:
 4766               	.LM707:
 4767 17ac 8091 0000 		lds r24,date_d
 4768 17b0 845E      		subi r24,lo8(-(28))
 4769 17b2 00C0      		rjmp .L373
 4770               	.L344:
 4771               	.LM708:
 4772 17b4 81E0      		ldi r24,lo8(1)
 4773 17b6 8093 0000 		sts date_d,r24
 4774               	.L351:
 4775               	.LM709:
 4776 17ba 2091 0000 		lds r18,date_m
 4777               	.L354:
 4778               	.LBB383:
 4779               	.LBB384:
 4780               	.LM710:
 4781 17be F999      		sbic 63-32,1
 4782 17c0 00C0      		rjmp .L354
 4783               	.LM711:
 4784 17c2 1FBA      		out 63-32,__zero_reg__
 4785               	.LM712:
 4786 17c4 82E0      		ldi r24,lo8(2)
 4787 17c6 90E0      		ldi r25,hi8(2)
 4788 17c8 92BD      		out (65)+1-32,r25
 4789 17ca 81BD      		out 65-32,r24
 4790               	.LM713:
 4791 17cc 20BD      		out 64-32,r18
 4792               	.LM714:
 4793               	/* #APP */
 4794               	 ;  324 "/Applications/Arduino.app/Contents/Resources/Java/hardware/tools/avr/bin/../lib/gcc/avr/4.
 4795               		/* START EEPROM WRITE CRITICAL SECTION */
 4796 17ce 0FB6      		in	r0, 63		
 4797 17d0 F894      		cli				
 4798 17d2 FA9A      		sbi	31, 2	
 4799 17d4 F99A      		sbi	31, 1	
 4800 17d6 0FBE      		out	63, r0		
 4801               		/* END EEPROM WRITE CRITICAL SECTION */
 4802               	 ;  0 "" 2
 4803               	/* #NOAPP */
 4804               	.L343:
 4805               	.LBE384:
 4806               	.LBE383:
 4807               	.LM715:
 4808 17d8 8091 0000 		lds r24,date_m
 4809 17dc 8D30      		cpi r24,lo8(13)
 4810 17de 04F0      		brlt .L355
 4811               	.LM716:
 4812 17e0 8091 0000 		lds r24,date_y
 4813 17e4 8F5F      		subi r24,lo8(-(1))
 4814 17e6 8093 0000 		sts date_y,r24
 4815               	.LM717:
 4816 17ea 81E0      		ldi r24,lo8(1)
 4817 17ec 8093 0000 		sts date_m,r24
 4818               	.LM718:
 4819 17f0 2091 0000 		lds r18,date_y
 4820               	.L356:
 4821               	.LBB385:
 4822               	.LBB386:
 4823               	.LM719:
 4824 17f4 F999      		sbic 63-32,1
 4825 17f6 00C0      		rjmp .L356
 4826               	.LM720:
 4827 17f8 1FBA      		out 63-32,__zero_reg__
 4828               	.LM721:
 4829 17fa 81E0      		ldi r24,lo8(1)
 4830 17fc 90E0      		ldi r25,hi8(1)
 4831 17fe 92BD      		out (65)+1-32,r25
 4832 1800 81BD      		out 65-32,r24
 4833               	.LM722:
 4834 1802 20BD      		out 64-32,r18
 4835               	.LM723:
 4836               	/* #APP */
 4837               	 ;  324 "/Applications/Arduino.app/Contents/Resources/Java/hardware/tools/avr/bin/../lib/gcc/avr/4.
 4838               		/* START EEPROM WRITE CRITICAL SECTION */
 4839 1804 0FB6      		in	r0, 63		
 4840 1806 F894      		cli				
 4841 1808 FA9A      		sbi	31, 2	
 4842 180a F99A      		sbi	31, 1	
 4843 180c 0FBE      		out	63, r0		
 4844               		/* END EEPROM WRITE CRITICAL SECTION */
 4845               	 ;  0 "" 2
 4846               	/* #NOAPP */
 4847               	.L355:
 4848               	.LBE386:
 4849               	.LBE385:
 4850               	.LM724:
 4851 180e 8091 0000 		lds r24,date_m
 4852 1812 1816      		cp __zero_reg__,r24
 4853 1814 04F0      		brlt .L360
 4854               	.LM725:
 4855 1816 8091 0000 		lds r24,date_m
 4856 181a 845F      		subi r24,lo8(-(12))
 4857 181c 8093 0000 		sts date_m,r24
 4858               	.LM726:
 4859 1820 8091 0000 		lds r24,date_y
 4860 1824 8150      		subi r24,lo8(-(-1))
 4861 1826 8093 0000 		sts date_y,r24
 4862               	.LM727:
 4863 182a 2091 0000 		lds r18,date_m
 4864               	.L358:
 4865               	.LBB387:
 4866               	.LBB388:
 4867               	.LM728:
 4868 182e F999      		sbic 63-32,1
 4869 1830 00C0      		rjmp .L358
 4870               	.LM729:
 4871 1832 1FBA      		out 63-32,__zero_reg__
 4872               	.LM730:
 4873 1834 82E0      		ldi r24,lo8(2)
 4874 1836 90E0      		ldi r25,hi8(2)
 4875 1838 92BD      		out (65)+1-32,r25
 4876 183a 81BD      		out 65-32,r24
 4877               	.LM731:
 4878 183c 20BD      		out 64-32,r18
 4879               	.LM732:
 4880               	/* #APP */
 4881               	 ;  324 "/Applications/Arduino.app/Contents/Resources/Java/hardware/tools/avr/bin/../lib/gcc/avr/4.
 4882               		/* START EEPROM WRITE CRITICAL SECTION */
 4883 183e 0FB6      		in	r0, 63		
 4884 1840 F894      		cli				
 4885 1842 FA9A      		sbi	31, 2	
 4886 1844 F99A      		sbi	31, 1	
 4887 1846 0FBE      		out	63, r0		
 4888               		/* END EEPROM WRITE CRITICAL SECTION */
 4889               	 ;  0 "" 2
 4890               	/* #NOAPP */
 4891               	.LBE388:
 4892               	.LBE387:
 4893               	.LM733:
 4894 1848 2091 0000 		lds r18,date_y
 4895               	.L359:
 4896               	.LBB389:
 4897               	.LBB390:
 4898               	.LM734:
 4899 184c F999      		sbic 63-32,1
 4900 184e 00C0      		rjmp .L359
 4901               	.LM735:
 4902 1850 1FBA      		out 63-32,__zero_reg__
 4903               	.LM736:
 4904 1852 81E0      		ldi r24,lo8(1)
 4905 1854 90E0      		ldi r25,hi8(1)
 4906 1856 92BD      		out (65)+1-32,r25
 4907 1858 81BD      		out 65-32,r24
 4908               	.LM737:
 4909 185a 20BD      		out 64-32,r18
 4910               	.LM738:
 4911               	/* #APP */
 4912               	 ;  324 "/Applications/Arduino.app/Contents/Resources/Java/hardware/tools/avr/bin/../lib/gcc/avr/4.
 4913               		/* START EEPROM WRITE CRITICAL SECTION */
 4914 185c 0FB6      		in	r0, 63		
 4915 185e F894      		cli				
 4916 1860 FA9A      		sbi	31, 2	
 4917 1862 F99A      		sbi	31, 1	
 4918 1864 0FBE      		out	63, r0		
 4919               		/* END EEPROM WRITE CRITICAL SECTION */
 4920               	 ;  0 "" 2
 4921               	/* #NOAPP */
 4922               	.L360:
 4923 1866 0895      		ret
 4924               	.LBE390:
 4925               	.LBE389:
 4926               	.LFE60:
 4928               	.global	check_alarm
 4930               	check_alarm:
 4931               	.LFB59:
 4932               	.LM739:
 4933               	.LVL243:
 4934               	/* prologue: function */
 4935               	/* frame size = 0 */
 4936 1868 982F      		mov r25,r24
 4937               	.LM740:
 4938 186a 8091 0000 		lds r24,alarm_on
 4939               	.LVL244:
 4940 186e 8823      		tst r24
 4941 1870 01F0      		breq .L378
 4942 1872 8091 0000 		lds r24,alarm_h
 4943 1876 8917      		cp r24,r25
 4944 1878 01F4      		brne .L378
 4945 187a 8091 0000 		lds r24,alarm_m
 4946 187e 8617      		cp r24,r22
 4947 1880 01F4      		brne .L378
 4948 1882 4423      		tst r20
 4949 1884 01F4      		brne .L378
 4950               	.LM741:
 4951 1886 80E0      		ldi r24,lo8(__c.3299)
 4952 1888 90E0      		ldi r25,hi8(__c.3299)
 4953 188a 61E0      		ldi r22,lo8(1)
 4954               	.LVL245:
 4955 188c 0E94 0000 		call ROM_putstring
 4956               	.LVL246:
 4957               	.LM742:
 4958 1890 81E0      		ldi r24,lo8(1)
 4959 1892 8093 0000 		sts alarming,r24
 4960               	.LM743:
 4961 1896 1092 0000 		sts (snoozetimer)+1,__zero_reg__
 4962 189a 1092 0000 		sts snoozetimer,__zero_reg__
 4963               	.LVL247:
 4964               	.L378:
 4965 189e 0895      		ret
 4966               	.LFE59:
 4968               		.data
 4969               	.LC24:
 4970 00a2 2020 2020 		.string	"        "
 4970      2020 2020 
 4970      00
 4971               		.text
 4972               	.global	__vector_9
 4974               	__vector_9:
 4975               	.LFB20:
 4976               	.LM744:
 4977 18a0 1F92      		push __zero_reg__
 4978 18a2 0F92      		push r0
 4979 18a4 0FB6      		in r0,__SREG__
 4980 18a6 0F92      		push r0
 4981 18a8 1124      		clr __zero_reg__
 4982 18aa 2F93      		push r18
 4983 18ac 3F93      		push r19
 4984 18ae 4F93      		push r20
 4985 18b0 5F93      		push r21
 4986 18b2 6F93      		push r22
 4987 18b4 7F93      		push r23
 4988 18b6 8F93      		push r24
 4989 18b8 9F93      		push r25
 4990 18ba AF93      		push r26
 4991 18bc BF93      		push r27
 4992 18be EF93      		push r30
 4993 18c0 FF93      		push r31
 4994               	/* prologue: Signal */
 4995               	/* frame size = 0 */
 4996               	.LM745:
 4997 18c2 80E8      		ldi r24,lo8(-128)
 4998 18c4 8093 6100 		sts 97,r24
 4999               	.LM746:
 5000 18c8 1092 6100 		sts 97,__zero_reg__
 5001               	.LM747:
 5002 18cc 8091 0000 		lds r24,time_s
 5003 18d0 8F5F      		subi r24,lo8(-(1))
 5004 18d2 8093 0000 		sts time_s,r24
 5005               	.LM748:
 5006 18d6 0E94 0000 		call fix_time
 5007               	.LM749:
 5008 18da 8091 0000 		lds r24,sleepmode
 5009 18de 8823      		tst r24
 5010 18e0 01F0      		breq .+2
 5011 18e2 00C0      		rjmp .L389
 5012               	.LM750:
 5013 18e4 8091 0000 		lds r24,displaymode
 5014 18e8 8823      		tst r24
 5015 18ea 01F4      		brne .L381
 5016               	.LM751:
 5017 18ec 8091 0000 		lds r24,timeunknown
 5018 18f0 8823      		tst r24
 5019 18f2 01F0      		breq .L382
 5020 18f4 8091 0000 		lds r24,time_s
 5021 18f8 80FF      		sbrs r24,0
 5022 18fa 00C0      		rjmp .L382
 5023               	.LM752:
 5024 18fc 80E0      		ldi r24,lo8(.LC24)
 5025 18fe 90E0      		ldi r25,hi8(.LC24)
 5026 1900 0E94 0000 		call display_str
 5027 1904 00C0      		rjmp .L383
 5028               	.L382:
 5029               	.LM753:
 5030 1906 8091 0000 		lds r24,time_h
 5031 190a 6091 0000 		lds r22,time_m
 5032 190e 4091 0000 		lds r20,time_s
 5033 1912 0E94 0000 		call display_time
 5034               	.L383:
 5035               	.LM754:
 5036 1916 8091 0000 		lds r24,alarm_on
 5037 191a 8823      		tst r24
 5038 191c 01F0      		breq .L384
 5039               	.LM755:
 5040 191e 8091 0000 		lds r24,display
 5041 1922 8260      		ori r24,lo8(2)
 5042 1924 00C0      		rjmp .L390
 5043               	.L384:
 5044               	.LM756:
 5045 1926 8091 0000 		lds r24,display
 5046 192a 8D7F      		andi r24,lo8(-3)
 5047               	.L390:
 5048 192c 8093 0000 		sts display,r24
 5049               	.L381:
 5050               	.LBB391:
 5051               	.LBB392:
 5052               	.LM757:
 5053 1930 8091 0000 		lds r24,brightness_level
 5054 1934 8823      		tst r24
 5055 1936 01F4      		brne .L385
 5056               	.LM758:
 5057 1938 8091 7A00 		lds r24,122
 5058 193c 8064      		ori r24,lo8(64)
 5059 193e 8093 7A00 		sts 122,r24
 5060               	.L385:
 5061               	.LBE392:
 5062               	.LBE391:
 5063               	.LM759:
 5064 1942 8091 0000 		lds r24,time_h
 5065 1946 6091 0000 		lds r22,time_m
 5066 194a 4091 0000 		lds r20,time_s
 5067 194e 0E94 0000 		call check_alarm
 5068               	.LM760:
 5069 1952 8091 0000 		lds r24,timeoutcounter
 5070 1956 8823      		tst r24
 5071 1958 01F0      		breq .L386
 5072               	.LM761:
 5073 195a 8091 0000 		lds r24,timeoutcounter
 5074 195e 8150      		subi r24,lo8(-(-1))
 5075 1960 8093 0000 		sts timeoutcounter,r24
 5076               	.L386:
 5077               	.LM762:
 5078 1964 8091 0000 		lds r24,buttonholdcounter
 5079 1968 8823      		tst r24
 5080 196a 01F0      		breq .L387
 5081               	.LM763:
 5082 196c 8091 0000 		lds r24,buttonholdcounter
 5083 1970 8150      		subi r24,lo8(-(-1))
 5084 1972 8093 0000 		sts buttonholdcounter,r24
 5085               	.L387:
 5086               	.LM764:
 5087 1976 8091 0000 		lds r24,snoozetimer
 5088 197a 9091 0000 		lds r25,(snoozetimer)+1
 5089 197e 0097      		sbiw r24,0
 5090 1980 01F0      		breq .L389
 5091               	.LM765:
 5092 1982 0197      		sbiw r24,1
 5093 1984 9093 0000 		sts (snoozetimer)+1,r25
 5094 1988 8093 0000 		sts snoozetimer,r24
 5095               	.LM766:
 5096 198c 80FF      		sbrs r24,0
 5097 198e 00C0      		rjmp .L388
 5098               	.LM767:
 5099 1990 8091 0000 		lds r24,display
 5100 1994 8260      		ori r24,lo8(2)
 5101 1996 00C0      		rjmp .L391
 5102               	.L388:
 5103               	.LM768:
 5104 1998 8091 0000 		lds r24,display
 5105 199c 8D7F      		andi r24,lo8(-3)
 5106               	.L391:
 5107 199e 8093 0000 		sts display,r24
 5108               	.L389:
 5109               	/* epilogue start */
 5110               	.LM769:
 5111 19a2 FF91      		pop r31
 5112 19a4 EF91      		pop r30
 5113 19a6 BF91      		pop r27
 5114 19a8 AF91      		pop r26
 5115 19aa 9F91      		pop r25
 5116 19ac 8F91      		pop r24
 5117 19ae 7F91      		pop r23
 5118 19b0 6F91      		pop r22
 5119 19b2 5F91      		pop r21
 5120 19b4 4F91      		pop r20
 5121 19b6 3F91      		pop r19
 5122 19b8 2F91      		pop r18
 5123 19ba 0F90      		pop r0
 5124 19bc 0FBE      		out __SREG__,r0
 5125 19be 0F90      		pop r0
 5126 19c0 1F90      		pop __zero_reg__
 5127 19c2 1895      		reti
 5128               	.LFE20:
 5130               		.data
 5131               	.LC25:
 5132 00ab 616C 6172 		.string	"alarm on"
 5132      6D20 6F6E 
 5132      00
 5133               		.text
 5134               	.global	setalarmstate
 5136               	setalarmstate:
 5137               	.LFB36:
 5138               	.LM770:
 5139               	/* prologue: function */
 5140               	/* frame size = 0 */
 5141               	.LM771:
 5142 19c4 4A9B      		sbis 41-32,2
 5143 19c6 00C0      		rjmp .L393
 5144               	.LM772:
 5145 19c8 8091 0000 		lds r24,alarm_on
 5146 19cc 8823      		tst r24
 5147 19ce 01F0      		breq .+2
 5148 19d0 00C0      		rjmp .L397
 5149               	.LM773:
 5150 19d2 81E0      		ldi r24,lo8(1)
 5151 19d4 8093 0000 		sts alarm_on,r24
 5152               	.LM774:
 5153 19d8 1092 0000 		sts (snoozetimer)+1,__zero_reg__
 5154 19dc 1092 0000 		sts snoozetimer,__zero_reg__
 5155               	.LM775:
 5156 19e0 80E0      		ldi r24,lo8(.LC25)
 5157 19e2 90E0      		ldi r25,hi8(.LC25)
 5158 19e4 0E94 0000 		call display_str
 5159               	.LM776:
 5160 19e8 89E0      		ldi r24,lo8(9)
 5161 19ea 8093 0000 		sts displaymode,r24
 5162               	.LBB393:
 5163               	.LBB394:
 5164               	.LM777:
 5165               	/* #APP */
 5166               	 ;  117 "iv.c" 1
 5167 19ee 7894      		sei
 5168               	 ;  0 "" 2
 5169               	.LM778:
 5170               	/* #NOAPP */
 5171 19f0 1092 0000 		sts (milliseconds)+1,__zero_reg__
 5172 19f4 1092 0000 		sts milliseconds,__zero_reg__
 5173               	.L395:
 5174               	.LM779:
 5175 19f8 8091 0000 		lds r24,milliseconds
 5176 19fc 9091 0000 		lds r25,(milliseconds)+1
 5177 1a00 885E      		subi r24,lo8(1000)
 5178 1a02 9340      		sbci r25,hi8(1000)
 5179 1a04 00F0      		brlo .L395
 5180               	.LBE394:
 5181               	.LBE393:
 5182               	.LM780:
 5183 1a06 8091 0000 		lds r24,alarm_h
 5184 1a0a 6091 0000 		lds r22,alarm_m
 5185 1a0e 0E94 0000 		call display_alarm
 5186               	.LBB395:
 5187               	.LBB396:
 5188               	.LM781:
 5189               	/* #APP */
 5190               	 ;  117 "iv.c" 1
 5191 1a12 7894      		sei
 5192               	 ;  0 "" 2
 5193               	.LM782:
 5194               	/* #NOAPP */
 5195 1a14 1092 0000 		sts (milliseconds)+1,__zero_reg__
 5196 1a18 1092 0000 		sts milliseconds,__zero_reg__
 5197               	.L396:
 5198               	.LM783:
 5199 1a1c 8091 0000 		lds r24,milliseconds
 5200 1a20 9091 0000 		lds r25,(milliseconds)+1
 5201 1a24 885E      		subi r24,lo8(1000)
 5202 1a26 9340      		sbci r25,hi8(1000)
 5203 1a28 00F0      		brlo .L396
 5204               	.LBE396:
 5205               	.LBE395:
 5206               	.LM784:
 5207 1a2a 1092 0000 		sts displaymode,__zero_reg__
 5208 1a2e 0895      		ret
 5209               	.L393:
 5210               	.LM785:
 5211 1a30 8091 0000 		lds r24,alarm_on
 5212 1a34 8823      		tst r24
 5213 1a36 01F0      		breq .L397
 5214               	.LM786:
 5215 1a38 1092 0000 		sts alarm_on,__zero_reg__
 5216               	.LM787:
 5217 1a3c 1092 0000 		sts (snoozetimer)+1,__zero_reg__
 5218 1a40 1092 0000 		sts snoozetimer,__zero_reg__
 5219               	.LM788:
 5220 1a44 8091 0000 		lds r24,alarming
 5221 1a48 8823      		tst r24
 5222 1a4a 01F0      		breq .L397
 5223               	.LM789:
 5224 1a4c 80E0      		ldi r24,lo8(__c.2571)
 5225 1a4e 90E0      		ldi r25,hi8(__c.2571)
 5226 1a50 61E0      		ldi r22,lo8(1)
 5227 1a52 0E94 0000 		call ROM_putstring
 5228               	.LM790:
 5229 1a56 1092 0000 		sts alarming,__zero_reg__
 5230               	.LM791:
 5231 1a5a 8091 8100 		lds r24,129
 5232 1a5e 8D7F      		andi r24,lo8(-3)
 5233 1a60 8093 8100 		sts 129,r24
 5234               	.LM792:
 5235 1a64 85B1      		in r24,37-32
 5236 1a66 8660      		ori r24,lo8(6)
 5237 1a68 85B9      		out 37-32,r24
 5238               	.L397:
 5239 1a6a 0895      		ret
 5240               	.LFE36:
 5242               	.global	set_date
 5244               	set_date:
 5245               	.LFB29:
 5246               	.LM793:
 5247 1a6c BF92      		push r11
 5248 1a6e CF92      		push r12
 5249 1a70 DF92      		push r13
 5250 1a72 EF92      		push r14
 5251 1a74 FF92      		push r15
 5252 1a76 0F93      		push r16
 5253 1a78 1F93      		push r17
 5254 1a7a CF93      		push r28
 5255 1a7c DF93      		push r29
 5256               	/* prologue: function */
 5257               	/* frame size = 0 */
 5258               	.LM794:
 5259 1a7e 8AE0      		ldi r24,lo8(10)
 5260 1a80 8093 0000 		sts timeoutcounter,r24
 5261 1a84 10E0      		ldi r17,lo8(0)
 5262               	.LVL248:
 5263               	.LM795:
 5264 1a86 0AE0      		ldi r16,lo8(10)
 5265               	.LM796:
 5266 1a88 BB24      		clr r11
 5267 1a8a B394      		inc r11
 5268               	.LVL249:
 5269               	.LBB397:
 5270               	.LBB398:
 5271               	.LM797:
 5272 1a8c B1E0      		ldi r27,lo8(1)
 5273 1a8e EB2E      		mov r14,r27
 5274 1a90 F12C      		mov r15,__zero_reg__
 5275               	.LBE398:
 5276               	.LBE397:
 5277               	.LBB400:
 5278               	.LBB401:
 5279 1a92 A3E0      		ldi r26,lo8(3)
 5280 1a94 CA2E      		mov r12,r26
 5281 1a96 D12C      		mov r13,__zero_reg__
 5282               	.LBE401:
 5283               	.LBE400:
 5284               	.LBB403:
 5285               	.LBB404:
 5286 1a98 C2E0      		ldi r28,lo8(2)
 5287 1a9a D0E0      		ldi r29,hi8(2)
 5288               	.LVL250:
 5289               	.L441:
 5290               	.LBE404:
 5291               	.LBE403:
 5292               	.LM798:
 5293 1a9c 8091 0000 		lds r24,just_pressed
 5294 1aa0 8823      		tst r24
 5295 1aa2 01F4      		brne .L401
 5296 1aa4 8091 0000 		lds r24,pressed
 5297 1aa8 8823      		tst r24
 5298 1aaa 01F0      		breq .L402
 5299               	.L401:
 5300               	.LM799:
 5301 1aac 0093 0000 		sts timeoutcounter,r16
 5302 1ab0 00C0      		rjmp .L403
 5303               	.L402:
 5304               	.LM800:
 5305 1ab2 8091 0000 		lds r24,timeoutcounter
 5306 1ab6 8823      		tst r24
 5307 1ab8 01F4      		brne .+2
 5308 1aba 00C0      		rjmp .L444
 5309               	.L403:
 5310               	.LM801:
 5311 1abc 8091 0000 		lds r24,just_pressed
 5312 1ac0 80FD      		sbrc r24,0
 5313 1ac2 00C0      		rjmp .L433
 5314               	.LM802:
 5315 1ac4 8091 0000 		lds r24,just_pressed
 5316 1ac8 81FF      		sbrs r24,1
 5317 1aca 00C0      		rjmp .L405
 5318               	.LM803:
 5319 1acc 1092 0000 		sts just_pressed,__zero_reg__
 5320               	.LM804:
 5321 1ad0 1123      		tst r17
 5322 1ad2 01F4      		brne .L406
 5323               	.LVL251:
 5324               	.LM805:
 5325 1ad4 8091 0000 		lds r24,region
 5326 1ad8 8823      		tst r24
 5327 1ada 01F4      		brne .L407
 5328 1adc 11E0      		ldi r17,lo8(1)
 5329 1ade 00C0      		rjmp .L408
 5330               	.LVL252:
 5331               	.L407:
 5332               	.LM806:
 5333 1ae0 80E0      		ldi r24,lo8(__c.2308)
 5334 1ae2 90E0      		ldi r25,hi8(__c.2308)
 5335 1ae4 61E0      		ldi r22,lo8(1)
 5336 1ae6 0E94 0000 		call ROM_putstring
 5337 1aea 12E0      		ldi r17,lo8(2)
 5338               	.L408:
 5339               	.LM807:
 5340 1aec 80E0      		ldi r24,lo8(0)
 5341 1aee 0E94 0000 		call display_date
 5342               	.LM808:
 5343 1af2 8091 0000 		lds r24,display+1
 5344 1af6 8160      		ori r24,lo8(1)
 5345 1af8 8093 0000 		sts display+1,r24
 5346               	.LM809:
 5347 1afc 8091 0000 		lds r24,display+2
 5348 1b00 8160      		ori r24,lo8(1)
 5349 1b02 8093 0000 		sts display+2,r24
 5350 1b06 00C0      		rjmp .L405
 5351               	.LVL253:
 5352               	.L406:
 5353               	.LM810:
 5354 1b08 1130      		cpi r17,lo8(1)
 5355 1b0a 01F4      		brne .L409
 5356 1b0c 8091 0000 		lds r24,region
 5357 1b10 8823      		tst r24
 5358 1b12 01F0      		breq .L410
 5359 1b14 00C0      		rjmp .L442
 5360               	.L409:
 5361 1b16 1230      		cpi r17,lo8(2)
 5362 1b18 01F4      		brne .L411
 5363 1b1a 8091 0000 		lds r24,region
 5364 1b1e 8130      		cpi r24,lo8(1)
 5365 1b20 01F4      		brne .L412
 5366               	.L410:
 5367               	.LM811:
 5368 1b22 8091 0000 		lds r24,region
 5369 1b26 8823      		tst r24
 5370 1b28 01F0      		breq .L413
 5371 1b2a 11E0      		ldi r17,lo8(1)
 5372 1b2c 00C0      		rjmp .L414
 5373               	.LVL254:
 5374               	.L413:
 5375 1b2e 12E0      		ldi r17,lo8(2)
 5376               	.L414:
 5377               	.LM812:
 5378 1b30 80E0      		ldi r24,lo8(0)
 5379 1b32 0E94 0000 		call display_date
 5380               	.LM813:
 5381 1b36 8091 0000 		lds r24,display+4
 5382 1b3a 8160      		ori r24,lo8(1)
 5383 1b3c 8093 0000 		sts display+4,r24
 5384               	.LM814:
 5385 1b40 8091 0000 		lds r24,display+5
 5386 1b44 8160      		ori r24,lo8(1)
 5387 1b46 8093 0000 		sts display+5,r24
 5388 1b4a 00C0      		rjmp .L405
 5389               	.LVL255:
 5390               	.L412:
 5391               	.LM815:
 5392 1b4c 8823      		tst r24
 5393 1b4e 01F0      		breq .L415
 5394 1b50 00C0      		rjmp .L416
 5395               	.L411:
 5396 1b52 1130      		cpi r17,lo8(1)
 5397 1b54 01F4      		brne .L416
 5398               	.L442:
 5399 1b56 8091 0000 		lds r24,region
 5400 1b5a 8130      		cpi r24,lo8(1)
 5401 1b5c 01F4      		brne .L416
 5402               	.L415:
 5403               	.LM816:
 5404 1b5e 80E0      		ldi r24,lo8(0)
 5405 1b60 0E94 0000 		call display_date
 5406               	.LM817:
 5407 1b64 8091 0000 		lds r24,display+7
 5408 1b68 8160      		ori r24,lo8(1)
 5409 1b6a 8093 0000 		sts display+7,r24
 5410               	.LM818:
 5411 1b6e 8091 0000 		lds r24,display+8
 5412 1b72 8160      		ori r24,lo8(1)
 5413 1b74 8093 0000 		sts display+8,r24
 5414 1b78 13E0      		ldi r17,lo8(3)
 5415 1b7a 00C0      		rjmp .L405
 5416               	.LVL256:
 5417               	.L416:
 5418               	.LM819:
 5419 1b7c 83E6      		ldi r24,lo8(99)
 5420 1b7e 8093 0000 		sts displaymode,r24
 5421               	.LM820:
 5422 1b82 80E0      		ldi r24,lo8(0)
 5423 1b84 0E94 0000 		call display_date
 5424               	.LBB406:
 5425               	.LBB407:
 5426               	.LM821:
 5427               	/* #APP */
 5428               	 ;  117 "iv.c" 1
 5429 1b88 7894      		sei
 5430               	 ;  0 "" 2
 5431               	.LM822:
 5432               	/* #NOAPP */
 5433 1b8a 1092 0000 		sts (milliseconds)+1,__zero_reg__
 5434 1b8e 1092 0000 		sts milliseconds,__zero_reg__
 5435               	.L417:
 5436               	.LM823:
 5437 1b92 8091 0000 		lds r24,milliseconds
 5438 1b96 9091 0000 		lds r25,(milliseconds)+1
 5439 1b9a 8C5D      		subi r24,lo8(1500)
 5440 1b9c 9540      		sbci r25,hi8(1500)
 5441 1b9e 00F0      		brlo .L417
 5442               	.L444:
 5443               	.LBE407:
 5444               	.LBE406:
 5445               	.LM824:
 5446 1ba0 1092 0000 		sts displaymode,__zero_reg__
 5447 1ba4 00C0      		rjmp .L433
 5448               	.L405:
 5449               	.LM825:
 5450 1ba6 8091 0000 		lds r24,just_pressed
 5451 1baa 82FD      		sbrc r24,2
 5452 1bac 00C0      		rjmp .L418
 5453 1bae 8091 0000 		lds r24,pressed
 5454 1bb2 82FF      		sbrs r24,2
 5455 1bb4 00C0      		rjmp .L441
 5456               	.L418:
 5457               	.LM826:
 5458 1bb6 1092 0000 		sts just_pressed,__zero_reg__
 5459               	.LM827:
 5460 1bba 1130      		cpi r17,lo8(1)
 5461 1bbc 01F4      		brne .L420
 5462               	.LM828:
 5463 1bbe 8091 0000 		lds r24,date_m
 5464 1bc2 8F5F      		subi r24,lo8(-(1))
 5465 1bc4 8093 0000 		sts date_m,r24
 5466               	.LM829:
 5467 1bc8 8091 0000 		lds r24,date_m
 5468 1bcc 8D30      		cpi r24,lo8(13)
 5469 1bce 04F0      		brlt .L421
 5470               	.LM830:
 5471 1bd0 1093 0000 		sts date_m,r17
 5472               	.L421:
 5473               	.LM831:
 5474 1bd4 80E0      		ldi r24,lo8(0)
 5475 1bd6 0E94 0000 		call display_date
 5476               	.LM832:
 5477 1bda 8091 0000 		lds r24,region
 5478 1bde 8823      		tst r24
 5479 1be0 01F4      		brne .L422
 5480               	.LM833:
 5481 1be2 8091 0000 		lds r24,display+1
 5482 1be6 8160      		ori r24,lo8(1)
 5483 1be8 8093 0000 		sts display+1,r24
 5484               	.LM834:
 5485 1bec 8091 0000 		lds r24,display+2
 5486 1bf0 8160      		ori r24,lo8(1)
 5487 1bf2 8093 0000 		sts display+2,r24
 5488 1bf6 00C0      		rjmp .L423
 5489               	.L422:
 5490               	.LM835:
 5491 1bf8 8091 0000 		lds r24,display+4
 5492 1bfc 8160      		ori r24,lo8(1)
 5493 1bfe 8093 0000 		sts display+4,r24
 5494               	.LM836:
 5495 1c02 8091 0000 		lds r24,display+5
 5496 1c06 8160      		ori r24,lo8(1)
 5497 1c08 8093 0000 		sts display+5,r24
 5498               	.L423:
 5499               	.LM837:
 5500 1c0c 8091 0000 		lds r24,date_m
 5501               	.L424:
 5502               	.LBB408:
 5503               	.LBB405:
 5504               	.LM838:
 5505 1c10 F999      		sbic 63-32,1
 5506 1c12 00C0      		rjmp .L424
 5507               	.LM839:
 5508 1c14 1FBA      		out 63-32,__zero_reg__
 5509               	.LM840:
 5510 1c16 D2BD      		out (65)+1-32,r29
 5511 1c18 C1BD      		out 65-32,r28
 5512 1c1a 00C0      		rjmp .L443
 5513               	.L420:
 5514               	.LBE405:
 5515               	.LBE408:
 5516               	.LM841:
 5517 1c1c 1230      		cpi r17,lo8(2)
 5518 1c1e 01F4      		brne .L425
 5519               	.LM842:
 5520 1c20 8091 0000 		lds r24,date_d
 5521 1c24 8F5F      		subi r24,lo8(-(1))
 5522 1c26 8093 0000 		sts date_d,r24
 5523               	.LM843:
 5524 1c2a 8091 0000 		lds r24,date_d
 5525 1c2e 8032      		cpi r24,lo8(32)
 5526 1c30 04F0      		brlt .L426
 5527               	.LM844:
 5528 1c32 B092 0000 		sts date_d,r11
 5529               	.L426:
 5530               	.LM845:
 5531 1c36 80E0      		ldi r24,lo8(0)
 5532 1c38 0E94 0000 		call display_date
 5533               	.LM846:
 5534 1c3c 8091 0000 		lds r24,region
 5535 1c40 8130      		cpi r24,lo8(1)
 5536 1c42 01F4      		brne .L427
 5537               	.LM847:
 5538 1c44 8091 0000 		lds r24,display+1
 5539 1c48 8160      		ori r24,lo8(1)
 5540 1c4a 8093 0000 		sts display+1,r24
 5541               	.LM848:
 5542 1c4e 8091 0000 		lds r24,display+2
 5543 1c52 8160      		ori r24,lo8(1)
 5544 1c54 8093 0000 		sts display+2,r24
 5545 1c58 00C0      		rjmp .L428
 5546               	.L427:
 5547               	.LM849:
 5548 1c5a 8091 0000 		lds r24,display+4
 5549 1c5e 8160      		ori r24,lo8(1)
 5550 1c60 8093 0000 		sts display+4,r24
 5551               	.LM850:
 5552 1c64 8091 0000 		lds r24,display+5
 5553 1c68 8160      		ori r24,lo8(1)
 5554 1c6a 8093 0000 		sts display+5,r24
 5555               	.L428:
 5556               	.LM851:
 5557 1c6e 8091 0000 		lds r24,date_d
 5558               	.L429:
 5559               	.LBB409:
 5560               	.LBB402:
 5561               	.LM852:
 5562 1c72 F999      		sbic 63-32,1
 5563 1c74 00C0      		rjmp .L429
 5564               	.LM853:
 5565 1c76 1FBA      		out 63-32,__zero_reg__
 5566               	.LM854:
 5567 1c78 D2BC      		out (65)+1-32,r13
 5568 1c7a C1BC      		out 65-32,r12
 5569 1c7c 00C0      		rjmp .L443
 5570               	.L425:
 5571               	.LBE402:
 5572               	.LBE409:
 5573               	.LM855:
 5574 1c7e 1330      		cpi r17,lo8(3)
 5575 1c80 01F4      		brne .L430
 5576               	.LM856:
 5577 1c82 8091 0000 		lds r24,date_y
 5578 1c86 8F5F      		subi r24,lo8(-(1))
 5579 1c88 8093 0000 		sts date_y,r24
 5580               	.LM857:
 5581 1c8c 8091 0000 		lds r24,date_y
 5582 1c90 64E6      		ldi r22,lo8(100)
 5583 1c92 0E94 0000 		call __divmodqi4
 5584 1c96 9093 0000 		sts date_y,r25
 5585               	.LM858:
 5586 1c9a 80E0      		ldi r24,lo8(0)
 5587 1c9c 0E94 0000 		call display_date
 5588               	.LM859:
 5589 1ca0 8091 0000 		lds r24,display+7
 5590 1ca4 8160      		ori r24,lo8(1)
 5591 1ca6 8093 0000 		sts display+7,r24
 5592               	.LM860:
 5593 1caa 8091 0000 		lds r24,display+8
 5594 1cae 8160      		ori r24,lo8(1)
 5595 1cb0 8093 0000 		sts display+8,r24
 5596               	.LM861:
 5597 1cb4 8091 0000 		lds r24,date_y
 5598               	.L431:
 5599               	.LBB410:
 5600               	.LBB399:
 5601               	.LM862:
 5602 1cb8 F999      		sbic 63-32,1
 5603 1cba 00C0      		rjmp .L431
 5604               	.LM863:
 5605 1cbc 1FBA      		out 63-32,__zero_reg__
 5606               	.LM864:
 5607 1cbe F2BC      		out (65)+1-32,r15
 5608 1cc0 E1BC      		out 65-32,r14
 5609               	.L443:
 5610               	.LM865:
 5611 1cc2 80BD      		out 64-32,r24
 5612               	.LM866:
 5613               	/* #APP */
 5614               	 ;  324 "/Applications/Arduino.app/Contents/Resources/Java/hardware/tools/avr/bin/../lib/gcc/avr/4.
 5615               		/* START EEPROM WRITE CRITICAL SECTION */
 5616 1cc4 0FB6      		in	r0, 63		
 5617 1cc6 F894      		cli				
 5618 1cc8 FA9A      		sbi	31, 2	
 5619 1cca F99A      		sbi	31, 1	
 5620 1ccc 0FBE      		out	63, r0		
 5621               		/* END EEPROM WRITE CRITICAL SECTION */
 5622               	 ;  0 "" 2
 5623               	/* #NOAPP */
 5624               	.L430:
 5625               	.LBE399:
 5626               	.LBE410:
 5627               	.LM867:
 5628 1cce 8091 0000 		lds r24,pressed
 5629 1cd2 82FF      		sbrs r24,2
 5630 1cd4 00C0      		rjmp .L441
 5631               	.LBB411:
 5632               	.LBB412:
 5633               	.LM868:
 5634               	/* #APP */
 5635               	 ;  117 "iv.c" 1
 5636 1cd6 7894      		sei
 5637               	 ;  0 "" 2
 5638               	.LM869:
 5639               	/* #NOAPP */
 5640 1cd8 1092 0000 		sts (milliseconds)+1,__zero_reg__
 5641 1cdc 1092 0000 		sts milliseconds,__zero_reg__
 5642               	.L432:
 5643               	.LM870:
 5644 1ce0 8091 0000 		lds r24,milliseconds
 5645 1ce4 9091 0000 		lds r25,(milliseconds)+1
 5646 1ce8 CC97      		sbiw r24,60
 5647 1cea 00F0      		brlo .L432
 5648 1cec 00C0      		rjmp .L441
 5649               	.LVL257:
 5650               	.L433:
 5651               	/* epilogue start */
 5652               	.LBE412:
 5653               	.LBE411:
 5654               	.LM871:
 5655 1cee DF91      		pop r29
 5656 1cf0 CF91      		pop r28
 5657 1cf2 1F91      		pop r17
 5658 1cf4 0F91      		pop r16
 5659 1cf6 FF90      		pop r15
 5660 1cf8 EF90      		pop r14
 5661 1cfa DF90      		pop r13
 5662 1cfc CF90      		pop r12
 5663 1cfe BF90      		pop r11
 5664               	.LVL258:
 5665 1d00 0895      		ret
 5666               	.LFE29:
 5668               	.global	wakeup
 5670               	wakeup:
 5671               	.LFB24:
 5672               	.LM872:
 5673               	/* prologue: function */
 5674               	/* frame size = 0 */
 5675               	.LM873:
 5676 1d02 8091 0000 		lds r24,sleepmode
 5677 1d06 8823      		tst r24
 5678 1d08 01F4      		brne .+2
 5679 1d0a 00C0      		rjmp .L449
 5680               	.LM874:
 5681 1d0c 80E8      		ldi r24,lo8(-128)
 5682 1d0e 8093 6100 		sts 97,r24
 5683               	.LM875:
 5684 1d12 1092 6100 		sts 97,__zero_reg__
 5685               	.LM876:
 5686 1d16 80E0      		ldi r24,lo8(__c.2077)
 5687 1d18 90E0      		ldi r25,hi8(__c.2077)
 5688 1d1a 61E0      		ldi r22,lo8(1)
 5689 1d1c 0E94 0000 		call ROM_putstring
 5690               	.LM877:
 5691 1d20 1092 0000 		sts sleepmode,__zero_reg__
 5692               	.LBB413:
 5693               	.LBB414:
 5694               	.LBB415:
 5695               	.LBB416:
 5696               	.LM878:
 5697 1d24 80E4      		ldi r24,lo8(-25536)
 5698 1d26 9CE9      		ldi r25,hi8(-25536)
 5699               	.LVL259:
 5700               	/* #APP */
 5701               	 ;  105 "/Applications/Arduino.app/Contents/Resources/Java/hardware/tools/avr/bin/../lib/gcc/avr/4.
 5702 1d28 0197      		1: sbiw r24,1
 5703 1d2a 01F4      		brne 1b
 5704               	 ;  0 "" 2
 5705               	/* #NOAPP */
 5706               	.LBE416:
 5707               	.LBE415:
 5708               	.LBE414:
 5709               	.LBE413:
 5710               	.LM879:
 5711 1d2c 00B6      		in __tmp_reg__,80-32
 5712 1d2e 05FC      		sbrc __tmp_reg__,5
 5713 1d30 00C0      		rjmp .L449
 5714               	.LBB417:
 5715               	.LBB418:
 5716               	.LM880:
 5717 1d32 8EE2      		ldi r24,lo8(46)
 5718               	.LVL260:
 5719 1d34 84B9      		out 36-32,r24
 5720               	.LM881:
 5721 1d36 88E4      		ldi r24,lo8(72)
 5722 1d38 8AB9      		out 42-32,r24
 5723               	.LM882:
 5724 1d3a 89E0      		ldi r24,lo8(9)
 5725 1d3c 87B9      		out 39-32,r24
 5726               	.LM883:
 5727 1d3e 84E3      		ldi r24,lo8(52)
 5728 1d40 8BB9      		out 43-32,r24
 5729               	.LM884:
 5730 1d42 91E0      		ldi r25,lo8(1)
 5731 1d44 95B9      		out 37-32,r25
 5732               	.LM885:
 5733 1d46 85E0      		ldi r24,lo8(5)
 5734 1d48 8093 6800 		sts 104,r24
 5735               	.LM886:
 5736 1d4c 9093 6B00 		sts 107,r25
 5737               	.LM887:
 5738 1d50 80E3      		ldi r24,lo8(48)
 5739 1d52 8093 6D00 		sts 109,r24
 5740               	.LBE418:
 5741               	.LBE417:
 5742               	.LM888:
 5743 1d56 0E94 0000 		call dimmer_init
 5744               	.L447:
 5745               	.LBB419:
 5746               	.LBB420:
 5747               	.LM889:
 5748 1d5a F999      		sbic 63-32,1
 5749 1d5c 00C0      		rjmp .L447
 5750               	.LM890:
 5751 1d5e 89E0      		ldi r24,lo8(9)
 5752 1d60 90E0      		ldi r25,hi8(9)
 5753 1d62 92BD      		out (65)+1-32,r25
 5754 1d64 81BD      		out 65-32,r24
 5755               	.LM891:
 5756               	/* #APP */
 5757               	 ;  208 "/Applications/Arduino.app/Contents/Resources/Java/hardware/tools/avr/bin/../lib/gcc/avr/4.
 5758               		/* START EEPROM READ CRITICAL SECTION */ 
 5759 1d66 F89A      		sbi 31, 0 
 5760 1d68 80B5      		in r24, 32 
 5761               		/* END EEPROM READ CRITICAL SECTION */ 
 5762               		
 5763               	 ;  0 "" 2
 5764               	.LVL261:
 5765               	/* #NOAPP */
 5766               	.LBE420:
 5767               	.LBE419:
 5768               	.LM892:
 5769 1d6a 8093 0000 		sts brightness_level,r24
 5770               	.LM893:
 5771 1d6e 8091 0000 		lds r24,brightness_level
 5772               	.LVL262:
 5773 1d72 0E94 0000 		call boost_init
 5774               	.LBB421:
 5775               	.LBB422:
 5776               	.LM894:
 5777 1d76 81E5      		ldi r24,lo8(81)
 5778 1d78 8CBD      		out 76-32,r24
 5779               	.LBE422:
 5780               	.LBE421:
 5781               	.LM895:
 5782 1d7a 5B98      		cbi 43-32,3
 5783               	.LM896:
 5784 1d7c 4398      		cbi 40-32,3
 5785               	.L448:
 5786               	.LBB423:
 5787               	.LBB424:
 5788               	.LM897:
 5789 1d7e F999      		sbic 63-32,1
 5790 1d80 00C0      		rjmp .L448
 5791               	.LM898:
 5792 1d82 8AE0      		ldi r24,lo8(10)
 5793 1d84 90E0      		ldi r25,hi8(10)
 5794 1d86 92BD      		out (65)+1-32,r25
 5795 1d88 81BD      		out 65-32,r24
 5796               	.LM899:
 5797               	/* #APP */
 5798               	 ;  208 "/Applications/Arduino.app/Contents/Resources/Java/hardware/tools/avr/bin/../lib/gcc/avr/4.
 5799               		/* START EEPROM READ CRITICAL SECTION */ 
 5800 1d8a F89A      		sbi 31, 0 
 5801 1d8c 80B5      		in r24, 32 
 5802               		/* END EEPROM READ CRITICAL SECTION */ 
 5803               		
 5804               	 ;  0 "" 2
 5805               	.LVL263:
 5806               	/* #NOAPP */
 5807               	.LBE424:
 5808               	.LBE423:
 5809               	.LM900:
 5810 1d8e 8093 0000 		sts volume,r24
 5811               	.LM901:
 5812 1d92 0E94 0000 		call speaker_init
 5813               	.LVL264:
 5814               	.LBB425:
 5815               	.LBB426:
 5816               	.LM902:
 5817               	/* #APP */
 5818               	 ;  139 "iv.c" 1
 5819 1d96 A895      		wdr
 5820               	 ;  0 "" 2
 5821               	/* #NOAPP */
 5822               	.LBE426:
 5823               	.LBE425:
 5824               	.LM903:
 5825 1d98 0E94 0000 		call setalarmstate
 5826               	.LM904:
 5827 1d9c 80E7      		ldi r24,lo8(880)
 5828 1d9e 93E0      		ldi r25,hi8(880)
 5829 1da0 61E0      		ldi r22,lo8(1)
 5830 1da2 0E94 0000 		call beep
 5831               	.LM905:
 5832 1da6 80EE      		ldi r24,lo8(1760)
 5833 1da8 96E0      		ldi r25,hi8(1760)
 5834 1daa 61E0      		ldi r22,lo8(1)
 5835 1dac 0E94 0000 		call beep
 5836               	.LM906:
 5837 1db0 80EC      		ldi r24,lo8(3520)
 5838 1db2 9DE0      		ldi r25,hi8(3520)
 5839 1db4 61E0      		ldi r22,lo8(1)
 5840 1db6 0E94 0000 		call beep
 5841               	.LBB427:
 5842               	.LBB428:
 5843               	.LM907:
 5844               	/* #APP */
 5845               	 ;  139 "iv.c" 1
 5846 1dba A895      		wdr
 5847               	 ;  0 "" 2
 5848               	.LVL265:
 5849               	/* #NOAPP */
 5850               	.L449:
 5851 1dbc 0895      		ret
 5852               	.LBE428:
 5853               	.LBE427:
 5854               	.LFE24:
 5856               	.global	__vector_23
 5858               	__vector_23:
 5859               	.LFB22:
 5860               	.LM908:
 5861 1dbe 1F92      		push __zero_reg__
 5862 1dc0 0F92      		push r0
 5863 1dc2 0FB6      		in r0,__SREG__
 5864 1dc4 0F92      		push r0
 5865 1dc6 1124      		clr __zero_reg__
 5866 1dc8 2F93      		push r18
 5867 1dca 3F93      		push r19
 5868 1dcc 4F93      		push r20
 5869 1dce 5F93      		push r21
 5870 1dd0 6F93      		push r22
 5871 1dd2 7F93      		push r23
 5872 1dd4 8F93      		push r24
 5873 1dd6 9F93      		push r25
 5874 1dd8 AF93      		push r26
 5875 1dda BF93      		push r27
 5876 1ddc EF93      		push r30
 5877 1dde FF93      		push r31
 5878               	/* prologue: Signal */
 5879               	/* frame size = 0 */
 5880               	.LM909:
 5881 1de0 00B6      		in __tmp_reg__,80-32
 5882 1de2 05FE      		sbrs __tmp_reg__,5
 5883 1de4 00C0      		rjmp .L453
 5884               	.LM910:
 5885 1de6 8091 0000 		lds r24,sleepmode
 5886 1dea 8823      		tst r24
 5887 1dec 01F0      		breq .+2
 5888 1dee 00C0      		rjmp .L461
 5889               	.LM911:
 5890 1df0 5B9A      		sbi 43-32,3
 5891               	.LM912:
 5892 1df2 85B1      		in r24,37-32
 5893 1df4 877D      		andi r24,lo8(-41)
 5894 1df6 85B9      		out 37-32,r24
 5895               	.LM913:
 5896 1df8 5E98      		cbi 43-32,6
 5897               	.LM914:
 5898 1dfa 8CB5      		in r24,76-32
 5899 1dfc 8F7B      		andi r24,lo8(-65)
 5900 1dfe 8CBD      		out 76-32,r24
 5901               	.LM915:
 5902 1e00 8091 0000 		lds r24,restored
 5903 1e04 8823      		tst r24
 5904 1e06 01F0      		breq .L455
 5905               	.LM916:
 5906 1e08 2091 0000 		lds r18,time_m
 5907               	.L456:
 5908               	.LBB429:
 5909               	.LBB430:
 5910               	.LM917:
 5911 1e0c F999      		sbic 63-32,1
 5912 1e0e 00C0      		rjmp .L456
 5913               	.LM918:
 5914 1e10 1FBA      		out 63-32,__zero_reg__
 5915               	.LM919:
 5916 1e12 85E0      		ldi r24,lo8(5)
 5917 1e14 90E0      		ldi r25,hi8(5)
 5918 1e16 92BD      		out (65)+1-32,r25
 5919 1e18 81BD      		out 65-32,r24
 5920               	.LM920:
 5921 1e1a 20BD      		out 64-32,r18
 5922               	.LM921:
 5923               	/* #APP */
 5924               	 ;  324 "/Applications/Arduino.app/Contents/Resources/Java/hardware/tools/avr/bin/../lib/gcc/avr/4.
 5925               		/* START EEPROM WRITE CRITICAL SECTION */
 5926 1e1c 0FB6      		in	r0, 63		
 5927 1e1e F894      		cli				
 5928 1e20 FA9A      		sbi	31, 2	
 5929 1e22 F99A      		sbi	31, 1	
 5930 1e24 0FBE      		out	63, r0		
 5931               		/* END EEPROM WRITE CRITICAL SECTION */
 5932               	 ;  0 "" 2
 5933               	/* #NOAPP */
 5934               	.LBE430:
 5935               	.LBE429:
 5936               	.LM922:
 5937 1e26 2091 0000 		lds r18,time_s
 5938               	.L457:
 5939               	.LBB431:
 5940               	.LBB432:
 5941               	.LM923:
 5942 1e2a F999      		sbic 63-32,1
 5943 1e2c 00C0      		rjmp .L457
 5944               	.LM924:
 5945 1e2e 1FBA      		out 63-32,__zero_reg__
 5946               	.LM925:
 5947 1e30 86E0      		ldi r24,lo8(6)
 5948 1e32 90E0      		ldi r25,hi8(6)
 5949 1e34 92BD      		out (65)+1-32,r25
 5950 1e36 81BD      		out 65-32,r24
 5951               	.LM926:
 5952 1e38 20BD      		out 64-32,r18
 5953               	.LM927:
 5954               	/* #APP */
 5955               	 ;  324 "/Applications/Arduino.app/Contents/Resources/Java/hardware/tools/avr/bin/../lib/gcc/avr/4.
 5956               		/* START EEPROM WRITE CRITICAL SECTION */
 5957 1e3a 0FB6      		in	r0, 63		
 5958 1e3c F894      		cli				
 5959 1e3e FA9A      		sbi	31, 2	
 5960 1e40 F99A      		sbi	31, 1	
 5961 1e42 0FBE      		out	63, r0		
 5962               		/* END EEPROM WRITE CRITICAL SECTION */
 5963               	 ;  0 "" 2
 5964               	/* #NOAPP */
 5965               	.L455:
 5966               	.LBE432:
 5967               	.LBE431:
 5968               	.LM928:
 5969 1e44 80E0      		ldi r24,lo8(__c.1993)
 5970 1e46 90E0      		ldi r25,hi8(__c.1993)
 5971 1e48 61E0      		ldi r22,lo8(1)
 5972 1e4a 0E94 0000 		call ROM_putstring
 5973               	.LM929:
 5974 1e4e 15BC      		out 69-32,__zero_reg__
 5975               	.LM930:
 5976 1e50 1092 0000 		sts volume,__zero_reg__
 5977               	.LM931:
 5978 1e54 1092 6800 		sts 104,__zero_reg__
 5979               	.LM932:
 5980 1e58 4598      		cbi 40-32,5
 5981 1e5a 00C0      		rjmp .L466
 5982               	.L453:
 5983               	.LM933:
 5984 1e5c 8091 0000 		lds r24,sleepmode
 5985 1e60 8823      		tst r24
 5986 1e62 01F0      		breq .L461
 5987               	.LM934:
 5988 1e64 8091 0000 		lds r24,restored
 5989 1e68 8823      		tst r24
 5990 1e6a 01F0      		breq .L458
 5991               	.LM935:
 5992 1e6c 2091 0000 		lds r18,time_m
 5993               	.L459:
 5994               	.LBB433:
 5995               	.LBB434:
 5996               	.LM936:
 5997 1e70 F999      		sbic 63-32,1
 5998 1e72 00C0      		rjmp .L459
 5999               	.LM937:
 6000 1e74 1FBA      		out 63-32,__zero_reg__
 6001               	.LM938:
 6002 1e76 85E0      		ldi r24,lo8(5)
 6003 1e78 90E0      		ldi r25,hi8(5)
 6004 1e7a 92BD      		out (65)+1-32,r25
 6005 1e7c 81BD      		out 65-32,r24
 6006               	.LM939:
 6007 1e7e 20BD      		out 64-32,r18
 6008               	.LM940:
 6009               	/* #APP */
 6010               	 ;  324 "/Applications/Arduino.app/Contents/Resources/Java/hardware/tools/avr/bin/../lib/gcc/avr/4.
 6011               		/* START EEPROM WRITE CRITICAL SECTION */
 6012 1e80 0FB6      		in	r0, 63		
 6013 1e82 F894      		cli				
 6014 1e84 FA9A      		sbi	31, 2	
 6015 1e86 F99A      		sbi	31, 1	
 6016 1e88 0FBE      		out	63, r0		
 6017               		/* END EEPROM WRITE CRITICAL SECTION */
 6018               	 ;  0 "" 2
 6019               	/* #NOAPP */
 6020               	.LBE434:
 6021               	.LBE433:
 6022               	.LM941:
 6023 1e8a 2091 0000 		lds r18,time_s
 6024               	.L460:
 6025               	.LBB435:
 6026               	.LBB436:
 6027               	.LM942:
 6028 1e8e F999      		sbic 63-32,1
 6029 1e90 00C0      		rjmp .L460
 6030               	.LM943:
 6031 1e92 1FBA      		out 63-32,__zero_reg__
 6032               	.LM944:
 6033 1e94 86E0      		ldi r24,lo8(6)
 6034 1e96 90E0      		ldi r25,hi8(6)
 6035 1e98 92BD      		out (65)+1-32,r25
 6036 1e9a 81BD      		out 65-32,r24
 6037               	.LM945:
 6038 1e9c 20BD      		out 64-32,r18
 6039               	.LM946:
 6040               	/* #APP */
 6041               	 ;  324 "/Applications/Arduino.app/Contents/Resources/Java/hardware/tools/avr/bin/../lib/gcc/avr/4.
 6042               		/* START EEPROM WRITE CRITICAL SECTION */
 6043 1e9e 0FB6      		in	r0, 63		
 6044 1ea0 F894      		cli				
 6045 1ea2 FA9A      		sbi	31, 2	
 6046 1ea4 F99A      		sbi	31, 1	
 6047 1ea6 0FBE      		out	63, r0		
 6048               		/* END EEPROM WRITE CRITICAL SECTION */
 6049               	 ;  0 "" 2
 6050               	/* #NOAPP */
 6051               	.L458:
 6052               	.LBE436:
 6053               	.LBE435:
 6054               	.LM947:
 6055 1ea8 80E0      		ldi r24,lo8(__c.1995)
 6056 1eaa 90E0      		ldi r25,hi8(__c.1995)
 6057 1eac 61E0      		ldi r22,lo8(1)
 6058 1eae 0E94 0000 		call ROM_putstring
 6059               	.L466:
 6060               	.LM948:
 6061 1eb2 E091 0000 		lds r30,app_start
 6062 1eb6 F091 0000 		lds r31,(app_start)+1
 6063 1eba 0995      		icall
 6064               	.L461:
 6065               	/* epilogue start */
 6066               	.LM949:
 6067 1ebc FF91      		pop r31
 6068 1ebe EF91      		pop r30
 6069 1ec0 BF91      		pop r27
 6070 1ec2 AF91      		pop r26
 6071 1ec4 9F91      		pop r25
 6072 1ec6 8F91      		pop r24
 6073 1ec8 7F91      		pop r23
 6074 1eca 6F91      		pop r22
 6075 1ecc 5F91      		pop r21
 6076 1ece 4F91      		pop r20
 6077 1ed0 3F91      		pop r19
 6078 1ed2 2F91      		pop r18
 6079 1ed4 0F90      		pop r0
 6080 1ed6 0FBE      		out __SREG__,r0
 6081 1ed8 0F90      		pop r0
 6082 1eda 1F90      		pop __zero_reg__
 6083 1edc 1895      		reti
 6084               	.LFE22:
 6086               		.data
 6087               	.LC26:
 6088 00b4 736E 6F6F 		.string	"snoozing"
 6088      7A69 6E67 
 6088      00
 6089               		.text
 6090               	.global	setsnooze
 6092               	setsnooze:
 6093               	.LFB15:
 6094               	.LM950:
 6095               	/* prologue: function */
 6096               	/* frame size = 0 */
 6097               	.LM951:
 6098 1ede 88E5      		ldi r24,lo8(600)
 6099 1ee0 92E0      		ldi r25,hi8(600)
 6100 1ee2 9093 0000 		sts (snoozetimer)+1,r25
 6101 1ee6 8093 0000 		sts snoozetimer,r24
 6102               	.LM952:
 6103 1eea 80E0      		ldi r24,lo8(__c.1804)
 6104 1eec 90E0      		ldi r25,hi8(__c.1804)
 6105 1eee 61E0      		ldi r22,lo8(1)
 6106 1ef0 0E94 0000 		call ROM_putstring
 6107               	.LM953:
 6108 1ef4 80E0      		ldi r24,lo8(.LC26)
 6109 1ef6 90E0      		ldi r25,hi8(.LC26)
 6110 1ef8 0E94 0000 		call display_str
 6111               	.LM954:
 6112 1efc 89E0      		ldi r24,lo8(9)
 6113 1efe 8093 0000 		sts displaymode,r24
 6114               	.LBB437:
 6115               	.LBB438:
 6116               	.LM955:
 6117               	/* #APP */
 6118               	 ;  117 "iv.c" 1
 6119 1f02 7894      		sei
 6120               	 ;  0 "" 2
 6121               	.LM956:
 6122               	/* #NOAPP */
 6123 1f04 1092 0000 		sts (milliseconds)+1,__zero_reg__
 6124 1f08 1092 0000 		sts milliseconds,__zero_reg__
 6125               	.L468:
 6126               	.LM957:
 6127 1f0c 8091 0000 		lds r24,milliseconds
 6128 1f10 9091 0000 		lds r25,(milliseconds)+1
 6129 1f14 885E      		subi r24,lo8(1000)
 6130 1f16 9340      		sbci r25,hi8(1000)
 6131 1f18 00F0      		brlo .L468
 6132               	.LBE438:
 6133               	.LBE437:
 6134               	.LM958:
 6135 1f1a 1092 0000 		sts displaymode,__zero_reg__
 6136               	/* epilogue start */
 6137               	.LM959:
 6138 1f1e 0895      		ret
 6139               	.LFE15:
 6141               	.global	__vector_3
 6143               	__vector_3:
 6144               	.LFB19:
 6145               	.LM960:
 6146 1f20 1F92      		push __zero_reg__
 6147 1f22 0F92      		push r0
 6148 1f24 0FB6      		in r0,__SREG__
 6149 1f26 0F92      		push r0
 6150 1f28 1124      		clr __zero_reg__
 6151 1f2a 2F93      		push r18
 6152 1f2c 3F93      		push r19
 6153 1f2e 4F93      		push r20
 6154 1f30 5F93      		push r21
 6155 1f32 6F93      		push r22
 6156 1f34 7F93      		push r23
 6157 1f36 8F93      		push r24
 6158 1f38 9F93      		push r25
 6159 1f3a AF93      		push r26
 6160 1f3c BF93      		push r27
 6161 1f3e EF93      		push r30
 6162 1f40 FF93      		push r31
 6163               	/* prologue: Signal */
 6164               	/* frame size = 0 */
 6165               	.LM961:
 6166 1f42 1092 6B00 		sts 107,__zero_reg__
 6167               	.LM962:
 6168               	/* #APP */
 6169               	 ;  277 "iv.c" 1
 6170 1f46 7894      		sei
 6171               	 ;  0 "" 2
 6172               	.LM963:
 6173               	/* #NOAPP */
 6174 1f48 1899      		sbic 35-32,0
 6175 1f4a 00C0      		rjmp .L472
 6176               	.LM964:
 6177 1f4c 8091 0000 		lds r24,last_buttonstate
 6178 1f50 81FD      		sbrc r24,1
 6179 1f52 00C0      		rjmp .L473
 6180               	.LBB439:
 6181               	.LBB440:
 6182               	.LM965:
 6183               	/* #APP */
 6184               	 ;  117 "iv.c" 1
 6185 1f54 7894      		sei
 6186               	 ;  0 "" 2
 6187               	.LM966:
 6188               	/* #NOAPP */
 6189 1f56 1092 0000 		sts (milliseconds)+1,__zero_reg__
 6190 1f5a 1092 0000 		sts milliseconds,__zero_reg__
 6191               	.L474:
 6192               	.LM967:
 6193 1f5e 8091 0000 		lds r24,milliseconds
 6194 1f62 9091 0000 		lds r25,(milliseconds)+1
 6195 1f66 0A97      		sbiw r24,10
 6196 1f68 00F0      		brlo .L474
 6197               	.LBE440:
 6198               	.LBE439:
 6199               	.LM968:
 6200 1f6a 1899      		sbic 35-32,0
 6201 1f6c 00C0      		rjmp .L473
 6202               	.L475:
 6203               	.LM969:
 6204 1f6e 0E94 0000 		call tick
 6205               	.LM970:
 6206 1f72 8091 0000 		lds r24,alarming
 6207 1f76 8823      		tst r24
 6208 1f78 01F0      		breq .L477
 6209               	.LM971:
 6210 1f7a 0E94 0000 		call setsnooze
 6211 1f7e 00C0      		rjmp .L473
 6212               	.L477:
 6213               	.LM972:
 6214 1f80 8091 0000 		lds r24,last_buttonstate
 6215 1f84 8260      		ori r24,lo8(2)
 6216 1f86 8093 0000 		sts last_buttonstate,r24
 6217               	.LM973:
 6218 1f8a 8091 0000 		lds r24,just_pressed
 6219 1f8e 8260      		ori r24,lo8(2)
 6220 1f90 8093 0000 		sts just_pressed,r24
 6221               	.LM974:
 6222 1f94 80E0      		ldi r24,lo8(__c.1907)
 6223 1f96 90E0      		ldi r25,hi8(__c.1907)
 6224 1f98 61E0      		ldi r22,lo8(1)
 6225 1f9a 0E94 0000 		call ROM_putstring
 6226 1f9e 00C0      		rjmp .L473
 6227               	.L472:
 6228               	.LM975:
 6229 1fa0 8091 0000 		lds r24,last_buttonstate
 6230 1fa4 8D7F      		andi r24,lo8(-3)
 6231 1fa6 8093 0000 		sts last_buttonstate,r24
 6232               	.L473:
 6233               	.LM976:
 6234 1faa 81E0      		ldi r24,lo8(1)
 6235 1fac 8093 6B00 		sts 107,r24
 6236               	/* epilogue start */
 6237               	.LM977:
 6238 1fb0 FF91      		pop r31
 6239 1fb2 EF91      		pop r30
 6240 1fb4 BF91      		pop r27
 6241 1fb6 AF91      		pop r26
 6242 1fb8 9F91      		pop r25
 6243 1fba 8F91      		pop r24
 6244 1fbc 7F91      		pop r23
 6245 1fbe 6F91      		pop r22
 6246 1fc0 5F91      		pop r21
 6247 1fc2 4F91      		pop r20
 6248 1fc4 3F91      		pop r19
 6249 1fc6 2F91      		pop r18
 6250 1fc8 0F90      		pop r0
 6251 1fca 0FBE      		out __SREG__,r0
 6252 1fcc 0F90      		pop r0
 6253 1fce 1F90      		pop __zero_reg__
 6254 1fd0 1895      		reti
 6255               	.LFE19:
 6257               	.global	__vector_5
 6259               	__vector_5:
 6260               	.LFB18:
 6261               	.LM978:
 6262 1fd2 1F92      		push __zero_reg__
 6263 1fd4 0F92      		push r0
 6264 1fd6 0FB6      		in r0,__SREG__
 6265 1fd8 0F92      		push r0
 6266 1fda 1124      		clr __zero_reg__
 6267 1fdc 2F93      		push r18
 6268 1fde 3F93      		push r19
 6269 1fe0 4F93      		push r20
 6270 1fe2 5F93      		push r21
 6271 1fe4 6F93      		push r22
 6272 1fe6 7F93      		push r23
 6273 1fe8 8F93      		push r24
 6274 1fea 9F93      		push r25
 6275 1fec AF93      		push r26
 6276 1fee BF93      		push r27
 6277 1ff0 EF93      		push r30
 6278 1ff2 FF93      		push r31
 6279               	/* prologue: Signal */
 6280               	/* frame size = 0 */
 6281               	.LM979:
 6282 1ff4 1092 6D00 		sts 109,__zero_reg__
 6283               	.LM980:
 6284               	/* #APP */
 6285               	 ;  208 "iv.c" 1
 6286 1ff8 7894      		sei
 6287               	 ;  0 "" 2
 6288               	/* #NOAPP */
 6289               	.LBB441:
 6290               	.LBB442:
 6291               	.LM981:
 6292               	/* #APP */
 6293               	 ;  139 "iv.c" 1
 6294 1ffa A895      		wdr
 6295               	 ;  0 "" 2
 6296               	/* #NOAPP */
 6297               	.LBE442:
 6298               	.LBE441:
 6299               	.LM982:
 6300 1ffc 4D99      		sbic 41-32,5
 6301 1ffe 00C0      		rjmp .L481
 6302               	.LM983:
 6303 2000 8091 0000 		lds r24,last_buttonstate
 6304 2004 80FD      		sbrc r24,0
 6305 2006 00C0      		rjmp .L482
 6306               	.LBB443:
 6307               	.LBB444:
 6308               	.LM984:
 6309               	/* #APP */
 6310               	 ;  117 "iv.c" 1
 6311 2008 7894      		sei
 6312               	 ;  0 "" 2
 6313               	.LM985:
 6314               	/* #NOAPP */
 6315 200a 1092 0000 		sts (milliseconds)+1,__zero_reg__
 6316 200e 1092 0000 		sts milliseconds,__zero_reg__
 6317               	.L483:
 6318               	.LM986:
 6319 2012 8091 0000 		lds r24,milliseconds
 6320 2016 9091 0000 		lds r25,(milliseconds)+1
 6321 201a 0A97      		sbiw r24,10
 6322 201c 00F0      		brlo .L483
 6323               	.LBE444:
 6324               	.LBE443:
 6325               	.LM987:
 6326 201e 4D99      		sbic 41-32,5
 6327 2020 00C0      		rjmp .L488
 6328               	.L484:
 6329               	.LM988:
 6330 2022 0E94 0000 		call tick
 6331               	.LM989:
 6332 2026 8091 0000 		lds r24,alarming
 6333 202a 8823      		tst r24
 6334 202c 01F4      		brne .L498
 6335               	.L486:
 6336               	.LM990:
 6337 202e 8091 0000 		lds r24,last_buttonstate
 6338 2032 8160      		ori r24,lo8(1)
 6339 2034 8093 0000 		sts last_buttonstate,r24
 6340               	.LM991:
 6341 2038 8091 0000 		lds r24,just_pressed
 6342 203c 8160      		ori r24,lo8(1)
 6343 203e 8093 0000 		sts just_pressed,r24
 6344               	.LM992:
 6345 2042 80E0      		ldi r24,lo8(__c.1853)
 6346 2044 90E0      		ldi r25,hi8(__c.1853)
 6347 2046 61E0      		ldi r22,lo8(1)
 6348 2048 0E94 0000 		call ROM_putstring
 6349 204c 00C0      		rjmp .L482
 6350               	.L481:
 6351               	.LM993:
 6352 204e 8091 0000 		lds r24,last_buttonstate
 6353 2052 8E7F      		andi r24,lo8(-2)
 6354 2054 8093 0000 		sts last_buttonstate,r24
 6355               	.L482:
 6356               	.LM994:
 6357 2058 4C99      		sbic 41-32,4
 6358 205a 00C0      		rjmp .L487
 6359               	.LM995:
 6360 205c 8091 0000 		lds r24,last_buttonstate
 6361 2060 82FD      		sbrc r24,2
 6362 2062 00C0      		rjmp .L488
 6363               	.LBB445:
 6364               	.LBB446:
 6365               	.LM996:
 6366               	/* #APP */
 6367               	 ;  117 "iv.c" 1
 6368 2064 7894      		sei
 6369               	 ;  0 "" 2
 6370               	.LM997:
 6371               	/* #NOAPP */
 6372 2066 1092 0000 		sts (milliseconds)+1,__zero_reg__
 6373 206a 1092 0000 		sts milliseconds,__zero_reg__
 6374               	.L489:
 6375               	.LM998:
 6376 206e 8091 0000 		lds r24,milliseconds
 6377 2072 9091 0000 		lds r25,(milliseconds)+1
 6378 2076 0A97      		sbiw r24,10
 6379 2078 00F0      		brlo .L489
 6380               	.LBE446:
 6381               	.LBE445:
 6382               	.LM999:
 6383 207a 4C99      		sbic 41-32,4
 6384 207c 00C0      		rjmp .L488
 6385               	.L490:
 6386               	.LM1000:
 6387 207e 82E0      		ldi r24,lo8(2)
 6388 2080 8093 0000 		sts buttonholdcounter,r24
 6389 2084 00C0      		rjmp .L491
 6390               	.L493:
 6391               	.LM1001:
 6392 2086 4C9B      		sbis 41-32,4
 6393 2088 00C0      		rjmp .L491
 6394               	.LM1002:
 6395 208a 0E94 0000 		call tick
 6396               	.LM1003:
 6397 208e 8091 0000 		lds r24,last_buttonstate
 6398 2092 8B7F      		andi r24,lo8(-5)
 6399 2094 8093 0000 		sts last_buttonstate,r24
 6400               	.LM1004:
 6401 2098 8091 0000 		lds r24,alarming
 6402 209c 8823      		tst r24
 6403 209e 01F0      		breq .L492
 6404               	.L498:
 6405               	.LM1005:
 6406 20a0 0E94 0000 		call setsnooze
 6407 20a4 00C0      		rjmp .L488
 6408               	.L492:
 6409               	.LM1006:
 6410 20a6 80E0      		ldi r24,lo8(__c.1855)
 6411 20a8 90E0      		ldi r25,hi8(__c.1855)
 6412 20aa 61E0      		ldi r22,lo8(1)
 6413 20ac 0E94 0000 		call ROM_putstring
 6414               	.LM1007:
 6415 20b0 8091 0000 		lds r24,just_pressed
 6416 20b4 8460      		ori r24,lo8(4)
 6417 20b6 8093 0000 		sts just_pressed,r24
 6418 20ba 00C0      		rjmp .L488
 6419               	.L491:
 6420               	.LM1008:
 6421 20bc 8091 0000 		lds r24,buttonholdcounter
 6422 20c0 8823      		tst r24
 6423 20c2 01F4      		brne .L493
 6424               	.LM1009:
 6425 20c4 8091 0000 		lds r24,last_buttonstate
 6426 20c8 8460      		ori r24,lo8(4)
 6427 20ca 8093 0000 		sts last_buttonstate,r24
 6428               	.LM1010:
 6429 20ce 8091 0000 		lds r24,pressed
 6430 20d2 8460      		ori r24,lo8(4)
 6431 20d4 8093 0000 		sts pressed,r24
 6432 20d8 00C0      		rjmp .L488
 6433               	.L487:
 6434               	.LM1011:
 6435 20da 1092 0000 		sts pressed,__zero_reg__
 6436               	.LM1012:
 6437 20de 8091 0000 		lds r24,last_buttonstate
 6438 20e2 8B7F      		andi r24,lo8(-5)
 6439 20e4 8093 0000 		sts last_buttonstate,r24
 6440               	.L488:
 6441               	.LM1013:
 6442 20e8 80E3      		ldi r24,lo8(48)
 6443 20ea 8093 6D00 		sts 109,r24
 6444               	/* epilogue start */
 6445               	.LM1014:
 6446 20ee FF91      		pop r31
 6447 20f0 EF91      		pop r30
 6448 20f2 BF91      		pop r27
 6449 20f4 AF91      		pop r26
 6450 20f6 9F91      		pop r25
 6451 20f8 8F91      		pop r24
 6452 20fa 7F91      		pop r23
 6453 20fc 6F91      		pop r22
 6454 20fe 5F91      		pop r21
 6455 2100 4F91      		pop r20
 6456 2102 3F91      		pop r19
 6457 2104 2F91      		pop r18
 6458 2106 0F90      		pop r0
 6459 2108 0FBE      		out __SREG__,r0
 6460 210a 0F90      		pop r0
 6461 210c 1F90      		pop __zero_reg__
 6462 210e 1895      		reti
 6463               	.LFE18:
 6465               		.data
 6466               	.LC27:
 6467 00bd 2447 5052 		.string	"$GPRMC"
 6467      4D43 00
 6468               	.LC28:
 6469 00c4 0A0D 00   		.string	"\n\r"
 6470               		.text
 6471               	.global	getgpstime
 6473               	getgpstime:
 6474               	.LFB56:
 6475               	.LM1015:
 6476 2110 8F92      		push r8
 6477 2112 9F92      		push r9
 6478 2114 BF92      		push r11
 6479 2116 CF92      		push r12
 6480 2118 DF92      		push r13
 6481 211a EF92      		push r14
 6482 211c FF92      		push r15
 6483 211e 0F93      		push r16
 6484 2120 1F93      		push r17
 6485 2122 DF93      		push r29
 6486 2124 CF93      		push r28
 6487 2126 CDB7      		in r28,__SP_L__
 6488 2128 DEB7      		in r29,__SP_H__
 6489 212a 2F97      		sbiw r28,15
 6490 212c 0FB6      		in __tmp_reg__,__SREG__
 6491 212e F894      		cli
 6492 2130 DEBF      		out __SP_H__,r29
 6493 2132 0FBE      		out __SREG__,__tmp_reg__
 6494 2134 CDBF      		out __SP_L__,r28
 6495               	/* prologue: function */
 6496               	/* frame size = 15 */
 6497               	.LM1016:
 6498 2136 8091 C600 		lds r24,198
 6499               	.LVL266:
 6500 213a 8983      		std Y+1,r24
 6501               	.LM1017:
 6502 213c 9091 0000 		lds r25,intBufferStatus
 6503 2140 9923      		tst r25
 6504 2142 01F4      		brne .L500
 6505               	.LVL267:
 6506 2144 8432      		cpi r24,lo8(36)
 6507 2146 01F0      		breq .+2
 6508 2148 00C0      		rjmp .L517
 6509               	.LVL268:
 6510               	.LM1018:
 6511 214a 81E0      		ldi r24,lo8(1)
 6512               	.LVL269:
 6513 214c 8093 0000 		sts intBufferStatus,r24
 6514               	.LM1019:
 6515 2150 80E0      		ldi r24,lo8(strBuffer)
 6516 2152 90E0      		ldi r25,hi8(strBuffer)
 6517 2154 00C0      		rjmp .L523
 6518               	.LVL270:
 6519               	.L500:
 6520               	.LM1020:
 6521 2156 00E0      		ldi r16,lo8(strBuffer)
 6522 2158 10E0      		ldi r17,hi8(strBuffer)
 6523 215a F801      		movw r30,r16
 6524 215c 0190      		ld __tmp_reg__,Z+
 6525 215e 0020      		tst __tmp_reg__
 6526 2160 01F4      		brne .-6
 6527 2162 3197      		sbiw r30,1
 6528 2164 E01B      		sub r30,r16
 6529 2166 F10B      		sbc r31,r17
 6530 2168 E038      		cpi r30,128
 6531 216a F105      		cpc r31,__zero_reg__
 6532 216c 00F4      		brsh .L525
 6533               	.L502:
 6534               	.LM1021:
 6535 216e 3697      		sbiw r30,6
 6536 2170 01F4      		brne .L503
 6537               	.LM1022:
 6538 2172 C801      		movw r24,r16
 6539 2174 60E0      		ldi r22,lo8(.LC27)
 6540 2176 70E0      		ldi r23,hi8(.LC27)
 6541 2178 0E94 0000 		call strcmp
 6542 217c 0097      		sbiw r24,0
 6543 217e 01F4      		brne .L504
 6544               	.LM1023:
 6545 2180 82E0      		ldi r24,lo8(2)
 6546 2182 8093 0000 		sts intBufferStatus,r24
 6547 2186 00C0      		rjmp .L505
 6548               	.L504:
 6549               	.LM1024:
 6550 2188 80E8      		ldi r24,lo8(-128)
 6551 218a F801      		movw r30,r16
 6552 218c 1192      		st Z+,__zero_reg__
 6553 218e 8A95      	        dec r24
 6554 2190 01F4      		brne .-6
 6555 2192 00C0      		rjmp .L524
 6556               	.LVL271:
 6557               	.L503:
 6558               	.LM1025:
 6559 2194 8A32      		cpi r24,lo8(42)
 6560 2196 01F0      		breq .+2
 6561 2198 00C0      		rjmp .L505
 6562               	.LVL272:
 6563               	.LM1026:
 6564 219a 9230      		cpi r25,lo8(2)
 6565 219c 01F0      		breq .L506
 6566               	.L525:
 6567               	.LM1027:
 6568 219e 80E8      		ldi r24,lo8(-128)
 6569               	.LVL273:
 6570 21a0 D801      		movw r26,r16
 6571 21a2 00C0      		rjmp .L522
 6572               	.LVL274:
 6573               	.L506:
 6574               	.LM1028:
 6575 21a4 80E0      		ldi r24,lo8(.LC28)
 6576 21a6 90E0      		ldi r25,hi8(.LC28)
 6577               	.LVL275:
 6578 21a8 0E94 0000 		call uart_puts
 6579               	.LM1029:
 6580 21ac C801      		movw r24,r16
 6581 21ae 0E94 0000 		call uart_puts
 6582               	.LM1030:
 6583 21b2 C801      		movw r24,r16
 6584 21b4 6CE2      		ldi r22,lo8(44)
 6585 21b6 70E0      		ldi r23,hi8(44)
 6586 21b8 0E94 0000 		call strchr
 6587               	.LM1031:
 6588 21bc DE01      		movw r26,r28
 6589 21be 1296      		adiw r26,2
 6590 21c0 FC01      		movw r30,r24
 6591               	.LVL276:
 6592 21c2 3196      		adiw r30,1
 6593 21c4 26E0      		ldi r18,lo8(6)
 6594               	.L507:
 6595 21c6 0190      		ld r0,Z+
 6596 21c8 0D92      		st X+,r0
 6597 21ca 2150      		subi r18,lo8(-(-1))
 6598 21cc 01F4      		brne .L507
 6599               	.LM1032:
 6600 21ce 1886      		std Y+8,__zero_reg__
 6601 21d0 00E0      		ldi r16,lo8(0)
 6602 21d2 10E0      		ldi r17,hi8(0)
 6603               	.LVL277:
 6604               	.L508:
 6605               	.LBB447:
 6606               	.LM1033:
 6607 21d4 0196      		adiw r24,1
 6608               	.LVL278:
 6609 21d6 6CE2      		ldi r22,lo8(44)
 6610 21d8 70E0      		ldi r23,hi8(44)
 6611 21da 0E94 0000 		call strchr
 6612               	.LM1034:
 6613 21de 0F5F      		subi r16,lo8(-(1))
 6614 21e0 1F4F      		sbci r17,hi8(-(1))
 6615 21e2 0830      		cpi r16,8
 6616 21e4 1105      		cpc r17,__zero_reg__
 6617 21e6 01F4      		brne .L508
 6618               	.LBE447:
 6619               	.LM1035:
 6620 21e8 DE01      		movw r26,r28
 6621 21ea 1996      		adiw r26,9
 6622 21ec FC01      		movw r30,r24
 6623               	.LVL279:
 6624 21ee 3196      		adiw r30,1
 6625 21f0 86E0      		ldi r24,lo8(6)
 6626               	.LVL280:
 6627               	.L509:
 6628 21f2 0190      		ld r0,Z+
 6629 21f4 0D92      		st X+,r0
 6630 21f6 8150      		subi r24,lo8(-(-1))
 6631 21f8 01F4      		brne .L509
 6632               	.LM1036:
 6633 21fa 1F86      		std Y+15,__zero_reg__
 6634               	.LM1037:
 6635 21fc 8E85      		ldd r24,Y+14
 6636 21fe 90E0      		ldi r25,lo8(0)
 6637 2200 8051      		subi r24,lo8(-(-528))
 6638 2202 9240      		sbci r25,hi8(-(-528))
 6639 2204 2D85      		ldd r18,Y+13
 6640 2206 4AE0      		ldi r20,lo8(10)
 6641 2208 249F      		mul r18,r20
 6642 220a 9001      		movw r18,r0
 6643 220c 1124      		clr r1
 6644 220e 820F      		add r24,r18
 6645 2210 931F      		adc r25,r19
 6646 2212 0A97      		sbiw r24,10
 6647 2214 04F4      		brge .+2
 6648 2216 00C0      		rjmp .L510
 6649               	.LBB448:
 6650               	.LM1038:
 6651 2218 1091 0000 		lds r17,time_h
 6652               	.LM1039:
 6653 221c 0091 0000 		lds r16,time_m
 6654               	.LVL281:
 6655               	.LM1040:
 6656 2220 8091 0000 		lds r24,time_s
 6657               	.LM1041:
 6658 2224 CE01      		movw r24,r28
 6659 2226 0296      		adiw r24,2
 6660 2228 0E94 0000 		call setgpstime
 6661               	.LM1042:
 6662 222c CE01      		movw r24,r28
 6663 222e 0996      		adiw r24,9
 6664 2230 0E94 0000 		call setgpsdate
 6665               	.LM1043:
 6666 2234 0E94 0000 		call fix_time
 6667               	.LM1044:
 6668 2238 3091 0000 		lds r19,time_h
 6669 223c 8091 0000 		lds r24,time_m
 6670 2240 2CE3      		ldi r18,lo8(60)
 6671 2242 3202      		muls r19,r18
 6672 2244 D001      		movw r26,r0
 6673 2246 1124      		clr r1
 6674               	.LVL282:
 6675 2248 9927      		clr r25
 6676 224a 87FD      		sbrc r24,7
 6677 224c 9095      		com r25
 6678 224e A80F      		add r26,r24
 6679 2250 B91F      		adc r27,r25
 6680               	.LM1045:
 6681 2252 812E      		mov r8,r17
 6682 2254 9924      		clr r9
 6683 2256 8CE3      		ldi r24,lo8(60)
 6684 2258 90E0      		ldi r25,hi8(60)
 6685 225a 889E      		mul r8,r24
 6686 225c F001      		movw r30,r0
 6687 225e 899E      		mul r8,r25
 6688 2260 F00D      		add r31,r0
 6689 2262 989E      		mul r9,r24
 6690 2264 F00D      		add r31,r0
 6691 2266 1124      		clr r1
 6692               	.LVL283:
 6693 2268 E00F      		add r30,r16
 6694 226a F11D      		adc r31,__zero_reg__
 6695               	.LM1046:
 6696 226c E090 0000 		lds r14,time_h
 6697               	.LVL284:
 6698               	.LM1047:
 6699 2270 F090 0000 		lds r15,time_m
 6700               	.LVL285:
 6701               	.LM1048:
 6702 2274 AD01      		movw r20,r26
 6703 2276 4E1B      		sub r20,r30
 6704 2278 5F0B      		sbc r21,r31
 6705 227a 57FF      		sbrs r21,7
 6706 227c 00C0      		rjmp .L511
 6707 227e BD01      		movw r22,r26
 6708 2280 6056      		subi r22,lo8(-(1440))
 6709 2282 7A4F      		sbci r23,hi8(-(1440))
 6710               	.LVL286:
 6711 2284 6E17      		cp r22,r30
 6712 2286 7F07      		cpc r23,r31
 6713 2288 00F0      		brlo .L511
 6714 228a 9A01      		movw r18,r20
 6715 228c 2056      		subi r18,lo8(-(1440))
 6716 228e 3A4F      		sbci r19,hi8(-(1440))
 6717 2290 37FF      		sbrs r19,7
 6718 2292 00C0      		rjmp .L512
 6719 2294 3095      		com r19
 6720 2296 2195      		neg r18
 6721 2298 3F4F      		sbci r19,lo8(-1)
 6722               	.L512:
 6723 229a 8827      		clr r24
 6724 229c 9927      		clr r25
 6725 229e 841B      		sub r24,r20
 6726 22a0 950B      		sbc r25,r21
 6727 22a2 2817      		cp r18,r24
 6728 22a4 3907      		cpc r19,r25
 6729 22a6 04F4      		brge .L511
 6730               	.LM1049:
 6731 22a8 B8E1      		ldi r27,lo8(24)
 6732 22aa EB0E      		add r14,r27
 6733 22ac 00C0      		rjmp .L513
 6734               	.LVL287:
 6735               	.L511:
 6736 22ae BD01      		movw r22,r26
 6737               	.L513:
 6738               	.LM1050:
 6739 22b0 E617      		cp r30,r22
 6740 22b2 F707      		cpc r31,r23
 6741 22b4 00F4      		brsh .L510
 6742 22b6 00E0      		ldi r16,lo8(0)
 6743 22b8 10E0      		ldi r17,hi8(0)
 6744               	.LM1051:
 6745 22ba CE2C      		mov r12,r14
 6746 22bc DD24      		clr r13
 6747 22be C7FC      		sbrc r12,7
 6748 22c0 D094      		com r13
 6749               	.LVL288:
 6750 22c2 00C0      		rjmp .L514
 6751               	.LVL289:
 6752               	.L515:
 6753               	.LM1052:
 6754 22c4 8B2D      		mov r24,r11
 6755 22c6 6F2D      		mov r22,r15
 6756               	.LVL290:
 6757 22c8 40E0      		ldi r20,lo8(0)
 6758 22ca 0E94 0000 		call check_alarm
 6759               	.LVL291:
 6760               	.LM1053:
 6761 22ce FA94      		dec r15
 6762 22d0 00C0      		rjmp .L521
 6763               	.LVL292:
 6764               	.L516:
 6765               	.LM1054:
 6766 22d2 BE2C      		mov r11,r14
 6767 22d4 B01A      		sub r11,r16
 6768               	.LVL293:
 6769               	.L521:
 6770               	.LM1055:
 6771 22d6 F7FE      		sbrs r15,7
 6772 22d8 00C0      		rjmp .L515
 6773 22da 0F5F      		subi r16,lo8(-(1))
 6774 22dc 1F4F      		sbci r17,hi8(-(1))
 6775 22de 8BE3      		ldi r24,lo8(59)
 6776 22e0 F82E      		mov r15,r24
 6777               	.LVL294:
 6778               	.L514:
 6779               	.LM1056:
 6780 22e2 C601      		movw r24,r12
 6781 22e4 801B      		sub r24,r16
 6782 22e6 910B      		sbc r25,r17
 6783 22e8 8815      		cp r24,r8
 6784 22ea 9905      		cpc r25,r9
 6785 22ec 04F4      		brge .L516
 6786               	.LVL295:
 6787               	.L510:
 6788               	.LBE448:
 6789               	.LM1057:
 6790 22ee 80E8      		ldi r24,lo8(-128)
 6791 22f0 E0E0      		ldi r30,lo8(strBuffer)
 6792 22f2 F0E0      		ldi r31,hi8(strBuffer)
 6793               	.LVL296:
 6794 22f4 DF01      		movw r26,r30
 6795               	.L522:
 6796 22f6 1D92      		st X+,__zero_reg__
 6797 22f8 8A95      	        dec r24
 6798 22fa 01F4      		brne .-6
 6799               	.L524:
 6800               	.LM1058:
 6801 22fc 1092 0000 		sts intBufferStatus,__zero_reg__
 6802 2300 00C0      		rjmp .L517
 6803               	.LVL297:
 6804               	.L505:
 6805               	.LM1059:
 6806 2302 C801      		movw r24,r16
 6807               	.L523:
 6808 2304 BE01      		movw r22,r28
 6809 2306 6F5F      		subi r22,lo8(-(1))
 6810 2308 7F4F      		sbci r23,hi8(-(1))
 6811 230a 41E0      		ldi r20,lo8(1)
 6812 230c 50E0      		ldi r21,hi8(1)
 6813 230e 0E94 0000 		call strncat
 6814               	.LVL298:
 6815               	.L517:
 6816               	/* epilogue start */
 6817               	.LM1060:
 6818 2312 2F96      		adiw r28,15
 6819 2314 0FB6      		in __tmp_reg__,__SREG__
 6820 2316 F894      		cli
 6821 2318 DEBF      		out __SP_H__,r29
 6822 231a 0FBE      		out __SREG__,__tmp_reg__
 6823 231c CDBF      		out __SP_L__,r28
 6824 231e CF91      		pop r28
 6825 2320 DF91      		pop r29
 6826 2322 1F91      		pop r17
 6827 2324 0F91      		pop r16
 6828               	.LVL299:
 6829 2326 FF90      		pop r15
 6830               	.LVL300:
 6831 2328 EF90      		pop r14
 6832               	.LVL301:
 6833 232a DF90      		pop r13
 6834 232c CF90      		pop r12
 6835               	.LVL302:
 6836 232e BF90      		pop r11
 6837 2330 9F90      		pop r9
 6838 2332 8F90      		pop r8
 6839 2334 0895      		ret
 6840               	.LFE56:
 6842               		.data
 6843               	.LC29:
 6844 00c7 0A0D 5469 		.string	"\n\rTimezone offset hour:\t"
 6844      6D65 7A6F 
 6844      6E65 206F 
 6844      6666 7365 
 6844      7420 686F 
 6845               		.text
 6846               	.global	set_timezone
 6848               	set_timezone:
 6849               	.LFB30:
 6850               	.LM1061:
 6851 2336 CF92      		push r12
 6852 2338 DF92      		push r13
 6853 233a EF92      		push r14
 6854 233c FF92      		push r15
 6855 233e 0F93      		push r16
 6856 2340 1F93      		push r17
 6857 2342 CF93      		push r28
 6858 2344 DF93      		push r29
 6859               	/* prologue: function */
 6860               	/* frame size = 0 */
 6861               	.LM1062:
 6862 2346 1091 0000 		lds r17,intTimeZoneHour
 6863               	.LVL303:
 6864               	.LM1063:
 6865 234a 0091 0000 		lds r16,intTimeZoneMin
 6866               	.LVL304:
 6867               	.LM1064:
 6868 234e 8AE0      		ldi r24,lo8(10)
 6869 2350 8093 0000 		sts timeoutcounter,r24
 6870 2354 FF24      		clr r15
 6871               	.LVL305:
 6872               	.LM1065:
 6873 2356 3AE0      		ldi r19,lo8(10)
 6874 2358 E32E      		mov r14,r19
 6875               	.LBB449:
 6876               	.LBB450:
 6877               	.LM1066:
 6878 235a 2EE0      		ldi r18,lo8(14)
 6879 235c C22E      		mov r12,r18
 6880 235e D12C      		mov r13,__zero_reg__
 6881               	.LBE450:
 6882               	.LBE449:
 6883               	.LBB452:
 6884               	.LBB453:
 6885 2360 CDE0      		ldi r28,lo8(13)
 6886 2362 D0E0      		ldi r29,hi8(13)
 6887               	.L547:
 6888               	.LBE453:
 6889               	.LBE452:
 6890               	.LM1067:
 6891 2364 8091 0000 		lds r24,just_pressed
 6892 2368 80FD      		sbrc r24,0
 6893 236a 00C0      		rjmp .L541
 6894               	.LM1068:
 6895 236c 8091 0000 		lds r24,just_pressed
 6896 2370 8823      		tst r24
 6897 2372 01F4      		brne .L528
 6898 2374 8091 0000 		lds r24,pressed
 6899 2378 8823      		tst r24
 6900 237a 01F0      		breq .L529
 6901               	.L528:
 6902               	.LM1069:
 6903 237c E092 0000 		sts timeoutcounter,r14
 6904 2380 00C0      		rjmp .L530
 6905               	.L529:
 6906               	.LM1070:
 6907 2382 8091 0000 		lds r24,timeoutcounter
 6908 2386 8823      		tst r24
 6909 2388 01F0      		breq .L533
 6910               	.L530:
 6911               	.LM1071:
 6912 238a 8091 0000 		lds r24,just_pressed
 6913 238e 81FF      		sbrs r24,1
 6914 2390 00C0      		rjmp .L531
 6915               	.LM1072:
 6916 2392 1092 0000 		sts just_pressed,__zero_reg__
 6917               	.LM1073:
 6918 2396 FF20      		tst r15
 6919 2398 01F4      		brne .L532
 6920               	.LM1074:
 6921 239a 812F      		mov r24,r17
 6922 239c 9927      		clr r25
 6923 239e 87FD      		sbrc r24,7
 6924 23a0 9095      		com r25
 6925 23a2 602F      		mov r22,r16
 6926 23a4 70E0      		ldi r23,lo8(0)
 6927 23a6 0E94 0000 		call display_timezone
 6928               	.LM1075:
 6929 23aa 8091 0000 		lds r24,display+1
 6930 23ae 8160      		ori r24,lo8(1)
 6931 23b0 8093 0000 		sts display+1,r24
 6932               	.LM1076:
 6933 23b4 8091 0000 		lds r24,display+2
 6934 23b8 8160      		ori r24,lo8(1)
 6935 23ba 8093 0000 		sts display+2,r24
 6936 23be FF24      		clr r15
 6937 23c0 F394      		inc r15
 6938 23c2 00C0      		rjmp .L531
 6939               	.L532:
 6940               	.LM1077:
 6941 23c4 81E0      		ldi r24,lo8(1)
 6942 23c6 F816      		cp r15,r24
 6943 23c8 01F4      		brne .L533
 6944               	.LM1078:
 6945 23ca 812F      		mov r24,r17
 6946 23cc 9927      		clr r25
 6947 23ce 87FD      		sbrc r24,7
 6948 23d0 9095      		com r25
 6949 23d2 602F      		mov r22,r16
 6950 23d4 70E0      		ldi r23,lo8(0)
 6951 23d6 0E94 0000 		call display_timezone
 6952               	.LM1079:
 6953 23da 8091 0000 		lds r24,display+4
 6954 23de 8160      		ori r24,lo8(1)
 6955 23e0 8093 0000 		sts display+4,r24
 6956               	.LM1080:
 6957 23e4 8091 0000 		lds r24,display+5
 6958 23e8 8160      		ori r24,lo8(1)
 6959 23ea 8093 0000 		sts display+5,r24
 6960 23ee 92E0      		ldi r25,lo8(2)
 6961 23f0 F92E      		mov r15,r25
 6962 23f2 00C0      		rjmp .L531
 6963               	.L533:
 6964               	.LM1081:
 6965 23f4 1092 0000 		sts displaymode,__zero_reg__
 6966 23f8 00C0      		rjmp .L541
 6967               	.L531:
 6968               	.LM1082:
 6969 23fa 8091 0000 		lds r24,just_pressed
 6970 23fe 82FD      		sbrc r24,2
 6971 2400 00C0      		rjmp .L534
 6972 2402 8091 0000 		lds r24,pressed
 6973 2406 82FF      		sbrs r24,2
 6974 2408 00C0      		rjmp .L547
 6975               	.L534:
 6976               	.LM1083:
 6977 240a 1092 0000 		sts just_pressed,__zero_reg__
 6978               	.LM1084:
 6979 240e 81E0      		ldi r24,lo8(1)
 6980 2410 F816      		cp r15,r24
 6981 2412 01F4      		brne .L536
 6982               	.LM1085:
 6983 2414 812F      		mov r24,r17
 6984 2416 9927      		clr r25
 6985 2418 87FD      		sbrc r24,7
 6986 241a 9095      		com r25
 6987               	.LVL306:
 6988 241c 0D96      		adiw r24,13
 6989               	.LVL307:
 6990 241e 69E1      		ldi r22,lo8(25)
 6991 2420 70E0      		ldi r23,hi8(25)
 6992 2422 0E94 0000 		call __divmodhi4
 6993 2426 182F      		mov r17,r24
 6994               	.LVL308:
 6995 2428 1C50      		subi r17,lo8(-(-12))
 6996               	.LM1086:
 6997 242a 812F      		mov r24,r17
 6998 242c 9927      		clr r25
 6999 242e 87FD      		sbrc r24,7
 7000 2430 9095      		com r25
 7001 2432 602F      		mov r22,r16
 7002 2434 70E0      		ldi r23,lo8(0)
 7003 2436 0E94 0000 		call display_timezone
 7004               	.LM1087:
 7005 243a 8091 0000 		lds r24,display+1
 7006 243e 8160      		ori r24,lo8(1)
 7007 2440 8093 0000 		sts display+1,r24
 7008               	.LM1088:
 7009 2444 8091 0000 		lds r24,display+2
 7010 2448 8160      		ori r24,lo8(1)
 7011 244a 8093 0000 		sts display+2,r24
 7012               	.LM1089:
 7013 244e 1093 0000 		sts intTimeZoneHour,r17
 7014               	.L537:
 7015               	.LBB455:
 7016               	.LBB454:
 7017               	.LM1090:
 7018 2452 F999      		sbic 63-32,1
 7019 2454 00C0      		rjmp .L537
 7020               	.LM1091:
 7021 2456 1FBA      		out 63-32,__zero_reg__
 7022               	.LM1092:
 7023 2458 D2BD      		out (65)+1-32,r29
 7024 245a C1BD      		out 65-32,r28
 7025               	.LM1093:
 7026 245c 10BD      		out 64-32,r17
 7027               	.LM1094:
 7028               	/* #APP */
 7029               	 ;  324 "/Applications/Arduino.app/Contents/Resources/Java/hardware/tools/avr/bin/../lib/gcc/avr/4.
 7030               		/* START EEPROM WRITE CRITICAL SECTION */
 7031 245e 0FB6      		in	r0, 63		
 7032 2460 F894      		cli				
 7033 2462 FA9A      		sbi	31, 2	
 7034 2464 F99A      		sbi	31, 1	
 7035 2466 0FBE      		out	63, r0		
 7036               		/* END EEPROM WRITE CRITICAL SECTION */
 7037               	 ;  0 "" 2
 7038               	/* #NOAPP */
 7039               	.LBE454:
 7040               	.LBE455:
 7041               	.LM1095:
 7042 2468 80E0      		ldi r24,lo8(.LC29)
 7043 246a 90E0      		ldi r25,hi8(.LC29)
 7044 246c 0E94 0000 		call uart_puts
 7045               	.LM1096:
 7046 2470 812F      		mov r24,r17
 7047 2472 9927      		clr r25
 7048 2474 87FD      		sbrc r24,7
 7049 2476 9095      		com r25
 7050 2478 0E94 0000 		call uart_putw_dec
 7051 247c 00C0      		rjmp .L538
 7052               	.L536:
 7053               	.LM1097:
 7054 247e 82E0      		ldi r24,lo8(2)
 7055 2480 F816      		cp r15,r24
 7056 2482 01F4      		brne .L538
 7057               	.LM1098:
 7058 2484 802F      		mov r24,r16
 7059 2486 90E0      		ldi r25,lo8(0)
 7060               	.LVL309:
 7061 2488 0196      		adiw r24,1
 7062 248a 6CE3      		ldi r22,lo8(60)
 7063 248c 70E0      		ldi r23,hi8(60)
 7064 248e 0E94 0000 		call __divmodhi4
 7065 2492 082F      		mov r16,r24
 7066               	.LM1099:
 7067 2494 812F      		mov r24,r17
 7068 2496 9927      		clr r25
 7069 2498 87FD      		sbrc r24,7
 7070 249a 9095      		com r25
 7071 249c 602F      		mov r22,r16
 7072 249e 70E0      		ldi r23,lo8(0)
 7073 24a0 0E94 0000 		call display_timezone
 7074               	.LVL310:
 7075               	.LM1100:
 7076 24a4 8091 0000 		lds r24,display+4
 7077 24a8 8160      		ori r24,lo8(1)
 7078 24aa 8093 0000 		sts display+4,r24
 7079               	.LM1101:
 7080 24ae 8091 0000 		lds r24,display+5
 7081 24b2 8160      		ori r24,lo8(1)
 7082 24b4 8093 0000 		sts display+5,r24
 7083               	.LM1102:
 7084 24b8 0093 0000 		sts intTimeZoneMin,r16
 7085               	.L539:
 7086               	.LBB456:
 7087               	.LBB451:
 7088               	.LM1103:
 7089 24bc F999      		sbic 63-32,1
 7090 24be 00C0      		rjmp .L539
 7091               	.LM1104:
 7092 24c0 1FBA      		out 63-32,__zero_reg__
 7093               	.LM1105:
 7094 24c2 D2BC      		out (65)+1-32,r13
 7095 24c4 C1BC      		out 65-32,r12
 7096               	.LM1106:
 7097 24c6 00BD      		out 64-32,r16
 7098               	.LM1107:
 7099               	/* #APP */
 7100               	 ;  324 "/Applications/Arduino.app/Contents/Resources/Java/hardware/tools/avr/bin/../lib/gcc/avr/4.
 7101               		/* START EEPROM WRITE CRITICAL SECTION */
 7102 24c8 0FB6      		in	r0, 63		
 7103 24ca F894      		cli				
 7104 24cc FA9A      		sbi	31, 2	
 7105 24ce F99A      		sbi	31, 1	
 7106 24d0 0FBE      		out	63, r0		
 7107               		/* END EEPROM WRITE CRITICAL SECTION */
 7108               	 ;  0 "" 2
 7109               	/* #NOAPP */
 7110               	.L538:
 7111               	.LBE451:
 7112               	.LBE456:
 7113               	.LM1108:
 7114 24d2 8091 0000 		lds r24,pressed
 7115 24d6 82FF      		sbrs r24,2
 7116 24d8 00C0      		rjmp .L547
 7117               	.LBB457:
 7118               	.LBB458:
 7119               	.LM1109:
 7120               	/* #APP */
 7121               	 ;  117 "iv.c" 1
 7122 24da 7894      		sei
 7123               	 ;  0 "" 2
 7124               	.LM1110:
 7125               	/* #NOAPP */
 7126 24dc 1092 0000 		sts (milliseconds)+1,__zero_reg__
 7127 24e0 1092 0000 		sts milliseconds,__zero_reg__
 7128               	.L540:
 7129               	.LM1111:
 7130 24e4 8091 0000 		lds r24,milliseconds
 7131 24e8 9091 0000 		lds r25,(milliseconds)+1
 7132 24ec 8B34      		cpi r24,75
 7133 24ee 9105      		cpc r25,__zero_reg__
 7134 24f0 00F0      		brlo .L540
 7135 24f2 00C0      		rjmp .L547
 7136               	.L541:
 7137               	/* epilogue start */
 7138               	.LBE458:
 7139               	.LBE457:
 7140               	.LM1112:
 7141 24f4 DF91      		pop r29
 7142 24f6 CF91      		pop r28
 7143 24f8 1F91      		pop r17
 7144               	.LVL311:
 7145 24fa 0F91      		pop r16
 7146               	.LVL312:
 7147 24fc FF90      		pop r15
 7148               	.LVL313:
 7149 24fe EF90      		pop r14
 7150 2500 DF90      		pop r13
 7151 2502 CF90      		pop r12
 7152 2504 0895      		ret
 7153               	.LFE30:
 7155               		.data
 7156               	.LC30:
 7157 00e0 0A0D 4865 		.string	"\n\rHello World!\n\r"
 7157      6C6C 6F20 
 7157      576F 726C 
 7157      6421 0A0D 
 7157      00
 7158               	.LC31:
 7159 00f1 0A0D 4275 		.string	"\n\rBuffer size is:\t"
 7159      6666 6572 
 7159      2073 697A 
 7159      6520 6973 
 7159      3A09 00
 7160               	.LC32:
 7161 0104 7365 7420 		.string	"set alarm"
 7161      616C 6172 
 7161      6D00 
 7162               	.LC33:
 7163 010e 7365 7420 		.string	"set time"
 7163      7469 6D65 
 7163      00
 7164               	.LC34:
 7165 0117 7365 7420 		.string	"set date"
 7165      6461 7465 
 7165      00
 7166               	.LC35:
 7167 0120 7365 7420 		.string	"set zone"
 7167      7A6F 6E65 
 7167      00
 7168               	.LC36:
 7169 0129 7365 7420 		.string	"set brit"
 7169      6272 6974 
 7169      00
 7170               	.LC37:
 7171 0132 7365 7420 		.string	"set vol "
 7171      766F 6C20 
 7171      00
 7172               	.LC38:
 7173 013b 7365 7420 		.string	"set regn"
 7173      7265 676E 
 7173      00
 7174               		.text
 7175               	.global	main
 7177               	main:
 7178               	.LFB26:
 7179               	.LM1113:
 7180 2506 AF92      		push r10
 7181 2508 BF92      		push r11
 7182 250a CF92      		push r12
 7183 250c DF92      		push r13
 7184 250e EF92      		push r14
 7185 2510 FF92      		push r15
 7186 2512 0F93      		push r16
 7187 2514 1F93      		push r17
 7188               	/* prologue: function */
 7189               	/* frame size = 0 */
 7190               	.LM1114:
 7191 2516 15BC      		out 69-32,__zero_reg__
 7192               	.LM1115:
 7193 2518 569A      		sbi 42-32,6
 7194               	.LM1116:
 7195 251a 5E98      		cbi 43-32,6
 7196               	.LM1117:
 7197 251c 84B7      		in r24,84-32
 7198               	.LVL314:
 7199               	.LM1118:
 7200 251e 14BE      		out 84-32,__zero_reg__
 7201               	.LM1119:
 7202 2520 90E0      		ldi r25,lo8(0)
 7203 2522 0E94 0000 		call uart_putw_hex
 7204               	.LVL315:
 7205               	.LM1120:
 7206 2526 88E1      		ldi r24,lo8(24)
 7207               	/* #APP */
 7208               	 ;  534 "iv.c" 1
 7209 2528 0FB6      		in __tmp_reg__, __SREG__
 7210 252a F894      		cli
 7211 252c 8093 6000 		sts 96, r24
 7212 2530 1092 6000 		sts 96, __zero_reg__
 7213 2534 0FBE      		out __SREG__,__tmp_reg__
 7214               		
 7215               	 ;  0 "" 2
 7216               	.LM1121:
 7217               	/* #NOAPP */
 7218 2536 2FE0      		ldi r18,lo8(15)
 7219 2538 88E1      		ldi r24,lo8(24)
 7220 253a 90E0      		ldi r25,hi8(24)
 7221               	/* #APP */
 7222               	 ;  538 "iv.c" 1
 7223 253c 0FB6      		in __tmp_reg__,__SREG__
 7224 253e F894      		cli
 7225 2540 A895      		wdr
 7226 2542 8093 6000 		sts 96,r24
 7227 2546 0FBE      		out __SREG__,__tmp_reg__
 7228 2548 2093 6000 		sts 96,r18
 7229               		
 7230               	 ;  0 "" 2
 7231               	/* #NOAPP */
 7232               	.LBB459:
 7233               	.LBB460:
 7234               	.LM1122:
 7235               	/* #APP */
 7236               	 ;  139 "iv.c" 1
 7237 254c A895      		wdr
 7238               	 ;  0 "" 2
 7239               	/* #NOAPP */
 7240               	.LBE460:
 7241               	.LBE459:
 7242               	.LM1123:
 7243 254e 11E0      		ldi r17,lo8(1)
 7244 2550 1093 0000 		sts timeunknown,r17
 7245               	.LM1124:
 7246 2554 1092 0000 		sts restored,__zero_reg__
 7247               	.LM1125:
 7248 2558 87E6      		ldi r24,lo8(103)
 7249 255a 90E0      		ldi r25,hi8(103)
 7250 255c 0E94 0000 		call uart_init
 7251               	.LM1126:
 7252 2560 80E0      		ldi r24,lo8(__c.2109)
 7253 2562 90E0      		ldi r25,hi8(__c.2109)
 7254 2564 61E0      		ldi r22,lo8(1)
 7255 2566 0E94 0000 		call ROM_putstring
 7256               	.LM1127:
 7257 256a 80E0      		ldi r24,lo8(.LC30)
 7258 256c 90E0      		ldi r25,hi8(.LC30)
 7259 256e 0E94 0000 		call uart_puts
 7260               	.LM1128:
 7261 2572 80E0      		ldi r24,lo8(.LC31)
 7262 2574 90E0      		ldi r25,hi8(.LC31)
 7263 2576 0E94 0000 		call uart_puts
 7264               	.LM1129:
 7265 257a 80E8      		ldi r24,lo8(128)
 7266 257c 90E0      		ldi r25,hi8(128)
 7267 257e 0E94 0000 		call uart_putw_dec
 7268               	.LM1130:
 7269 2582 80E0      		ldi r24,lo8(.LC28)
 7270 2584 90E0      		ldi r25,hi8(.LC28)
 7271 2586 0E94 0000 		call uart_puts
 7272               	.LM1131:
 7273 258a 28E4      		ldi r18,lo8(72)
 7274 258c 20BF      		out 80-32,r18
 7275               	.LBB461:
 7276               	.LBB462:
 7277               	.LBB463:
 7278               	.LBB464:
 7279               	.LM1132:
 7280 258e 80ED      		ldi r24,lo8(2000)
 7281 2590 97E0      		ldi r25,hi8(2000)
 7282               	.LVL316:
 7283               	/* #APP */
 7284               	 ;  105 "/Applications/Arduino.app/Contents/Resources/Java/hardware/tools/avr/bin/../lib/gcc/avr/4.
 7285 2592 0197      		1: sbiw r24,1
 7286 2594 01F4      		brne 1b
 7287               	 ;  0 "" 2
 7288               	/* #NOAPP */
 7289               	.LBE464:
 7290               	.LBE463:
 7291               	.LBE462:
 7292               	.LBE461:
 7293               	.LM1133:
 7294 2596 00B6      		in __tmp_reg__,80-32
 7295 2598 05FE      		sbrs __tmp_reg__,5
 7296 259a 00C0      		rjmp .L549
 7297               	.LM1134:
 7298 259c 80B7      		in r24,80-32
 7299               	.LVL317:
 7300 259e 8061      		ori r24,lo8(16)
 7301 25a0 80BF      		out 80-32,r24
 7302               	.LM1135:
 7303 25a2 80E0      		ldi r24,lo8(__c.2111)
 7304 25a4 90E0      		ldi r25,hi8(__c.2111)
 7305 25a6 61E0      		ldi r22,lo8(1)
 7306 25a8 0E94 0000 		call ROM_putstring
 7307               	.LM1136:
 7308 25ac 0E94 0000 		call clock_init
 7309 25b0 00C0      		rjmp .L550
 7310               	.LVL318:
 7311               	.L549:
 7312               	.LBB465:
 7313               	.LBB466:
 7314               	.LM1137:
 7315 25b2 8EE2      		ldi r24,lo8(46)
 7316               	.LVL319:
 7317 25b4 84B9      		out 36-32,r24
 7318               	.LM1138:
 7319 25b6 2AB9      		out 42-32,r18
 7320               	.LM1139:
 7321 25b8 89E0      		ldi r24,lo8(9)
 7322 25ba 87B9      		out 39-32,r24
 7323               	.LM1140:
 7324 25bc 84E3      		ldi r24,lo8(52)
 7325 25be 8BB9      		out 43-32,r24
 7326               	.LM1141:
 7327 25c0 15B9      		out 37-32,r17
 7328               	.LM1142:
 7329 25c2 85E0      		ldi r24,lo8(5)
 7330 25c4 8093 6800 		sts 104,r24
 7331               	.LM1143:
 7332 25c8 1093 6B00 		sts 107,r17
 7333               	.LM1144:
 7334 25cc 80E3      		ldi r24,lo8(48)
 7335 25ce 8093 6D00 		sts 109,r24
 7336               	.LBE466:
 7337               	.LBE465:
 7338               	.LM1145:
 7339 25d2 5B98      		cbi 43-32,3
 7340               	.LM1146:
 7341 25d4 80E0      		ldi r24,lo8(__c.2113)
 7342 25d6 90E0      		ldi r25,hi8(__c.2113)
 7343 25d8 61E0      		ldi r22,lo8(1)
 7344 25da 0E94 0000 		call ROM_putstring
 7345               	.LM1147:
 7346 25de 80E0      		ldi r24,lo8(__c.2115)
 7347 25e0 90E0      		ldi r25,hi8(__c.2115)
 7348 25e2 61E0      		ldi r22,lo8(1)
 7349 25e4 0E94 0000 		call ROM_putstring
 7350               	.LM1148:
 7351 25e8 1093 6900 		sts 105,r17
 7352               	.LM1149:
 7353 25ec 1DBB      		out 61-32,r17
 7354               	.LM1150:
 7355 25ee 1092 0000 		sts displaymode,__zero_reg__
 7356               	.LM1151:
 7357 25f2 80E0      		ldi r24,lo8(__c.2117)
 7358 25f4 90E0      		ldi r25,hi8(__c.2117)
 7359 25f6 61E0      		ldi r22,lo8(1)
 7360 25f8 0E94 0000 		call ROM_putstring
 7361               	.LBB467:
 7362               	.LBB468:
 7363               	.LM1152:
 7364 25fc 81E5      		ldi r24,lo8(81)
 7365 25fe 8CBD      		out 76-32,r24
 7366               	.LBE468:
 7367               	.LBE467:
 7368               	.LM1153:
 7369 2600 0E94 0000 		call dimmer_init
 7370               	.LM1154:
 7371 2604 80E0      		ldi r24,lo8(__c.2119)
 7372 2606 90E0      		ldi r25,hi8(__c.2119)
 7373 2608 61E0      		ldi r22,lo8(1)
 7374 260a 0E94 0000 		call ROM_putstring
 7375               	.L551:
 7376               	.LBB469:
 7377               	.LBB470:
 7378               	.LM1155:
 7379 260e F999      		sbic 63-32,1
 7380 2610 00C0      		rjmp .L551
 7381               	.LM1156:
 7382 2612 89E0      		ldi r24,lo8(9)
 7383 2614 90E0      		ldi r25,hi8(9)
 7384 2616 92BD      		out (65)+1-32,r25
 7385 2618 81BD      		out 65-32,r24
 7386               	.LM1157:
 7387               	/* #APP */
 7388               	 ;  208 "/Applications/Arduino.app/Contents/Resources/Java/hardware/tools/avr/bin/../lib/gcc/avr/4.
 7389               		/* START EEPROM READ CRITICAL SECTION */ 
 7390 261a F89A      		sbi 31, 0 
 7391 261c 80B5      		in r24, 32 
 7392               		/* END EEPROM READ CRITICAL SECTION */ 
 7393               		
 7394               	 ;  0 "" 2
 7395               	.LVL320:
 7396               	/* #NOAPP */
 7397               	.LBE470:
 7398               	.LBE469:
 7399               	.LM1158:
 7400 261e 8093 0000 		sts brightness_level,r24
 7401               	.LM1159:
 7402 2622 8091 0000 		lds r24,brightness_level
 7403               	.LVL321:
 7404 2626 0E94 0000 		call boost_init
 7405               	.LM1160:
 7406               	/* #APP */
 7407               	 ;  597 "iv.c" 1
 7408 262a 7894      		sei
 7409               	 ;  0 "" 2
 7410               	/* #NOAPP */
 7411               	.L552:
 7412               	.LBB471:
 7413               	.LBB472:
 7414               	.LM1161:
 7415 262c F999      		sbic 63-32,1
 7416 262e 00C0      		rjmp .L552
 7417               	.LM1162:
 7418 2630 8DE0      		ldi r24,lo8(13)
 7419 2632 90E0      		ldi r25,hi8(13)
 7420 2634 92BD      		out (65)+1-32,r25
 7421 2636 81BD      		out 65-32,r24
 7422               	.LM1163:
 7423               	/* #APP */
 7424               	 ;  208 "/Applications/Arduino.app/Contents/Resources/Java/hardware/tools/avr/bin/../lib/gcc/avr/4.
 7425               		/* START EEPROM READ CRITICAL SECTION */ 
 7426 2638 F89A      		sbi 31, 0 
 7427 263a 80B5      		in r24, 32 
 7428               		/* END EEPROM READ CRITICAL SECTION */ 
 7429               		
 7430               	 ;  0 "" 2
 7431               	.LVL322:
 7432               	/* #NOAPP */
 7433               	.LBE472:
 7434               	.LBE471:
 7435               	.LM1164:
 7436 263c 8093 0000 		sts intTimeZoneHour,r24
 7437               	.LM1165:
 7438 2640 845F      		subi r24,lo8(-(12))
 7439 2642 8931      		cpi r24,lo8(25)
 7440 2644 00F0      		brlo .L573
 7441               	.LM1166:
 7442 2646 1092 0000 		sts intTimeZoneHour,__zero_reg__
 7443               	.L573:
 7444               	.LBB473:
 7445               	.LBB474:
 7446               	.LM1167:
 7447 264a F999      		sbic 63-32,1
 7448 264c 00C0      		rjmp .L573
 7449               	.LM1168:
 7450 264e 8EE0      		ldi r24,lo8(14)
 7451 2650 90E0      		ldi r25,hi8(14)
 7452               	.LVL323:
 7453 2652 92BD      		out (65)+1-32,r25
 7454 2654 81BD      		out 65-32,r24
 7455               	.LM1169:
 7456               	/* #APP */
 7457               	 ;  208 "/Applications/Arduino.app/Contents/Resources/Java/hardware/tools/avr/bin/../lib/gcc/avr/4.
 7458               		/* START EEPROM READ CRITICAL SECTION */ 
 7459 2656 F89A      		sbi 31, 0 
 7460 2658 80B5      		in r24, 32 
 7461               		/* END EEPROM READ CRITICAL SECTION */ 
 7462               		
 7463               	 ;  0 "" 2
 7464               	.LVL324:
 7465               	/* #NOAPP */
 7466               	.LBE474:
 7467               	.LBE473:
 7468               	.LM1170:
 7469 265a 8093 0000 		sts intTimeZoneMin,r24
 7470               	.LM1171:
 7471 265e 8D33      		cpi r24,lo8(61)
 7472 2660 00F0      		brlo .L572
 7473               	.LM1172:
 7474 2662 1092 0000 		sts intTimeZoneMin,__zero_reg__
 7475               	.L572:
 7476               	.LBB475:
 7477               	.LBB476:
 7478               	.LM1173:
 7479 2666 F999      		sbic 63-32,1
 7480 2668 00C0      		rjmp .L572
 7481               	.LM1174:
 7482 266a 8BE0      		ldi r24,lo8(11)
 7483 266c 90E0      		ldi r25,hi8(11)
 7484               	.LVL325:
 7485 266e 92BD      		out (65)+1-32,r25
 7486 2670 81BD      		out 65-32,r24
 7487               	.LM1175:
 7488               	/* #APP */
 7489               	 ;  208 "/Applications/Arduino.app/Contents/Resources/Java/hardware/tools/avr/bin/../lib/gcc/avr/4.
 7490               		/* START EEPROM READ CRITICAL SECTION */ 
 7491 2672 F89A      		sbi 31, 0 
 7492 2674 80B5      		in r24, 32 
 7493               		/* END EEPROM READ CRITICAL SECTION */ 
 7494               		
 7495               	 ;  0 "" 2
 7496               	.LVL326:
 7497               	/* #NOAPP */
 7498               	.LBE476:
 7499               	.LBE475:
 7500               	.LM1176:
 7501 2676 8093 0000 		sts region,r24
 7502               	.LM1177:
 7503 267a 80E0      		ldi r24,lo8(__c.2121)
 7504 267c 90E0      		ldi r25,hi8(__c.2121)
 7505               	.LVL327:
 7506 267e 61E0      		ldi r22,lo8(1)
 7507 2680 0E94 0000 		call ROM_putstring
 7508               	.LM1178:
 7509 2684 0E94 0000 		call speaker_init
 7510               	.LM1179:
 7511 2688 80EA      		ldi r24,lo8(4000)
 7512 268a 9FE0      		ldi r25,hi8(4000)
 7513 268c 61E0      		ldi r22,lo8(1)
 7514 268e 0E94 0000 		call beep
 7515               	.LM1180:
 7516 2692 80E0      		ldi r24,lo8(__c.2123)
 7517 2694 90E0      		ldi r25,hi8(__c.2123)
 7518 2696 61E0      		ldi r22,lo8(1)
 7519 2698 0E94 0000 		call ROM_putstring
 7520               	.LM1181:
 7521 269c 0E94 0000 		call clock_init
 7522               	.LM1182:
 7523 26a0 80E0      		ldi r24,lo8(__c.2125)
 7524 26a2 90E0      		ldi r25,hi8(__c.2125)
 7525 26a4 61E0      		ldi r22,lo8(1)
 7526 26a6 0E94 0000 		call ROM_putstring
 7527               	.LM1183:
 7528 26aa 0E94 0000 		call setalarmstate
 7529               	.L550:
 7530               	.LM1184:
 7531 26ae 80E0      		ldi r24,lo8(__c.2127)
 7532 26b0 90E0      		ldi r25,hi8(__c.2127)
 7533 26b2 61E0      		ldi r22,lo8(1)
 7534 26b4 0E94 0000 		call ROM_putstring
 7535               	.LM1185:
 7536 26b8 F3E6      		ldi r31,lo8(99)
 7537 26ba AF2E      		mov r10,r31
 7538               	.LM1186:
 7539 26bc EBE0      		ldi r30,lo8(11)
 7540 26be BE2E      		mov r11,r30
 7541               	.LM1187:
 7542 26c0 78E0      		ldi r23,lo8(8)
 7543 26c2 C72E      		mov r12,r23
 7544               	.LM1188:
 7545 26c4 67E0      		ldi r22,lo8(7)
 7546 26c6 D62E      		mov r13,r22
 7547               	.LM1189:
 7548 26c8 56E0      		ldi r21,lo8(6)
 7549 26ca E52E      		mov r14,r21
 7550               	.LM1190:
 7551 26cc 45E0      		ldi r20,lo8(5)
 7552 26ce F42E      		mov r15,r20
 7553               	.LM1191:
 7554 26d0 03E0      		ldi r16,lo8(3)
 7555               	.LM1192:
 7556 26d2 14E0      		ldi r17,lo8(4)
 7557               	.L580:
 7558               	.LBB477:
 7559               	.LBB478:
 7560               	.LM1193:
 7561               	/* #APP */
 7562               	 ;  139 "iv.c" 1
 7563 26d4 A895      		wdr
 7564               	 ;  0 "" 2
 7565               	/* #NOAPP */
 7566               	.LBE478:
 7567               	.LBE477:
 7568               	.LM1194:
 7569 26d6 00B6      		in __tmp_reg__,80-32
 7570 26d8 05FE      		sbrs __tmp_reg__,5
 7571 26da 00C0      		rjmp .L555
 7572               	.LM1195:
 7573 26dc 0E94 0000 		call gotosleep
 7574 26e0 00C0      		rjmp .L580
 7575               	.L555:
 7576               	.LM1196:
 7577 26e2 8091 0000 		lds r24,just_pressed
 7578 26e6 80FF      		sbrs r24,0
 7579 26e8 00C0      		rjmp .L557
 7580               	.LM1197:
 7581 26ea 1092 0000 		sts just_pressed,__zero_reg__
 7582               	.LM1198:
 7583 26ee 8091 0000 		lds r24,displaymode
 7584 26f2 8530      		cpi r24,lo8(5)
 7585 26f4 01F0      		breq .L562
 7586 26f6 8630      		cpi r24,lo8(6)
 7587 26f8 00F4      		brsh .L566
 7588 26fa 8330      		cpi r24,lo8(3)
 7589 26fc 01F0      		breq .L560
 7590 26fe 8430      		cpi r24,lo8(4)
 7591 2700 00F4      		brsh .L561
 7592 2702 8823      		tst r24
 7593 2704 01F0      		breq .L559
 7594 2706 00C0      		rjmp .L581
 7595               	.L566:
 7596 2708 8730      		cpi r24,lo8(7)
 7597 270a 01F0      		breq .L564
 7598 270c 8730      		cpi r24,lo8(7)
 7599 270e 00F0      		brlo .L563
 7600 2710 8B30      		cpi r24,lo8(11)
 7601 2712 01F0      		breq .+2
 7602 2714 00C0      		rjmp .L581
 7603 2716 00C0      		rjmp .L582
 7604               	.L559:
 7605               	.LM1199:
 7606 2718 1093 0000 		sts displaymode,r17
 7607               	.LM1200:
 7608 271c 80E0      		ldi r24,lo8(.LC32)
 7609 271e 90E0      		ldi r25,hi8(.LC32)
 7610 2720 0E94 0000 		call display_str
 7611               	.LM1201:
 7612 2724 0E94 0000 		call set_alarm
 7613 2728 00C0      		rjmp .L567
 7614               	.L561:
 7615               	.LM1202:
 7616 272a 0093 0000 		sts displaymode,r16
 7617               	.LM1203:
 7618 272e 80E0      		ldi r24,lo8(.LC33)
 7619 2730 90E0      		ldi r25,hi8(.LC33)
 7620 2732 0E94 0000 		call display_str
 7621               	.LM1204:
 7622 2736 0E94 0000 		call set_time
 7623               	.LM1205:
 7624 273a 1092 0000 		sts timeunknown,__zero_reg__
 7625 273e 00C0      		rjmp .L567
 7626               	.L560:
 7627               	.LM1206:
 7628 2740 F092 0000 		sts displaymode,r15
 7629               	.LM1207:
 7630 2744 80E0      		ldi r24,lo8(.LC34)
 7631 2746 90E0      		ldi r25,hi8(.LC34)
 7632 2748 0E94 0000 		call display_str
 7633               	.LM1208:
 7634 274c 0E94 0000 		call set_date
 7635 2750 00C0      		rjmp .L567
 7636               	.L562:
 7637               	.LM1209:
 7638 2752 B092 0000 		sts displaymode,r11
 7639               	.LM1210:
 7640 2756 80E0      		ldi r24,lo8(.LC35)
 7641 2758 90E0      		ldi r25,hi8(.LC35)
 7642 275a 0E94 0000 		call display_str
 7643               	.LM1211:
 7644 275e 0E94 0000 		call set_timezone
 7645 2762 00C0      		rjmp .L567
 7646               	.L582:
 7647               	.LM1212:
 7648 2764 E092 0000 		sts displaymode,r14
 7649               	.LM1213:
 7650 2768 80E0      		ldi r24,lo8(.LC36)
 7651 276a 90E0      		ldi r25,hi8(.LC36)
 7652 276c 0E94 0000 		call display_str
 7653               	.LM1214:
 7654 2770 0E94 0000 		call set_brightness
 7655 2774 00C0      		rjmp .L567
 7656               	.L563:
 7657               	.LM1215:
 7658 2776 D092 0000 		sts displaymode,r13
 7659               	.LM1216:
 7660 277a 80E0      		ldi r24,lo8(.LC37)
 7661 277c 90E0      		ldi r25,hi8(.LC37)
 7662 277e 0E94 0000 		call display_str
 7663               	.LM1217:
 7664 2782 0E94 0000 		call set_volume
 7665 2786 00C0      		rjmp .L567
 7666               	.L564:
 7667               	.LM1218:
 7668 2788 C092 0000 		sts displaymode,r12
 7669               	.LM1219:
 7670 278c 80E0      		ldi r24,lo8(.LC38)
 7671 278e 90E0      		ldi r25,hi8(.LC38)
 7672 2790 0E94 0000 		call display_str
 7673               	.LM1220:
 7674 2794 0E94 0000 		call set_region
 7675 2798 00C0      		rjmp .L567
 7676               	.L557:
 7677               	.LM1221:
 7678 279a 8091 0000 		lds r24,just_pressed
 7679 279e 81FD      		sbrc r24,1
 7680 27a0 00C0      		rjmp .L568
 7681 27a2 8091 0000 		lds r24,just_pressed
 7682 27a6 82FF      		sbrs r24,2
 7683 27a8 00C0      		rjmp .L567
 7684               	.L568:
 7685               	.LM1222:
 7686 27aa 1092 0000 		sts just_pressed,__zero_reg__
 7687               	.LM1223:
 7688 27ae A092 0000 		sts displaymode,r10
 7689               	.LM1224:
 7690 27b2 81E0      		ldi r24,lo8(1)
 7691 27b4 0E94 0000 		call display_date
 7692               	.LBB479:
 7693               	.LBB480:
 7694               	.LM1225:
 7695               	/* #APP */
 7696               	 ;  139 "iv.c" 1
 7697 27b8 A895      		wdr
 7698               	 ;  0 "" 2
 7699               	/* #NOAPP */
 7700               	.LBE480:
 7701               	.LBE479:
 7702               	.LBB481:
 7703               	.LBB482:
 7704               	.LM1226:
 7705               	/* #APP */
 7706               	 ;  117 "iv.c" 1
 7707 27ba 7894      		sei
 7708               	 ;  0 "" 2
 7709               	.LM1227:
 7710               	/* #NOAPP */
 7711 27bc 1092 0000 		sts (milliseconds)+1,__zero_reg__
 7712 27c0 1092 0000 		sts milliseconds,__zero_reg__
 7713               	.L569:
 7714               	.LM1228:
 7715 27c4 8091 0000 		lds r24,milliseconds
 7716 27c8 9091 0000 		lds r25,(milliseconds)+1
 7717 27cc 8C5D      		subi r24,lo8(1500)
 7718 27ce 9540      		sbci r25,hi8(1500)
 7719 27d0 00F0      		brlo .L569
 7720               	.LBE482:
 7721               	.LBE481:
 7722               	.LBB483:
 7723               	.LBB484:
 7724               	.LM1229:
 7725               	/* #APP */
 7726               	 ;  139 "iv.c" 1
 7727 27d2 A895      		wdr
 7728               	 ;  0 "" 2
 7729               	/* #NOAPP */
 7730               	.L581:
 7731               	.LBE484:
 7732               	.LBE483:
 7733               	.LM1230:
 7734 27d4 1092 0000 		sts displaymode,__zero_reg__
 7735               	.L567:
 7736               	.LBB485:
 7737               	.LBB486:
 7738               	.LM1231:
 7739 27d8 8091 C000 		lds r24,192
 7740               	.LBE486:
 7741               	.LBE485:
 7742               	.LM1232:
 7743 27dc 87FF      		sbrs r24,7
 7744 27de 00C0      		rjmp .L580
 7745               	.LM1233:
 7746 27e0 0E94 0000 		call getgpstime
 7747 27e4 00C0      		rjmp .L580
 7748               	.LFE26:
 7750               	.global	__vector_1
 7752               	__vector_1:
 7753               	.LFB21:
 7754               	.LM1234:
 7755 27e6 1F92      		push __zero_reg__
 7756 27e8 0F92      		push r0
 7757 27ea 0FB6      		in r0,__SREG__
 7758 27ec 0F92      		push r0
 7759 27ee 1124      		clr __zero_reg__
 7760 27f0 2F93      		push r18
 7761 27f2 3F93      		push r19
 7762 27f4 4F93      		push r20
 7763 27f6 5F93      		push r21
 7764 27f8 6F93      		push r22
 7765 27fa 7F93      		push r23
 7766 27fc 8F93      		push r24
 7767 27fe 9F93      		push r25
 7768 2800 AF93      		push r26
 7769 2802 BF93      		push r27
 7770 2804 EF93      		push r30
 7771 2806 FF93      		push r31
 7772               	/* prologue: Signal */
 7773               	/* frame size = 0 */
 7774               	.LM1235:
 7775 2808 1DBA      		out 61-32,__zero_reg__
 7776               	.LM1236:
 7777 280a 89E6      		ldi r24,lo8(105)
 7778 280c 0E94 0000 		call uart_putchar
 7779               	.LM1237:
 7780 2810 29B1      		in r18,41-32
 7781               	.LM1238:
 7782               	/* #APP */
 7783               	 ;  357 "iv.c" 1
 7784 2812 7894      		sei
 7785               	 ;  0 "" 2
 7786               	/* #NOAPP */
 7787               	.LBB487:
 7788               	.LBB488:
 7789               	.LM1239:
 7790               	/* #APP */
 7791               	 ;  117 "iv.c" 1
 7792 2814 7894      		sei
 7793               	 ;  0 "" 2
 7794               	.LM1240:
 7795               	/* #NOAPP */
 7796 2816 1092 0000 		sts (milliseconds)+1,__zero_reg__
 7797 281a 1092 0000 		sts milliseconds,__zero_reg__
 7798               	.L584:
 7799               	.LM1241:
 7800 281e 8091 0000 		lds r24,milliseconds
 7801 2822 9091 0000 		lds r25,(milliseconds)+1
 7802 2826 0A97      		sbiw r24,10
 7803 2828 00F0      		brlo .L584
 7804               	.LBE488:
 7805               	.LBE487:
 7806               	.LM1242:
 7807 282a 89B1      		in r24,41-32
 7808 282c 2470      		andi r18,lo8(4)
 7809 282e 30E0      		ldi r19,lo8(0)
 7810 2830 90E0      		ldi r25,lo8(0)
 7811 2832 8470      		andi r24,lo8(4)
 7812 2834 9070      		andi r25,hi8(4)
 7813 2836 2817      		cp r18,r24
 7814 2838 3907      		cpc r19,r25
 7815 283a 01F4      		brne .L589
 7816               	.L585:
 7817               	.LM1243:
 7818 283c 0E94 0000 		call setalarmstate
 7819               	.L589:
 7820               	.LM1244:
 7821 2840 81E0      		ldi r24,lo8(1)
 7822 2842 8DBB      		out 61-32,r24
 7823               	/* epilogue start */
 7824               	.LM1245:
 7825 2844 FF91      		pop r31
 7826 2846 EF91      		pop r30
 7827 2848 BF91      		pop r27
 7828 284a AF91      		pop r26
 7829 284c 9F91      		pop r25
 7830 284e 8F91      		pop r24
 7831 2850 7F91      		pop r23
 7832 2852 6F91      		pop r22
 7833 2854 5F91      		pop r21
 7834 2856 4F91      		pop r20
 7835 2858 3F91      		pop r19
 7836 285a 2F91      		pop r18
 7837 285c 0F90      		pop r0
 7838 285e 0FBE      		out __SREG__,r0
 7839 2860 0F90      		pop r0
 7840 2862 1F90      		pop __zero_reg__
 7841 2864 1895      		reti
 7842               	.LFE21:
 7844               	.global	app_start
 7845               	.global	app_start
 7846               		.section .bss
 7849               	app_start:
 7850 0000 0000      		.skip 2,0
 7851               	.global	alphatable
 7852               		.section	.progmem.data,"a",@progbits
 7855               	alphatable:
 7856 0000 FA        		.byte	-6
 7857 0001 3E        		.byte	62
 7858 0002 1A        		.byte	26
 7859 0003 7A        		.byte	122
 7860 0004 DE        		.byte	-34
 7861 0005 8E        		.byte	-114
 7862 0006 F6        		.byte	-10
 7863 0007 2E        		.byte	46
 7864 0008 60        		.byte	96
 7865 0009 78        		.byte	120
 7866 000a AE        		.byte	-82
 7867 000b 1C        		.byte	28
 7868 000c AA        		.byte	-86
 7869 000d 2A        		.byte	42
 7870 000e 3A        		.byte	58
 7871 000f CE        		.byte	-50
 7872 0010 F3        		.byte	-13
 7873 0011 0A        		.byte	10
 7874 0012 B6        		.byte	-74
 7875 0013 1E        		.byte	30
 7876 0014 38        		.byte	56
 7877 0015 38        		.byte	56
 7878 0016 B8        		.byte	-72
 7879 0017 6E        		.byte	110
 7880 0018 76        		.byte	118
 7881 0019 DA        		.byte	-38
 7882               	.global	alphatable_p
 7885               	alphatable_p:
 7886 001a 0000      		.word	alphatable
 7887               	.global	numbertable
 7890               	numbertable:
 7891 001c FC        		.byte	-4
 7892 001d 60        		.byte	96
 7893 001e DA        		.byte	-38
 7894 001f F2        		.byte	-14
 7895 0020 66        		.byte	102
 7896 0021 B6        		.byte	-74
 7897 0022 BE        		.byte	-66
 7898 0023 E0        		.byte	-32
 7899 0024 FE        		.byte	-2
 7900 0025 F6        		.byte	-10
 7901               	.global	numbertable_p
 7904               	numbertable_p:
 7905 0026 0000      		.word	numbertable
 7906               	.global	region
 7907               	.global	region
 7908               		.section .bss
 7911               	region:
 7912 0002 00        		.skip 1,0
 7913               	.global	sleepmode
 7914               	.global	sleepmode
 7917               	sleepmode:
 7918 0003 00        		.skip 1,0
 7919               	.global	timeunknown
 7920               	.global	timeunknown
 7923               	timeunknown:
 7924 0004 00        		.skip 1,0
 7925               	.global	restored
 7926               	.global	restored
 7929               	restored:
 7930 0005 00        		.skip 1,0
 7931               	.global	intBufferStatus
 7932               	.global	intBufferStatus
 7935               	intBufferStatus:
 7936 0006 00        		.skip 1,0
 7937               	.global	intTimeZoneHour
 7938               		.data
 7941               	intTimeZoneHour:
 7942 0144 FA        		.byte	-6
 7943               	.global	intTimeZoneMin
 7944               	.global	intTimeZoneMin
 7945               		.section .bss
 7948               	intTimeZoneMin:
 7949 0007 00        		.skip 1,0
 7950               	.global	secondDisp
 7951               	.global	secondDisp
 7954               	secondDisp:
 7955 0008 00        		.skip 1,0
 7956               	.global	currdigit
 7957               	.global	currdigit
 7960               	currdigit:
 7961 0009 00        		.skip 1,0
 7962               	.global	digittable
 7963               		.section	.progmem.data
 7966               	digittable:
 7967 0028 03        		.byte	3
 7968 0029 07        		.byte	7
 7969 002a 08        		.byte	8
 7970 002b 09        		.byte	9
 7971 002c 06        		.byte	6
 7972 002d 0A        		.byte	10
 7973 002e 05        		.byte	5
 7974 002f 0C        		.byte	12
 7975 0030 04        		.byte	4
 7976               	.global	digittable_p
 7979               	digittable_p:
 7980 0031 0000      		.word	digittable
 7981               	.global	segmenttable
 7984               	segmenttable:
 7985 0033 0B        		.byte	11
 7986 0034 10        		.byte	16
 7987 0035 12        		.byte	18
 7988 0036 0F        		.byte	15
 7989 0037 0D        		.byte	13
 7990 0038 0E        		.byte	14
 7991 0039 11        		.byte	17
 7992 003a 13        		.byte	19
 7993               	.global	segmenttable_p
 7996               	segmenttable_p:
 7997 003b 0000      		.word	segmenttable
 7998               	.global	muxdiv
 7999               	.global	muxdiv
 8000               		.section .bss
 8003               	muxdiv:
 8004 000a 0000      		.skip 2,0
 8005               	.global	alarmdiv
 8006               	.global	alarmdiv
 8009               	alarmdiv:
 8010 000c 0000      		.skip 2,0
 8011               	.global	snoozetimer
 8012               	.global	snoozetimer
 8015               	snoozetimer:
 8016 000e 0000      		.skip 2,0
 8017               	.global	milliseconds
 8018               	.global	milliseconds
 8021               	milliseconds:
 8022 0010 0000      		.skip 2,0
 8023               	.global	last_buttonstate
 8024               	.global	last_buttonstate
 8027               	last_buttonstate:
 8028 0012 00        		.skip 1,0
 8029               	.global	just_pressed
 8030               	.global	just_pressed
 8033               	just_pressed:
 8034 0013 00        		.skip 1,0
 8035               	.global	pressed
 8036               	.global	pressed
 8039               	pressed:
 8040 0014 00        		.skip 1,0
 8041               	.global	buttonholdcounter
 8042               	.global	buttonholdcounter
 8045               	buttonholdcounter:
 8046 0015 00        		.skip 1,0
 8047               	.global	timeoutcounter
 8048               	.global	timeoutcounter
 8051               	timeoutcounter:
 8052 0016 00        		.skip 1,0
 8053               		.section	.progmem.data
 8056               	__c.3299:
 8057 003d 616C 6172 		.string	"alarm on!"
 8057      6D20 6F6E 
 8057      2100 
 8060               	__c.2571:
 8061 0047 616C 6172 		.string	"alarm off"
 8061      6D20 6F66 
 8061      6600 
 8064               	__c.2308:
 8065 0051 5365 7420 		.string	"Set day"
 8065      6461 7900 
 8068               	__c.2127:
 8069 0059 646F 6E65 		.string	"done"
 8069      00
 8072               	__c.2125:
 8073 005e 616C 6172 		.string	"alarm init"
 8073      6D20 696E 
 8073      6974 00
 8076               	__c.2123:
 8077 0069 636C 6F63 		.string	"clock init"
 8077      6B20 696E 
 8077      6974 00
 8080               	__c.2121:
 8081 0074 7370 6561 		.string	"speaker init"
 8081      6B65 7220 
 8081      696E 6974 
 8081      00
 8084               	__c.2119:
 8085 0081 626F 6F73 		.string	"boost init"
 8085      7420 696E 
 8085      6974 00
 8088               	__c.2117:
 8089 008c 7666 6420 		.string	"vfd init"
 8089      696E 6974 
 8089      00
 8092               	__c.2115:
 8093 0095 7475 726E 		.string	"turning on alarmsw"
 8093      696E 6720 
 8093      6F6E 2061 
 8093      6C61 726D 
 8093      7377 00
 8096               	__c.2113:
 8097 00a8 7475 726E 		.string	"turning on buttons"
 8097      696E 6720 
 8097      6F6E 2062 
 8097      7574 746F 
 8097      6E73 00
 8100               	__c.2111:
 8101 00bb 636C 6F63 		.string	"clock init"
 8101      6B20 696E 
 8101      6974 00
 8104               	__c.2109:
 8105 00c6 2100      		.string	"!"
 8108               	__c.2077:
 8109 00c8 7761 6B65 		.string	"waketime"
 8109      7469 6D65 
 8109      00
 8112               	__c.1995:
 8113 00d1 5741 4B45 		.string	"WAKERESET"
 8113      5245 5345 
 8113      5400 
 8116               	__c.1993:
 8117 00db 7A00      		.string	"z"
 8120               	__c.1907:
 8121 00dd 6232 00   		.string	"b2"
 8124               	__c.1855:
 8125 00e0 6233 00   		.string	"b3"
 8128               	__c.1853:
 8129 00e3 6231 00   		.string	"b1"
 8132               	__c.1804:
 8133 00e6 736E 6F6F 		.string	"snooze"
 8133      7A65 00
 8134               		.comm time_s,1,1
 8135               		.comm time_m,1,1
 8136               		.comm time_h,1,1
 8137               		.comm date_m,1,1
 8138               		.comm date_d,1,1
 8139               		.comm date_y,1,1
 8140               		.comm volume,1,1
 8141               		.comm brightness_level,1,1
 8142               		.comm alarm_on,1,1
 8143               		.comm alarming,1,1
 8144               		.comm alarm_h,1,1
 8145               		.comm alarm_m,1,1
 8146               		.comm displaymode,1,1
 8147               		.comm strBuffer,128,1
 8148               		.comm display,9,1
 8149               		.comm t,4,1
 8542               	.Letext0:
DEFINED SYMBOLS
                            *ABS*:00000000 iv.c
/var/folders/b_/rxjz5f5j4k59tw1p9srxlnl00000gp/T//ccL3Jvve.s:2      *ABS*:0000003f __SREG__
/var/folders/b_/rxjz5f5j4k59tw1p9srxlnl00000gp/T//ccL3Jvve.s:3      *ABS*:0000003e __SP_H__
/var/folders/b_/rxjz5f5j4k59tw1p9srxlnl00000gp/T//ccL3Jvve.s:4      *ABS*:0000003d __SP_L__
/var/folders/b_/rxjz5f5j4k59tw1p9srxlnl00000gp/T//ccL3Jvve.s:5      *ABS*:00000034 __CCP__
/var/folders/b_/rxjz5f5j4k59tw1p9srxlnl00000gp/T//ccL3Jvve.s:6      *ABS*:00000000 __tmp_reg__
/var/folders/b_/rxjz5f5j4k59tw1p9srxlnl00000gp/T//ccL3Jvve.s:7      *ABS*:00000001 __zero_reg__
/var/folders/b_/rxjz5f5j4k59tw1p9srxlnl00000gp/T//ccL3Jvve.s:20     .text:00000000 delayms
/var/folders/b_/rxjz5f5j4k59tw1p9srxlnl00000gp/T//ccL3Jvve.s:8021   .bss:00000010 milliseconds
/var/folders/b_/rxjz5f5j4k59tw1p9srxlnl00000gp/T//ccL3Jvve.s:51     .text:0000001c kickthedog
/var/folders/b_/rxjz5f5j4k59tw1p9srxlnl00000gp/T//ccL3Jvve.s:69     .text:00000020 gotosleep
/var/folders/b_/rxjz5f5j4k59tw1p9srxlnl00000gp/T//ccL3Jvve.s:7917   .bss:00000003 sleepmode
                            *COM*:00000001 volume
/var/folders/b_/rxjz5f5j4k59tw1p9srxlnl00000gp/T//ccL3Jvve.s:150    .text:0000007a initbuttons
/var/folders/b_/rxjz5f5j4k59tw1p9srxlnl00000gp/T//ccL3Jvve.s:185    .text:000000a0 display_brightness
/var/folders/b_/rxjz5f5j4k59tw1p9srxlnl00000gp/T//ccL3Jvve.s:7855   .progmem.data:00000000 alphatable
                            *COM*:00000009 display
                            *COM*:00000001 brightness_level
/var/folders/b_/rxjz5f5j4k59tw1p9srxlnl00000gp/T//ccL3Jvve.s:7890   .progmem.data:0000001c numbertable
/var/folders/b_/rxjz5f5j4k59tw1p9srxlnl00000gp/T//ccL3Jvve.s:311    .text:00000116 clock_init
                            *COM*:00000001 time_h
                            *COM*:00000001 time_m
                            *COM*:00000001 time_s
                            *COM*:00000001 alarm_m
                            *COM*:00000001 alarm_h
                            *COM*:00000001 date_y
                            *COM*:00000001 date_m
                            *COM*:00000001 date_d
/var/folders/b_/rxjz5f5j4k59tw1p9srxlnl00000gp/T//ccL3Jvve.s:7929   .bss:00000005 restored
/var/folders/b_/rxjz5f5j4k59tw1p9srxlnl00000gp/T//ccL3Jvve.s:572    .text:00000200 leapyear
/var/folders/b_/rxjz5f5j4k59tw1p9srxlnl00000gp/T//ccL3Jvve.s:612    .text:00000232 speaker_init
/var/folders/b_/rxjz5f5j4k59tw1p9srxlnl00000gp/T//ccL3Jvve.s:686    .text:0000029c tick
/var/folders/b_/rxjz5f5j4k59tw1p9srxlnl00000gp/T//ccL3Jvve.s:758    .text:000002ec beep
/var/folders/b_/rxjz5f5j4k59tw1p9srxlnl00000gp/T//ccL3Jvve.s:888    .text:0000037a dimmer_init
/var/folders/b_/rxjz5f5j4k59tw1p9srxlnl00000gp/T//ccL3Jvve.s:934    .text:000003b0 dimmer_update
/var/folders/b_/rxjz5f5j4k59tw1p9srxlnl00000gp/T//ccL3Jvve.s:953    .text:000003c4 __vector_21
/var/folders/b_/rxjz5f5j4k59tw1p9srxlnl00000gp/T//ccL3Jvve.s:1097   .text:0000047e boost_init
/var/folders/b_/rxjz5f5j4k59tw1p9srxlnl00000gp/T//ccL3Jvve.s:1155   .text:000004b0 set_vfd_brightness
/var/folders/b_/rxjz5f5j4k59tw1p9srxlnl00000gp/T//ccL3Jvve.s:1187   .text:000004c8 display_time
/var/folders/b_/rxjz5f5j4k59tw1p9srxlnl00000gp/T//ccL3Jvve.s:7954   .bss:00000008 secondDisp
/var/folders/b_/rxjz5f5j4k59tw1p9srxlnl00000gp/T//ccL3Jvve.s:7911   .bss:00000002 region
/var/folders/b_/rxjz5f5j4k59tw1p9srxlnl00000gp/T//ccL3Jvve.s:1456   .text:00000618 set_time
/var/folders/b_/rxjz5f5j4k59tw1p9srxlnl00000gp/T//ccL3Jvve.s:8051   .bss:00000016 timeoutcounter
/var/folders/b_/rxjz5f5j4k59tw1p9srxlnl00000gp/T//ccL3Jvve.s:8033   .bss:00000013 just_pressed
/var/folders/b_/rxjz5f5j4k59tw1p9srxlnl00000gp/T//ccL3Jvve.s:8039   .bss:00000014 pressed
                            *COM*:00000001 displaymode
/var/folders/b_/rxjz5f5j4k59tw1p9srxlnl00000gp/T//ccL3Jvve.s:1806   .text:00000832 display_alarm
/var/folders/b_/rxjz5f5j4k59tw1p9srxlnl00000gp/T//ccL3Jvve.s:2029   .text:00000932 set_alarm
/var/folders/b_/rxjz5f5j4k59tw1p9srxlnl00000gp/T//ccL3Jvve.s:2362   .text:00000b06 display_timezone
/var/folders/b_/rxjz5f5j4k59tw1p9srxlnl00000gp/T//ccL3Jvve.s:2515   .text:00000ba8 display_str
/var/folders/b_/rxjz5f5j4k59tw1p9srxlnl00000gp/T//ccL3Jvve.s:2641   .text:00000bf6 display_date
/var/folders/b_/rxjz5f5j4k59tw1p9srxlnl00000gp/T//ccL3Jvve.s:3206   .text:00000f12 set_region
/var/folders/b_/rxjz5f5j4k59tw1p9srxlnl00000gp/T//ccL3Jvve.s:3393   .text:00000fee set_volume
/var/folders/b_/rxjz5f5j4k59tw1p9srxlnl00000gp/T//ccL3Jvve.s:3621   .text:0000112a set_brightness
/var/folders/b_/rxjz5f5j4k59tw1p9srxlnl00000gp/T//ccL3Jvve.s:3784   .text:00001212 vfd_init
/var/folders/b_/rxjz5f5j4k59tw1p9srxlnl00000gp/T//ccL3Jvve.s:3799   .text:00001218 vfd_send
/var/folders/b_/rxjz5f5j4k59tw1p9srxlnl00000gp/T//ccL3Jvve.s:3873   .text:0000124c setdisplay
/var/folders/b_/rxjz5f5j4k59tw1p9srxlnl00000gp/T//ccL3Jvve.s:7966   .progmem.data:00000028 digittable
                            *COM*:00000004 t
/var/folders/b_/rxjz5f5j4k59tw1p9srxlnl00000gp/T//ccL3Jvve.s:7984   .progmem.data:00000033 segmenttable
/var/folders/b_/rxjz5f5j4k59tw1p9srxlnl00000gp/T//ccL3Jvve.s:4003   .text:00001304 __vector_16
/var/folders/b_/rxjz5f5j4k59tw1p9srxlnl00000gp/T//ccL3Jvve.s:8003   .bss:0000000a muxdiv
/var/folders/b_/rxjz5f5j4k59tw1p9srxlnl00000gp/T//ccL3Jvve.s:7960   .bss:00000009 currdigit
                            *COM*:00000001 alarming
/var/folders/b_/rxjz5f5j4k59tw1p9srxlnl00000gp/T//ccL3Jvve.s:8015   .bss:0000000e snoozetimer
/var/folders/b_/rxjz5f5j4k59tw1p9srxlnl00000gp/T//ccL3Jvve.s:8009   .bss:0000000c alarmdiv
/var/folders/b_/rxjz5f5j4k59tw1p9srxlnl00000gp/T//ccL3Jvve.s:4164   .text:0000143c spi_xfer
/var/folders/b_/rxjz5f5j4k59tw1p9srxlnl00000gp/T//ccL3Jvve.s:4184   .text:00001446 gpsdataready
/var/folders/b_/rxjz5f5j4k59tw1p9srxlnl00000gp/T//ccL3Jvve.s:4199   .text:0000144e setgpstime
/var/folders/b_/rxjz5f5j4k59tw1p9srxlnl00000gp/T//ccL3Jvve.s:7941   .data:00000144 intTimeZoneHour
/var/folders/b_/rxjz5f5j4k59tw1p9srxlnl00000gp/T//ccL3Jvve.s:7948   .bss:00000007 intTimeZoneMin
/var/folders/b_/rxjz5f5j4k59tw1p9srxlnl00000gp/T//ccL3Jvve.s:4295   .text:000014f6 setgpsdate
/var/folders/b_/rxjz5f5j4k59tw1p9srxlnl00000gp/T//ccL3Jvve.s:7923   .bss:00000004 timeunknown
/var/folders/b_/rxjz5f5j4k59tw1p9srxlnl00000gp/T//ccL3Jvve.s:4345   .text:0000153a fix_time
/var/folders/b_/rxjz5f5j4k59tw1p9srxlnl00000gp/T//ccL3Jvve.s:4930   .text:00001868 check_alarm
                            *COM*:00000001 alarm_on
/var/folders/b_/rxjz5f5j4k59tw1p9srxlnl00000gp/T//ccL3Jvve.s:8056   .progmem.data:0000003d __c.3299
/var/folders/b_/rxjz5f5j4k59tw1p9srxlnl00000gp/T//ccL3Jvve.s:4974   .text:000018a0 __vector_9
/var/folders/b_/rxjz5f5j4k59tw1p9srxlnl00000gp/T//ccL3Jvve.s:8045   .bss:00000015 buttonholdcounter
/var/folders/b_/rxjz5f5j4k59tw1p9srxlnl00000gp/T//ccL3Jvve.s:5136   .text:000019c4 setalarmstate
/var/folders/b_/rxjz5f5j4k59tw1p9srxlnl00000gp/T//ccL3Jvve.s:8060   .progmem.data:00000047 __c.2571
/var/folders/b_/rxjz5f5j4k59tw1p9srxlnl00000gp/T//ccL3Jvve.s:5244   .text:00001a6c set_date
/var/folders/b_/rxjz5f5j4k59tw1p9srxlnl00000gp/T//ccL3Jvve.s:8064   .progmem.data:00000051 __c.2308
/var/folders/b_/rxjz5f5j4k59tw1p9srxlnl00000gp/T//ccL3Jvve.s:5670   .text:00001d02 wakeup
/var/folders/b_/rxjz5f5j4k59tw1p9srxlnl00000gp/T//ccL3Jvve.s:8108   .progmem.data:000000c8 __c.2077
/var/folders/b_/rxjz5f5j4k59tw1p9srxlnl00000gp/T//ccL3Jvve.s:5858   .text:00001dbe __vector_23
/var/folders/b_/rxjz5f5j4k59tw1p9srxlnl00000gp/T//ccL3Jvve.s:8116   .progmem.data:000000db __c.1993
/var/folders/b_/rxjz5f5j4k59tw1p9srxlnl00000gp/T//ccL3Jvve.s:8112   .progmem.data:000000d1 __c.1995
/var/folders/b_/rxjz5f5j4k59tw1p9srxlnl00000gp/T//ccL3Jvve.s:7849   .bss:00000000 app_start
/var/folders/b_/rxjz5f5j4k59tw1p9srxlnl00000gp/T//ccL3Jvve.s:6092   .text:00001ede setsnooze
/var/folders/b_/rxjz5f5j4k59tw1p9srxlnl00000gp/T//ccL3Jvve.s:8132   .progmem.data:000000e6 __c.1804
/var/folders/b_/rxjz5f5j4k59tw1p9srxlnl00000gp/T//ccL3Jvve.s:6143   .text:00001f20 __vector_3
/var/folders/b_/rxjz5f5j4k59tw1p9srxlnl00000gp/T//ccL3Jvve.s:8027   .bss:00000012 last_buttonstate
/var/folders/b_/rxjz5f5j4k59tw1p9srxlnl00000gp/T//ccL3Jvve.s:8120   .progmem.data:000000dd __c.1907
/var/folders/b_/rxjz5f5j4k59tw1p9srxlnl00000gp/T//ccL3Jvve.s:6259   .text:00001fd2 __vector_5
/var/folders/b_/rxjz5f5j4k59tw1p9srxlnl00000gp/T//ccL3Jvve.s:8128   .progmem.data:000000e3 __c.1853
/var/folders/b_/rxjz5f5j4k59tw1p9srxlnl00000gp/T//ccL3Jvve.s:8124   .progmem.data:000000e0 __c.1855
/var/folders/b_/rxjz5f5j4k59tw1p9srxlnl00000gp/T//ccL3Jvve.s:6473   .text:00002110 getgpstime
/var/folders/b_/rxjz5f5j4k59tw1p9srxlnl00000gp/T//ccL3Jvve.s:7935   .bss:00000006 intBufferStatus
                            *COM*:00000080 strBuffer
/var/folders/b_/rxjz5f5j4k59tw1p9srxlnl00000gp/T//ccL3Jvve.s:6848   .text:00002336 set_timezone
/var/folders/b_/rxjz5f5j4k59tw1p9srxlnl00000gp/T//ccL3Jvve.s:7177   .text:00002506 main
/var/folders/b_/rxjz5f5j4k59tw1p9srxlnl00000gp/T//ccL3Jvve.s:8104   .progmem.data:000000c6 __c.2109
/var/folders/b_/rxjz5f5j4k59tw1p9srxlnl00000gp/T//ccL3Jvve.s:8100   .progmem.data:000000bb __c.2111
/var/folders/b_/rxjz5f5j4k59tw1p9srxlnl00000gp/T//ccL3Jvve.s:8096   .progmem.data:000000a8 __c.2113
/var/folders/b_/rxjz5f5j4k59tw1p9srxlnl00000gp/T//ccL3Jvve.s:8092   .progmem.data:00000095 __c.2115
/var/folders/b_/rxjz5f5j4k59tw1p9srxlnl00000gp/T//ccL3Jvve.s:8088   .progmem.data:0000008c __c.2117
/var/folders/b_/rxjz5f5j4k59tw1p9srxlnl00000gp/T//ccL3Jvve.s:8084   .progmem.data:00000081 __c.2119
/var/folders/b_/rxjz5f5j4k59tw1p9srxlnl00000gp/T//ccL3Jvve.s:8080   .progmem.data:00000074 __c.2121
/var/folders/b_/rxjz5f5j4k59tw1p9srxlnl00000gp/T//ccL3Jvve.s:8076   .progmem.data:00000069 __c.2123
/var/folders/b_/rxjz5f5j4k59tw1p9srxlnl00000gp/T//ccL3Jvve.s:8072   .progmem.data:0000005e __c.2125
/var/folders/b_/rxjz5f5j4k59tw1p9srxlnl00000gp/T//ccL3Jvve.s:8068   .progmem.data:00000059 __c.2127
/var/folders/b_/rxjz5f5j4k59tw1p9srxlnl00000gp/T//ccL3Jvve.s:7752   .text:000027e6 __vector_1
/var/folders/b_/rxjz5f5j4k59tw1p9srxlnl00000gp/T//ccL3Jvve.s:7885   .progmem.data:0000001a alphatable_p
/var/folders/b_/rxjz5f5j4k59tw1p9srxlnl00000gp/T//ccL3Jvve.s:7904   .progmem.data:00000026 numbertable_p
/var/folders/b_/rxjz5f5j4k59tw1p9srxlnl00000gp/T//ccL3Jvve.s:7979   .progmem.data:00000031 digittable_p
/var/folders/b_/rxjz5f5j4k59tw1p9srxlnl00000gp/T//ccL3Jvve.s:7996   .progmem.data:0000003b segmenttable_p

UNDEFINED SYMBOLS
__do_copy_data
__do_clear_bss
__divmodhi4
__udivmodqi4
__udivmodhi4
__divmodsi4
__mulsi3
__udivmodsi4
__divmodqi4
ROM_putstring
strcmp
uart_puts
strchr
strncat
uart_putw_dec
uart_putw_hex
uart_init
uart_putchar
