   1               		.file	"iv.c"
   2               	__SREG__ = 0x3f
   3               	__SP_H__ = 0x3e
   4               	__SP_L__ = 0x3d
   5               	__CCP__  = 0x34
   6               	__tmp_reg__ = 0
   7               	__zero_reg__ = 1
   8               		.global __do_copy_data
   9               		.global __do_clear_bss
  17               	.Ltext0:
  18               	.global	twiInit
  20               	twiInit:
  21               	.LFB24:
  22               	.LM1:
  23               	/* prologue: function */
  24               	/* frame size = 0 */
  25               	.LM2:
  26 0000 1092 B900 		sts 185,__zero_reg__
  27               	.LM3:
  28 0004 80E2      		ldi r24,lo8(32)
  29 0006 8093 B800 		sts 184,r24
  30               	/* epilogue start */
  31               	.LM4:
  32 000a 0895      		ret
  33               	.LFE24:
  35               	.global	delayms
  37               	delayms:
  38               	.LFB26:
  39               	.LM5:
  40               	.LVL0:
  41               	/* prologue: function */
  42               	/* frame size = 0 */
  43 000c 9C01      		movw r18,r24
  44               	.LM6:
  45               	/* #APP */
  46               	 ;  140 "iv.c" 1
  47 000e 7894      		sei
  48               	 ;  0 "" 2
  49               	.LM7:
  50               	/* #NOAPP */
  51 0010 1092 0000 		sts (milliseconds)+1,__zero_reg__
  52 0014 1092 0000 		sts milliseconds,__zero_reg__
  53               	.LVL1:
  54               	.L4:
  55               	.LM8:
  56 0018 8091 0000 		lds r24,milliseconds
  57 001c 9091 0000 		lds r25,(milliseconds)+1
  58 0020 8217      		cp r24,r18
  59 0022 9307      		cpc r25,r19
  60 0024 00F0      		brlo .L4
  61               	/* epilogue start */
  62               	.LM9:
  63 0026 0895      		ret
  64               	.LFE26:
  66               	.global	kickthedog
  68               	kickthedog:
  69               	.LFB28:
  70               	.LM10:
  71               	/* prologue: function */
  72               	/* frame size = 0 */
  73               	.LM11:
  74               	/* #APP */
  75               	 ;  162 "iv.c" 1
  76 0028 A895      		wdr
  77               	 ;  0 "" 2
  78               	/* epilogue start */
  79               	.LM12:
  80               	/* #NOAPP */
  81 002a 0895      		ret
  82               	.LFE28:
  84               	.global	gotosleep
  86               	gotosleep:
  87               	.LFB35:
  88               	.LM13:
  89               	/* prologue: function */
  90               	/* frame size = 0 */
  91               	.LM14:
  92 002c 81E0      		ldi r24,lo8(1)
  93 002e 8093 0000 		sts sleepmode,r24
  94               	.LM15:
  95 0032 5B9A      		sbi 43-32,3
  96               	.LM16:
  97 0034 8CB5      		in r24,76-32
  98 0036 8F7B      		andi r24,lo8(-65)
  99 0038 8CBD      		out 76-32,r24
 100               	.LM17:
 101 003a 85B1      		in r24,37-32
 102 003c 877D      		andi r24,lo8(-41)
 103 003e 85B9      		out 37-32,r24
 104               	.LM18:
 105 0040 5E98      		cbi 43-32,6
 106               	.LM19:
 107 0042 15BC      		out 69-32,__zero_reg__
 108               	.LM20:
 109 0044 1092 0000 		sts volume,__zero_reg__
 110               	.LM21:
 111 0048 1092 6800 		sts 104,__zero_reg__
 112               	.LM22:
 113 004c 4598      		cbi 40-32,5
 114               	.LM23:
 115 004e 85B1      		in r24,37-32
 116 0050 897F      		andi r24,lo8(-7)
 117 0052 85B9      		out 37-32,r24
 118               	.LM24:
 119 0054 8BB1      		in r24,43-32
 120 0056 8F7C      		andi r24,lo8(-49)
 121 0058 8BB9      		out 43-32,r24
 122               	.LM25:
 123 005a 2898      		cbi 37-32,0
 124               	.LM26:
 125 005c 8AB1      		in r24,42-32
 126 005e 8F7C      		andi r24,lo8(-49)
 127 0060 8AB9      		out 42-32,r24
 128               	.LM27:
 129 0062 2098      		cbi 36-32,0
 130               	.LM28:
 131 0064 5A98      		cbi 43-32,2
 132               	.LM29:
 133 0066 5298      		cbi 42-32,2
 134               	.LM30:
 135 0068 E1E6      		ldi r30,lo8(97)
 136 006a F0E0      		ldi r31,hi8(97)
 137 006c 90E8      		ldi r25,lo8(-128)
 138 006e 9083      		st Z,r25
 139               	.LM31:
 140 0070 88E0      		ldi r24,lo8(8)
 141 0072 8083      		st Z,r24
 142               	.LM32:
 143 0074 449A      		sbi 40-32,4
 144               	.LM33:
 145 0076 83B7      		in r24,83-32
 146 0078 8760      		ori r24,lo8(7)
 147 007a 83BF      		out 83-32,r24
 148               	.LM34:
 149               	/* #APP */
 150               	 ;  472 "iv.c" 1
 151 007c 8895      		sleep
 152               	 ;  0 "" 2
 153               	.LM35:
 154               	/* #NOAPP */
 155 007e 9083      		st Z,r25
 156               	.LM36:
 157 0080 1082      		st Z,__zero_reg__
 158               	.LM37:
 159 0082 4498      		cbi 40-32,4
 160               	/* epilogue start */
 161               	.LM38:
 162 0084 0895      		ret
 163               	.LFE35:
 165               	.global	initbuttons
 167               	initbuttons:
 168               	.LFB37:
 169               	.LM39:
 170               	/* prologue: function */
 171               	/* frame size = 0 */
 172               	.LM40:
 173 0086 8EE2      		ldi r24,lo8(46)
 174 0088 84B9      		out 36-32,r24
 175               	.LM41:
 176 008a 88E4      		ldi r24,lo8(72)
 177 008c 8AB9      		out 42-32,r24
 178               	.LM42:
 179 008e 89E0      		ldi r24,lo8(9)
 180 0090 87B9      		out 39-32,r24
 181               	.LM43:
 182 0092 84E3      		ldi r24,lo8(52)
 183 0094 8BB9      		out 43-32,r24
 184               	.LM44:
 185 0096 91E0      		ldi r25,lo8(1)
 186 0098 95B9      		out 37-32,r25
 187               	.LM45:
 188 009a 85E0      		ldi r24,lo8(5)
 189 009c 8093 6800 		sts 104,r24
 190               	.LM46:
 191 00a0 9093 6B00 		sts 107,r25
 192               	.LM47:
 193 00a4 80E3      		ldi r24,lo8(48)
 194 00a6 8093 6D00 		sts 109,r24
 195               	/* epilogue start */
 196               	.LM48:
 197 00aa 0895      		ret
 198               	.LFE37:
 200               	.global	b2bcd
 202               	b2bcd:
 203               	.LFB40:
 204               	.LM49:
 205               	.LVL2:
 206               	/* prologue: function */
 207               	/* frame size = 0 */
 208 00ac 482F      		mov r20,r24
 209               	.LM50:
 210 00ae 6AE0      		ldi r22,lo8(10)
 211 00b0 0E94 0000 		call __udivmodqi4
 212               	.LVL3:
 213 00b4 282F      		mov r18,r24
 214 00b6 30E0      		ldi r19,lo8(0)
 215 00b8 84E0      		ldi r24,4
 216 00ba 220F      	1:	lsl r18
 217 00bc 331F      		rol r19
 218 00be 8A95      		dec r24
 219 00c0 01F4      		brne 1b
 220 00c2 842F      		mov r24,r20
 221 00c4 0E94 0000 		call __udivmodqi4
 222               	.LM51:
 223 00c8 892F      		mov r24,r25
 224 00ca 822B      		or r24,r18
 225               	/* epilogue start */
 226 00cc 0895      		ret
 227               	.LFE40:
 229               	.global	bcd2b
 231               	bcd2b:
 232               	.LFB41:
 233               	.LM52:
 234               	.LVL4:
 235               	/* prologue: function */
 236               	/* frame size = 0 */
 237               	.LM53:
 238 00ce 282F      		mov r18,r24
 239 00d0 2295      		swap r18
 240 00d2 2F70      		andi r18,lo8(15)
 241 00d4 9AE0      		ldi r25,lo8(10)
 242 00d6 299F      		mul r18,r25
 243 00d8 9001      		movw r18,r0
 244 00da 1124      		clr r1
 245 00dc 8F70      		andi r24,lo8(15)
 246               	.LVL5:
 247               	.LM54:
 248 00de 820F      		add r24,r18
 249               	.LVL6:
 250               	/* epilogue start */
 251 00e0 0895      		ret
 252               	.LFE41:
 254               	.global	display_brightness
 256               	display_brightness:
 257               	.LFB46:
 258               	.LM55:
 259               	.LVL7:
 260               	/* prologue: function */
 261               	/* frame size = 0 */
 262 00e2 9C01      		movw r18,r24
 263               	.LM56:
 264 00e4 0097      		sbiw r24,0
 265 00e6 01F4      		brne .L18
 266               	.LBB273:
 267               	.LM57:
 268 00e8 E0E0      		ldi r30,lo8(alphatable)
 269 00ea F0E0      		ldi r31,hi8(alphatable)
 270               	/* #APP */
 271               	 ;  1154 "iv.c" 1
 272 00ec 8491      		lpm r24, Z
 273               		
 274               	 ;  0 "" 2
 275               	.LVL8:
 276               	/* #NOAPP */
 277               	.LBE273:
 278 00ee 8160      		ori r24,lo8(1)
 279 00f0 8093 0000 		sts display+7,r24
 280               	.LBB274:
 281               	.LM58:
 282 00f4 7496      		adiw r30,20
 283               	/* #APP */
 284               	 ;  1155 "iv.c" 1
 285 00f6 E491      		lpm r30, Z
 286               		
 287               	 ;  0 "" 2
 288               	.LVL9:
 289               	/* #NOAPP */
 290               	.LBE274:
 291 00f8 E160      		ori r30,lo8(1)
 292 00fa E093 0000 		sts display+8,r30
 293               	.LBB275:
 294               	.LBB276:
 295               	.LM59:
 296 00fe 8091 0000 		lds r24,brightness_level
 297               	.LVL10:
 298 0102 8823      		tst r24
 299 0104 01F4      		brne .L22
 300               	.LM60:
 301 0106 8091 7A00 		lds r24,122
 302 010a 8064      		ori r24,lo8(64)
 303 010c 8093 7A00 		sts 122,r24
 304 0110 0895      		ret
 305               	.LVL11:
 306               	.L18:
 307               	.LBE276:
 308               	.LBE275:
 309               	.LBB277:
 310               	.LM61:
 311 0112 6AE0      		ldi r22,lo8(10)
 312 0114 70E0      		ldi r23,hi8(10)
 313 0116 0E94 0000 		call __divmodhi4
 314               	.LVL12:
 315 011a FB01      		movw r30,r22
 316 011c E050      		subi r30,lo8(-(numbertable))
 317 011e F040      		sbci r31,hi8(-(numbertable))
 318               	/* #APP */
 319               	 ;  1160 "iv.c" 1
 320 0120 E491      		lpm r30, Z
 321               		
 322               	 ;  0 "" 2
 323               	.LVL13:
 324               	/* #NOAPP */
 325               	.LBE277:
 326 0122 E160      		ori r30,lo8(1)
 327 0124 E093 0000 		sts display+7,r30
 328               	.LBB278:
 329               	.LM62:
 330 0128 C901      		movw r24,r18
 331 012a 6AE0      		ldi r22,lo8(10)
 332 012c 70E0      		ldi r23,hi8(10)
 333 012e 0E94 0000 		call __divmodhi4
 334 0132 FC01      		movw r30,r24
 335               	.LVL14:
 336 0134 E050      		subi r30,lo8(-(numbertable))
 337 0136 F040      		sbci r31,hi8(-(numbertable))
 338               	/* #APP */
 339               	 ;  1161 "iv.c" 1
 340 0138 E491      		lpm r30, Z
 341               		
 342               	 ;  0 "" 2
 343               	.LVL15:
 344               	/* #NOAPP */
 345               	.LBE278:
 346 013a E160      		ori r30,lo8(1)
 347 013c E093 0000 		sts display+8,r30
 348               	.LM63:
 349 0140 922F      		mov r25,r18
 350               	.LVL16:
 351               	.LBB279:
 352               	.LBB280:
 353               	.LM64:
 354 0142 2B35      		cpi r18,lo8(91)
 355 0144 00F0      		brlo .L20
 356               	.LVL17:
 357 0146 9AE5      		ldi r25,lo8(90)
 358               	.LVL18:
 359 0148 00C0      		rjmp .L21
 360               	.LVL19:
 361               	.L20:
 362               	.LM65:
 363 014a 2E31      		cpi r18,lo8(30)
 364 014c 00F4      		brsh .L21
 365 014e 9EE1      		ldi r25,lo8(30)
 366               	.LVL20:
 367               	.L21:
 368               	.LM66:
 369 0150 87B5      		in r24,71-32
 370 0152 8913      		cpse r24,r25
 371               	.LM67:
 372 0154 97BD      		out 71-32,r25
 373               	.LVL21:
 374               	.L22:
 375 0156 0895      		ret
 376               	.LBE280:
 377               	.LBE279:
 378               	.LFE46:
 380               	.global	rtc_init
 382               	rtc_init:
 383               	.LFB50:
 384               	.LM68:
 385               	/* prologue: function */
 386               	/* frame size = 0 */
 387               	.LM69:
 388 0158 E6EB      		ldi r30,lo8(182)
 389 015a F0E0      		ldi r31,hi8(182)
 390 015c 8081      		ld r24,Z
 391 015e 8064      		ori r24,lo8(64)
 392 0160 8083      		st Z,r24
 393               	.LM70:
 394 0162 8081      		ld r24,Z
 395 0164 8062      		ori r24,lo8(32)
 396 0166 8083      		st Z,r24
 397               	.LM71:
 398 0168 1092 B000 		sts 176,__zero_reg__
 399               	.LM72:
 400 016c 85E0      		ldi r24,lo8(5)
 401 016e 8093 B100 		sts 177,r24
 402               	.LM73:
 403 0172 E1E6      		ldi r30,lo8(97)
 404 0174 F0E0      		ldi r31,hi8(97)
 405 0176 80E8      		ldi r24,lo8(-128)
 406 0178 8083      		st Z,r24
 407               	.LM74:
 408 017a 1082      		st Z,__zero_reg__
 409               	.LM75:
 410 017c 81E0      		ldi r24,lo8(1)
 411 017e 8093 7000 		sts 112,r24
 412               	/* epilogue start */
 413               	.LM76:
 414 0182 0895      		ret
 415               	.LFE50:
 417               	.global	alarm_init
 419               	alarm_init:
 420               	.LFB51:
 421               	.LM77:
 422               	/* prologue: function */
 423               	/* frame size = 0 */
 424               	.L26:
 425               	.LBB281:
 426               	.LBB282:
 427               	.LM78:
 428 0184 F999      		sbic 63-32,1
 429 0186 00C0      		rjmp .L26
 430               	.LM79:
 431 0188 88E0      		ldi r24,lo8(8)
 432 018a 90E0      		ldi r25,hi8(8)
 433 018c 92BD      		out (65)+1-32,r25
 434 018e 81BD      		out 65-32,r24
 435               	.LM80:
 436               	/* #APP */
 437               	 ;  208 "/Applications/Arduino.app/Contents/Resources/Java/hardware/tools/avr/bin/../lib/gcc/avr/4.
 438               		/* START EEPROM READ CRITICAL SECTION */ 
 439 0190 F89A      		sbi 31, 0 
 440 0192 80B5      		in r24, 32 
 441               		/* END EEPROM READ CRITICAL SECTION */ 
 442               		
 443               	 ;  0 "" 2
 444               	.LVL22:
 445               	/* #NOAPP */
 446               	.LBE282:
 447               	.LBE281:
 448               	.LM81:
 449 0194 6CE3      		ldi r22,lo8(60)
 450 0196 0E94 0000 		call __udivmodqi4
 451               	.LVL23:
 452 019a 9093 0000 		sts alarm_m,r25
 453               	.L27:
 454               	.LBB283:
 455               	.LBB284:
 456               	.LM82:
 457 019e F999      		sbic 63-32,1
 458 01a0 00C0      		rjmp .L27
 459               	.LM83:
 460 01a2 87E0      		ldi r24,lo8(7)
 461 01a4 90E0      		ldi r25,hi8(7)
 462 01a6 92BD      		out (65)+1-32,r25
 463 01a8 81BD      		out 65-32,r24
 464               	.LM84:
 465               	/* #APP */
 466               	 ;  208 "/Applications/Arduino.app/Contents/Resources/Java/hardware/tools/avr/bin/../lib/gcc/avr/4.
 467               		/* START EEPROM READ CRITICAL SECTION */ 
 468 01aa F89A      		sbi 31, 0 
 469 01ac 80B5      		in r24, 32 
 470               		/* END EEPROM READ CRITICAL SECTION */ 
 471               		
 472               	 ;  0 "" 2
 473               	.LVL24:
 474               	/* #NOAPP */
 475               	.LBE284:
 476               	.LBE283:
 477               	.LM85:
 478 01ae 68E1      		ldi r22,lo8(24)
 479 01b0 0E94 0000 		call __udivmodqi4
 480               	.LVL25:
 481 01b4 9093 0000 		sts alarm_h,r25
 482               	/* epilogue start */
 483               	.LM86:
 484 01b8 0895      		ret
 485               	.LFE51:
 487               	.global	dow
 489               	dow:
 490               	.LFB53:
 491               	.LM87:
 492               	.LVL26:
 493 01ba 1F93      		push r17
 494 01bc CF93      		push r28
 495 01be DF93      		push r29
 496               	/* prologue: function */
 497               	/* frame size = 0 */
 498               	.LM88:
 499 01c0 90E0      		ldi r25,lo8(0)
 500 01c2 8053      		subi r24,lo8(-(2000))
 501 01c4 984F      		sbci r25,hi8(-(2000))
 502               	.LVL27:
 503 01c6 20E0      		ldi r18,lo8(0)
 504 01c8 30E0      		ldi r19,hi8(0)
 505 01ca 6330      		cpi r22,lo8(3)
 506 01cc 00F4      		brsh .L32
 507 01ce 21E0      		ldi r18,lo8(1)
 508 01d0 30E0      		ldi r19,hi8(1)
 509               	.L32:
 510 01d2 EC01      		movw r28,r24
 511               	.LVL28:
 512 01d4 C21B      		sub r28,r18
 513 01d6 D30B      		sbc r29,r19
 514               	.LBB285:
 515               	.LM89:
 516 01d8 862F      		mov r24,r22
 517 01da 90E0      		ldi r25,lo8(0)
 518               	.LVL29:
 519 01dc 8050      		subi r24,lo8(-(dow_tbl-1))
 520 01de 9040      		sbci r25,hi8(-(dow_tbl-1))
 521               	.LVL30:
 522 01e0 FC01      		movw r30,r24
 523               	/* #APP */
 524               	 ;  1393 "iv.c" 1
 525 01e2 1491      		lpm r17, Z
 526               		
 527               	 ;  0 "" 2
 528               	.LVL31:
 529               	/* #NOAPP */
 530 01e4 9E01      		movw r18,r28
 531 01e6 240F      		add r18,r20
 532 01e8 311D      		adc r19,__zero_reg__
 533 01ea CE01      		movw r24,r28
 534               	.LVL32:
 535 01ec 9695      		lsr r25
 536 01ee 8795      		ror r24
 537 01f0 9695      		lsr r25
 538 01f2 8795      		ror r24
 539               	.LVL33:
 540 01f4 280F      		add r18,r24
 541 01f6 391F      		adc r19,r25
 542 01f8 CE01      		movw r24,r28
 543 01fa 60E9      		ldi r22,lo8(400)
 544 01fc 71E0      		ldi r23,hi8(400)
 545 01fe 0E94 0000 		call __udivmodhi4
 546 0202 260F      		add r18,r22
 547 0204 371F      		adc r19,r23
 548 0206 CE01      		movw r24,r28
 549 0208 64E6      		ldi r22,lo8(100)
 550 020a 70E0      		ldi r23,hi8(100)
 551 020c 0E94 0000 		call __udivmodhi4
 552 0210 261B      		sub r18,r22
 553 0212 370B      		sbc r19,r23
 554 0214 C901      		movw r24,r18
 555 0216 810F      		add r24,r17
 556 0218 911D      		adc r25,__zero_reg__
 557 021a 67E0      		ldi r22,lo8(7)
 558 021c 70E0      		ldi r23,hi8(7)
 559 021e 0E94 0000 		call __udivmodhi4
 560               	/* epilogue start */
 561               	.LBE285:
 562               	.LM90:
 563 0222 DF91      		pop r29
 564 0224 CF91      		pop r28
 565               	.LVL34:
 566 0226 1F91      		pop r17
 567               	.LVL35:
 568 0228 0895      		ret
 569               	.LFE53:
 571               	.global	leapyear
 573               	leapyear:
 574               	.LFB54:
 575               	.LM91:
 576               	.LVL36:
 577               	/* prologue: function */
 578               	/* frame size = 0 */
 579 022a FC01      		movw r30,r24
 580               	.LM92:
 581 022c 8370      		andi r24,lo8(3)
 582 022e 9070      		andi r25,hi8(3)
 583               	.LVL37:
 584 0230 892B      		or r24,r25
 585 0232 01F4      		brne .L35
 586 0234 CF01      		movw r24,r30
 587 0236 64E6      		ldi r22,lo8(100)
 588 0238 70E0      		ldi r23,hi8(100)
 589 023a 0E94 0000 		call __udivmodhi4
 590 023e 892B      		or r24,r25
 591 0240 01F4      		brne .L39
 592               	.L35:
 593 0242 20E0      		ldi r18,lo8(0)
 594 0244 30E0      		ldi r19,hi8(0)
 595 0246 CF01      		movw r24,r30
 596 0248 60E9      		ldi r22,lo8(400)
 597 024a 71E0      		ldi r23,hi8(400)
 598 024c 0E94 0000 		call __udivmodhi4
 599 0250 892B      		or r24,r25
 600 0252 01F4      		brne .L36
 601               	.L39:
 602 0254 21E0      		ldi r18,lo8(1)
 603 0256 30E0      		ldi r19,hi8(1)
 604               	.L36:
 605               	.LM93:
 606 0258 822F      		mov r24,r18
 607               	/* epilogue start */
 608 025a 0895      		ret
 609               	.LFE54:
 611               	.global	monthlen
 613               	monthlen:
 614               	.LFB55:
 615               	.LM94:
 616               	.LVL38:
 617 025c 1F93      		push r17
 618               	/* prologue: function */
 619               	/* frame size = 0 */
 620 025e 162F      		mov r17,r22
 621               	.LM95:
 622 0260 6230      		cpi r22,lo8(2)
 623 0262 01F4      		brne .L41
 624 0264 90E0      		ldi r25,lo8(0)
 625               	.LVL39:
 626 0266 8053      		subi r24,lo8(-(2000))
 627 0268 984F      		sbci r25,hi8(-(2000))
 628               	.LVL40:
 629 026a 0E94 0000 		call leapyear
 630               	.LVL41:
 631 026e 8823      		tst r24
 632 0270 01F0      		breq .L41
 633 0272 8DE1      		ldi r24,lo8(29)
 634               	.LVL42:
 635 0274 00C0      		rjmp .L42
 636               	.LVL43:
 637               	.L41:
 638               	.LBB286:
 639               	.LM96:
 640 0276 E12F      		mov r30,r17
 641 0278 F0E0      		ldi r31,lo8(0)
 642               	.LVL44:
 643 027a E050      		subi r30,lo8(-(mon_tbl-1))
 644 027c F040      		sbci r31,hi8(-(mon_tbl-1))
 645               	.LVL45:
 646               	/* #APP */
 647               	 ;  1412 "iv.c" 1
 648 027e 8491      		lpm r24, Z
 649               		
 650               	 ;  0 "" 2
 651               	.LVL46:
 652               	/* #NOAPP */
 653               	.L42:
 654               	.LVL47:
 655               	/* epilogue start */
 656               	.LBE286:
 657               	.LM97:
 658 0280 1F91      		pop r17
 659 0282 0895      		ret
 660               	.LFE55:
 662               	.global	dst
 664               	dst:
 665               	.LFB56:
 666               	.LM98:
 667               	.LVL48:
 668 0284 0F93      		push r16
 669 0286 1F93      		push r17
 670               	/* prologue: function */
 671               	/* frame size = 0 */
 672 0288 382F      		mov r19,r24
 673 028a 142F      		mov r17,r20
 674 028c 022F      		mov r16,r18
 675               	.LM99:
 676 028e 8091 0000 		lds r24,flags
 677               	.LVL49:
 678 0292 82FF      		sbrs r24,2
 679 0294 00C0      		rjmp .L45
 680               	.LVL50:
 681               	.LM100:
 682 0296 8091 0000 		lds r24,region
 683 029a 962F      		mov r25,r22
 684 029c 9450      		subi r25,lo8(-(-4))
 685 029e 8823      		tst r24
 686 02a0 01F4      		brne .L46
 687               	.LM101:
 688 02a2 9730      		cpi r25,lo8(7)
 689 02a4 00F0      		brlo .L47
 690               	.LM102:
 691 02a6 6330      		cpi r22,lo8(3)
 692 02a8 01F4      		brne .L48
 693               	.LM103:
 694 02aa 832F      		mov r24,r19
 695 02ac 4EE0      		ldi r20,lo8(14)
 696 02ae 0E94 0000 		call dow
 697               	.LVL51:
 698 02b2 9EE0      		ldi r25,lo8(14)
 699               	.LVL52:
 700 02b4 00C0      		rjmp .L75
 701               	.LVL53:
 702               	.L48:
 703               	.LM104:
 704 02b6 6B30      		cpi r22,lo8(11)
 705 02b8 01F4      		brne .L45
 706               	.LM105:
 707 02ba 832F      		mov r24,r19
 708 02bc 47E0      		ldi r20,lo8(7)
 709 02be 0E94 0000 		call dow
 710               	.LVL54:
 711 02c2 97E0      		ldi r25,lo8(7)
 712               	.LVL55:
 713 02c4 00C0      		rjmp .L73
 714               	.LVL56:
 715               	.L46:
 716               	.LM106:
 717 02c6 9630      		cpi r25,lo8(6)
 718 02c8 00F0      		brlo .L47
 719               	.LM107:
 720 02ca 6330      		cpi r22,lo8(3)
 721 02cc 01F4      		brne .L58
 722               	.LM108:
 723 02ce 832F      		mov r24,r19
 724 02d0 4FE1      		ldi r20,lo8(31)
 725 02d2 0E94 0000 		call dow
 726               	.LVL57:
 727 02d6 9FE1      		ldi r25,lo8(31)
 728               	.LVL58:
 729               	.L75:
 730 02d8 981B      		sub r25,r24
 731               	.LM109:
 732 02da 9117      		cp r25,r17
 733 02dc 00F0      		brlo .L68
 734               	.L59:
 735 02de 1917      		cp r17,r25
 736 02e0 01F4      		brne .L69
 737               	.L61:
 738 02e2 80E0      		ldi r24,lo8(0)
 739 02e4 90E0      		ldi r25,hi8(0)
 740 02e6 0230      		cpi r16,lo8(2)
 741 02e8 00F0      		brlo .L53
 742 02ea 00C0      		rjmp .L68
 743               	.LVL59:
 744               	.L58:
 745               	.LM110:
 746 02ec 6A30      		cpi r22,lo8(10)
 747 02ee 01F4      		brne .L45
 748               	.LM111:
 749 02f0 832F      		mov r24,r19
 750 02f2 4FE1      		ldi r20,lo8(31)
 751 02f4 0E94 0000 		call dow
 752               	.LVL60:
 753 02f8 9FE1      		ldi r25,lo8(31)
 754               	.LVL61:
 755               	.L73:
 756 02fa 981B      		sub r25,r24
 757               	.LM112:
 758 02fc 1917      		cp r17,r25
 759 02fe 00F0      		brlo .L68
 760               	.L63:
 761 0300 1917      		cp r17,r25
 762 0302 01F0      		breq .L65
 763               	.L69:
 764 0304 80E0      		ldi r24,lo8(0)
 765 0306 90E0      		ldi r25,hi8(0)
 766 0308 00C0      		rjmp .L53
 767               	.L65:
 768 030a 80E0      		ldi r24,lo8(0)
 769 030c 90E0      		ldi r25,hi8(0)
 770 030e 0023      		tst r16
 771 0310 01F4      		brne .L53
 772               	.L68:
 773 0312 81E0      		ldi r24,lo8(1)
 774 0314 90E0      		ldi r25,hi8(1)
 775 0316 00C0      		rjmp .L53
 776               	.LVL62:
 777               	.L45:
 778 0318 80E0      		ldi r24,lo8(0)
 779 031a 00C0      		rjmp .L53
 780               	.L47:
 781 031c 81E0      		ldi r24,lo8(1)
 782               	.LVL63:
 783               	.L53:
 784               	/* epilogue start */
 785               	.LM113:
 786 031e 1F91      		pop r17
 787               	.LVL64:
 788 0320 0F91      		pop r16
 789               	.LVL65:
 790 0322 0895      		ret
 791               	.LFE56:
 793               	.global	speaker_init
 795               	speaker_init:
 796               	.LFB57:
 797               	.LM114:
 798               	/* prologue: function */
 799               	/* frame size = 0 */
 800               	.L77:
 801               	.LBB287:
 802               	.LBB288:
 803               	.LM115:
 804 0324 F999      		sbic 63-32,1
 805 0326 00C0      		rjmp .L77
 806               	.LM116:
 807 0328 8AE0      		ldi r24,lo8(10)
 808 032a 90E0      		ldi r25,hi8(10)
 809 032c 92BD      		out (65)+1-32,r25
 810 032e 81BD      		out 65-32,r24
 811               	.LM117:
 812               	/* #APP */
 813               	 ;  208 "/Applications/Arduino.app/Contents/Resources/Java/hardware/tools/avr/bin/../lib/gcc/avr/4.
 814               		/* START EEPROM READ CRITICAL SECTION */ 
 815 0330 F89A      		sbi 31, 0 
 816 0332 80B5      		in r24, 32 
 817               		/* END EEPROM READ CRITICAL SECTION */ 
 818               		
 819               	 ;  0 "" 2
 820               	.LVL66:
 821               	/* #NOAPP */
 822               	.LBE288:
 823               	.LBE287:
 824               	.LM118:
 825 0334 8093 0000 		sts volume,r24
 826               	.LM119:
 827 0338 85B1      		in r24,37-32
 828               	.LVL67:
 829 033a 8660      		ori r24,lo8(6)
 830 033c 85B9      		out 37-32,r24
 831               	.LM120:
 832 033e 82E3      		ldi r24,lo8(50)
 833 0340 8093 8000 		sts 128,r24
 834               	.LM121:
 835 0344 8091 0000 		lds r24,volume
 836 0348 8823      		tst r24
 837 034a 01F0      		breq .L78
 838               	.LM122:
 839 034c 8091 8000 		lds r24,128
 840 0350 8068      		ori r24,lo8(-128)
 841 0352 8093 8000 		sts 128,r24
 842               	.L78:
 843               	.LM123:
 844 0356 88E1      		ldi r24,lo8(24)
 845 0358 8093 8100 		sts 129,r24
 846               	.LM124:
 847 035c 8AEF      		ldi r24,lo8(250)
 848 035e 90E0      		ldi r25,hi8(250)
 849 0360 9093 8700 		sts (134)+1,r25
 850 0364 8093 8600 		sts 134,r24
 851               	.LM125:
 852 0368 8091 8600 		lds r24,134
 853 036c 9091 8700 		lds r25,(134)+1
 854 0370 9695      		lsr r25
 855 0372 8795      		ror r24
 856 0374 9093 8900 		sts (136)+1,r25
 857 0378 8093 8800 		sts 136,r24
 858 037c 8091 8800 		lds r24,136
 859 0380 9091 8900 		lds r25,(136)+1
 860 0384 9093 8B00 		sts (138)+1,r25
 861 0388 8093 8A00 		sts 138,r24
 862               	/* epilogue start */
 863               	.LM126:
 864 038c 0895      		ret
 865               	.LFE57:
 867               	.global	tick
 869               	tick:
 870               	.LFB58:
 871               	.LM127:
 872               	/* prologue: function */
 873               	/* frame size = 0 */
 874               	.LM128:
 875 038e 1092 8000 		sts 128,__zero_reg__
 876               	.LM129:
 877 0392 1092 8100 		sts 129,__zero_reg__
 878               	.LM130:
 879 0396 299A      		sbi 37-32,1
 880               	.LM131:
 881 0398 2A98      		cbi 37-32,2
 882               	.LBB289:
 883               	.LBB290:
 884               	.LM132:
 885               	/* #APP */
 886               	 ;  140 "iv.c" 1
 887 039a 7894      		sei
 888               	 ;  0 "" 2
 889               	.LM133:
 890               	/* #NOAPP */
 891 039c 1092 0000 		sts (milliseconds)+1,__zero_reg__
 892 03a0 1092 0000 		sts milliseconds,__zero_reg__
 893               	.L82:
 894               	.LM134:
 895 03a4 8091 0000 		lds r24,milliseconds
 896 03a8 9091 0000 		lds r25,(milliseconds)+1
 897 03ac 0A97      		sbiw r24,10
 898 03ae 00F0      		brlo .L82
 899               	.LBE290:
 900               	.LBE289:
 901               	.LM135:
 902 03b0 2A9A      		sbi 37-32,2
 903               	.LM136:
 904 03b2 2998      		cbi 37-32,1
 905               	.LBB291:
 906               	.LBB292:
 907               	.LM137:
 908               	/* #APP */
 909               	 ;  140 "iv.c" 1
 910 03b4 7894      		sei
 911               	 ;  0 "" 2
 912               	.LM138:
 913               	/* #NOAPP */
 914 03b6 1092 0000 		sts (milliseconds)+1,__zero_reg__
 915 03ba 1092 0000 		sts milliseconds,__zero_reg__
 916               	.L83:
 917               	.LM139:
 918 03be 8091 0000 		lds r24,milliseconds
 919 03c2 9091 0000 		lds r25,(milliseconds)+1
 920 03c6 0A97      		sbiw r24,10
 921 03c8 00F0      		brlo .L83
 922               	.LBE292:
 923               	.LBE291:
 924               	.LM140:
 925 03ca 85B1      		in r24,37-32
 926 03cc 897F      		andi r24,lo8(-7)
 927 03ce 85B9      		out 37-32,r24
 928               	.LM141:
 929 03d0 82EB      		ldi r24,lo8(-78)
 930 03d2 8093 8000 		sts 128,r24
 931               	.LM142:
 932 03d6 88E1      		ldi r24,lo8(24)
 933 03d8 8093 8100 		sts 129,r24
 934               	/* epilogue start */
 935               	.LM143:
 936 03dc 0895      		ret
 937               	.LFE58:
 939               	.global	beep
 941               	beep:
 942               	.LFB59:
 943               	.LM144:
 944               	.LVL68:
 945 03de 1F93      		push r17
 946               	/* prologue: function */
 947               	/* frame size = 0 */
 948 03e0 162F      		mov r17,r22
 949               	.LM145:
 950 03e2 9C01      		movw r18,r24
 951 03e4 40E0      		ldi r20,lo8(0)
 952 03e6 50E0      		ldi r21,hi8(0)
 953               	.LVL69:
 954 03e8 60E4      		ldi r22,lo8(1000000)
 955 03ea 72E4      		ldi r23,hi8(1000000)
 956 03ec 8FE0      		ldi r24,hlo8(1000000)
 957 03ee 90E0      		ldi r25,hhi8(1000000)
 958               	.LVL70:
 959 03f0 0E94 0000 		call __divmodsi4
 960 03f4 3093 8700 		sts (134)+1,r19
 961 03f8 2093 8600 		sts 134,r18
 962               	.LM146:
 963 03fc 8091 8600 		lds r24,134
 964 0400 9091 8700 		lds r25,(134)+1
 965               	.LVL71:
 966 0404 9695      		lsr r25
 967 0406 8795      		ror r24
 968 0408 9093 8B00 		sts (138)+1,r25
 969 040c 8093 8A00 		sts 138,r24
 970 0410 8091 8A00 		lds r24,138
 971 0414 9091 8B00 		lds r25,(138)+1
 972 0418 9093 8900 		sts (136)+1,r25
 973 041c 8093 8800 		sts 136,r24
 974               	.LBB293:
 975               	.LBB294:
 976               	.LBB295:
 977               	.LBB296:
 978               	.LM147:
 979 0420 28EC      		ldi r18,lo8(200)
 980 0422 30E0      		ldi r19,hi8(200)
 981 0424 00C0      		rjmp .L88
 982               	.LVL72:
 983               	.L91:
 984               	.LBE296:
 985               	.LBE295:
 986               	.LBE294:
 987               	.LBE293:
 988               	.LM148:
 989 0426 8091 8100 		lds r24,129
 990               	.LVL73:
 991 042a 8260      		ori r24,lo8(2)
 992 042c 8093 8100 		sts 129,r24
 993 0430 80ED      		ldi r24,lo8(2000)
 994 0432 97E0      		ldi r25,hi8(2000)
 995               	.LVL74:
 996               	.L89:
 997               	.LBB300:
 998               	.LBB299:
 999               	.LBB298:
 1000               	.LBB297:
 1001               	.LM149:
 1002 0434 F901      		movw r30,r18
 1003               	.LVL75:
 1004               	/* #APP */
 1005               	 ;  105 "/Applications/Arduino.app/Contents/Resources/Java/hardware/tools/avr/bin/../lib/gcc/avr/4.
 1006 0436 3197      		1: sbiw r30,1
 1007 0438 01F4      		brne 1b
 1008               	 ;  0 "" 2
 1009               	/* #NOAPP */
 1010               	.LBE297:
 1011               	.LBE298:
 1012               	.LM150:
 1013 043a 0197      		sbiw r24,1
 1014               	.LM151:
 1015 043c 01F4      		brne .L89
 1016               	.LBE299:
 1017               	.LBE300:
 1018               	.LM152:
 1019 043e 8091 8100 		lds r24,129
 1020               	.LVL76:
 1021 0442 8D7F      		andi r24,lo8(-3)
 1022 0444 8093 8100 		sts 129,r24
 1023               	.LM153:
 1024 0448 85B1      		in r24,37-32
 1025 044a 897F      		andi r24,lo8(-7)
 1026 044c 85B9      		out 37-32,r24
 1027 044e 80ED      		ldi r24,lo8(2000)
 1028 0450 97E0      		ldi r25,hi8(2000)
 1029               	.LVL77:
 1030               	.L90:
 1031               	.LBB301:
 1032               	.LBB302:
 1033               	.LBB303:
 1034               	.LBB304:
 1035               	.LM154:
 1036 0452 F901      		movw r30,r18
 1037               	.LVL78:
 1038               	/* #APP */
 1039               	 ;  105 "/Applications/Arduino.app/Contents/Resources/Java/hardware/tools/avr/bin/../lib/gcc/avr/4.
 1040 0454 3197      		1: sbiw r30,1
 1041 0456 01F4      		brne 1b
 1042               	 ;  0 "" 2
 1043               	/* #NOAPP */
 1044               	.LBE304:
 1045               	.LBE303:
 1046               	.LM155:
 1047 0458 0197      		sbiw r24,1
 1048               	.LM156:
 1049 045a 01F4      		brne .L90
 1050 045c 1150      		subi r17,lo8(-(-1))
 1051               	.L88:
 1052               	.LBE302:
 1053               	.LBE301:
 1054               	.LM157:
 1055 045e 1123      		tst r17
 1056 0460 01F4      		brne .L91
 1057               	.LM158:
 1058 0462 85B1      		in r24,37-32
 1059               	.LVL79:
 1060 0464 897F      		andi r24,lo8(-7)
 1061 0466 85B9      		out 37-32,r24
 1062               	/* epilogue start */
 1063               	.LM159:
 1064 0468 1F91      		pop r17
 1065               	.LVL80:
 1066 046a 0895      		ret
 1067               	.LFE59:
 1069               	.global	dimmer_init
 1071               	dimmer_init:
 1072               	.LFB60:
 1073               	.LM160:
 1074               	/* prologue: function */
 1075               	/* frame size = 0 */
 1076               	.LM161:
 1077 046c 3D9A      		sbi 39-32,5
 1078               	.LM162:
 1079 046e 459A      		sbi 40-32,5
 1080               	.LM163:
 1081 0470 AAE7      		ldi r26,lo8(122)
 1082 0472 B0E0      		ldi r27,hi8(122)
 1083 0474 8C91      		ld r24,X
 1084 0476 8660      		ori r24,lo8(6)
 1085 0478 8C93      		st X,r24
 1086               	.LM164:
 1087 047a ECE7      		ldi r30,lo8(124)
 1088 047c F0E0      		ldi r31,hi8(124)
 1089 047e 8081      		ld r24,Z
 1090 0480 8064      		ori r24,lo8(64)
 1091 0482 8083      		st Z,r24
 1092               	.LM165:
 1093 0484 8081      		ld r24,Z
 1094 0486 8460      		ori r24,lo8(4)
 1095 0488 8083      		st Z,r24
 1096               	.LM166:
 1097 048a EEE7      		ldi r30,lo8(126)
 1098 048c F0E0      		ldi r31,hi8(126)
 1099 048e 8081      		ld r24,Z
 1100 0490 8061      		ori r24,lo8(16)
 1101 0492 8083      		st Z,r24
 1102               	.LM167:
 1103 0494 8C91      		ld r24,X
 1104 0496 8068      		ori r24,lo8(-128)
 1105 0498 8C93      		st X,r24
 1106               	.LM168:
 1107 049a 8C91      		ld r24,X
 1108 049c 8860      		ori r24,lo8(8)
 1109 049e 8C93      		st X,r24
 1110               	/* epilogue start */
 1111               	.LM169:
 1112 04a0 0895      		ret
 1113               	.LFE60:
 1115               	.global	dimmer_update
 1117               	dimmer_update:
 1118               	.LFB61:
 1119               	.LM170:
 1120               	/* prologue: function */
 1121               	/* frame size = 0 */
 1122               	.LM171:
 1123 04a2 8091 0000 		lds r24,brightness_level
 1124 04a6 8823      		tst r24
 1125 04a8 01F4      		brne .L99
 1126               	.LM172:
 1127 04aa 8091 7A00 		lds r24,122
 1128 04ae 8064      		ori r24,lo8(64)
 1129 04b0 8093 7A00 		sts 122,r24
 1130               	.L99:
 1131 04b4 0895      		ret
 1132               	.LFE61:
 1134               	.global	__vector_21
 1136               	__vector_21:
 1137               	.LFB62:
 1138               	.LM173:
 1139 04b6 1F92      		push __zero_reg__
 1140 04b8 0F92      		push r0
 1141 04ba 0FB6      		in r0,__SREG__
 1142 04bc 0F92      		push r0
 1143 04be 1124      		clr __zero_reg__
 1144 04c0 2F93      		push r18
 1145 04c2 3F93      		push r19
 1146 04c4 4F93      		push r20
 1147 04c6 5F93      		push r21
 1148 04c8 6F93      		push r22
 1149 04ca 7F93      		push r23
 1150 04cc 8F93      		push r24
 1151 04ce 9F93      		push r25
 1152 04d0 AF93      		push r26
 1153 04d2 BF93      		push r27
 1154 04d4 EF93      		push r30
 1155 04d6 FF93      		push r31
 1156               	/* prologue: Signal */
 1157               	/* frame size = 0 */
 1158               	.LM174:
 1159 04d8 8091 0000 		lds r24,brightness_level
 1160 04dc 8823      		tst r24
 1161 04de 01F4      		brne .L107
 1162               	.LM175:
 1163 04e0 3091 7800 		lds r19,120
 1164               	.LVL81:
 1165               	.LM176:
 1166 04e4 2091 7900 		lds r18,121
 1167               	.LVL82:
 1168               	.LM177:
 1169 04e8 922F      		mov r25,r18
 1170               	.LVL83:
 1171 04ea 80E0      		ldi r24,lo8(0)
 1172               	.LVL84:
 1173 04ec 632F      		mov r22,r19
 1174               	.LVL85:
 1175 04ee 70E0      		ldi r23,lo8(0)
 1176               	.LVL86:
 1177 04f0 682B      		or r22,r24
 1178 04f2 792B      		or r23,r25
 1179               	.LVL87:
 1180               	.LM178:
 1181 04f4 83E0      		ldi r24,hi8(1023)
 1182 04f6 6F3F      		cpi r22,lo8(1023)
 1183 04f8 7807      		cpc r23,r24
 1184               	.LVL88:
 1185 04fa 00F0      		brlo .L102
 1186 04fc 8DE2      		ldi r24,lo8(45)
 1187 04fe 90E0      		ldi r25,hi8(45)
 1188               	.LVL89:
 1189 0500 00C0      		rjmp .L103
 1190               	.LVL90:
 1191               	.L102:
 1192               	.LM179:
 1193 0502 82E0      		ldi r24,hi8(601)
 1194 0504 6935      		cpi r22,lo8(601)
 1195 0506 7807      		cpc r23,r24
 1196 0508 00F4      		brsh .L104
 1197 050a 8AE5      		ldi r24,lo8(90)
 1198 050c 90E0      		ldi r25,hi8(90)
 1199               	.LVL91:
 1200 050e 00C0      		rjmp .L103
 1201               	.LVL92:
 1202               	.L104:
 1203               	.LM180:
 1204 0510 6855      		subi r22,lo8(-(-600))
 1205 0512 7240      		sbci r23,hi8(-(-600))
 1206 0514 80E0      		ldi r24,lo8(0)
 1207 0516 90E0      		ldi r25,hi8(0)
 1208 0518 2DE2      		ldi r18,lo8(45)
 1209 051a 30E0      		ldi r19,hi8(45)
 1210 051c 40E0      		ldi r20,hlo8(45)
 1211 051e 50E0      		ldi r21,hhi8(45)
 1212 0520 0E94 0000 		call __mulsi3
 1213               	.LVL93:
 1214 0524 27EA      		ldi r18,lo8(423)
 1215 0526 31E0      		ldi r19,hi8(423)
 1216 0528 40E0      		ldi r20,hlo8(423)
 1217 052a 50E0      		ldi r21,hhi8(423)
 1218 052c 0E94 0000 		call __udivmodsi4
 1219 0530 8AE5      		ldi r24,lo8(90)
 1220 0532 90E0      		ldi r25,hi8(90)
 1221               	.LVL94:
 1222 0534 821B      		sub r24,r18
 1223 0536 930B      		sbc r25,r19
 1224               	.L103:
 1225               	.LM181:
 1226 0538 982F      		mov r25,r24
 1227               	.LVL95:
 1228               	.LBB305:
 1229               	.LBB306:
 1230               	.LM182:
 1231 053a 8B35      		cpi r24,lo8(91)
 1232 053c 00F0      		brlo .L105
 1233               	.LVL96:
 1234 053e 9AE5      		ldi r25,lo8(90)
 1235               	.LVL97:
 1236 0540 00C0      		rjmp .L106
 1237               	.LVL98:
 1238               	.L105:
 1239               	.LM183:
 1240 0542 8E31      		cpi r24,lo8(30)
 1241 0544 00F4      		brsh .L106
 1242 0546 9EE1      		ldi r25,lo8(30)
 1243               	.LVL99:
 1244               	.L106:
 1245               	.LM184:
 1246 0548 87B5      		in r24,71-32
 1247               	.LVL100:
 1248 054a 8913      		cpse r24,r25
 1249               	.LM185:
 1250 054c 97BD      		out 71-32,r25
 1251               	.L107:
 1252               	/* epilogue start */
 1253               	.LBE306:
 1254               	.LBE305:
 1255               	.LM186:
 1256 054e FF91      		pop r31
 1257 0550 EF91      		pop r30
 1258 0552 BF91      		pop r27
 1259 0554 AF91      		pop r26
 1260 0556 9F91      		pop r25
 1261               	.LVL101:
 1262 0558 8F91      		pop r24
 1263 055a 7F91      		pop r23
 1264               	.LVL102:
 1265 055c 6F91      		pop r22
 1266 055e 5F91      		pop r21
 1267 0560 4F91      		pop r20
 1268 0562 3F91      		pop r19
 1269               	.LVL103:
 1270 0564 2F91      		pop r18
 1271 0566 0F90      		pop r0
 1272 0568 0FBE      		out __SREG__,r0
 1273 056a 0F90      		pop r0
 1274 056c 1F90      		pop __zero_reg__
 1275 056e 1895      		reti
 1276               	.LFE62:
 1278               	.global	boost_init
 1280               	boost_init:
 1281               	.LFB63:
 1282               	.LM187:
 1283               	.LVL104:
 1284               	/* prologue: function */
 1285               	/* frame size = 0 */
 1286 0570 982F      		mov r25,r24
 1287               	.LBB307:
 1288               	.LBB308:
 1289               	.LM188:
 1290 0572 8B35      		cpi r24,lo8(91)
 1291 0574 00F0      		brlo .L109
 1292 0576 9AE5      		ldi r25,lo8(90)
 1293               	.LVL105:
 1294 0578 00C0      		rjmp .L110
 1295               	.LVL106:
 1296               	.L109:
 1297               	.LM189:
 1298 057a 8E31      		cpi r24,lo8(30)
 1299 057c 00F4      		brsh .L110
 1300 057e 9EE1      		ldi r25,lo8(30)
 1301               	.LVL107:
 1302               	.L110:
 1303               	.LM190:
 1304 0580 87B5      		in r24,71-32
 1305 0582 8913      		cpse r24,r25
 1306               	.LM191:
 1307 0584 97BD      		out 71-32,r25
 1308               	.L111:
 1309               	.LBE308:
 1310               	.LBE307:
 1311               	.LM192:
 1312 0586 83E0      		ldi r24,lo8(3)
 1313 0588 84BD      		out 68-32,r24
 1314               	.LM193:
 1315 058a 81E0      		ldi r24,lo8(1)
 1316 058c 85BD      		out 69-32,r24
 1317               	.LM194:
 1318 058e 84B5      		in r24,68-32
 1319 0590 8068      		ori r24,lo8(-128)
 1320 0592 84BD      		out 68-32,r24
 1321               	.LM195:
 1322 0594 8091 6E00 		lds r24,110
 1323 0598 8160      		ori r24,lo8(1)
 1324 059a 8093 6E00 		sts 110,r24
 1325               	.LM196:
 1326               	/* #APP */
 1327               	 ;  1579 "iv.c" 1
 1328 059e 7894      		sei
 1329               	 ;  0 "" 2
 1330               	/* epilogue start */
 1331               	.LM197:
 1332               	/* #NOAPP */
 1333 05a0 0895      		ret
 1334               	.LFE63:
 1336               	.global	set_vfd_brightness
 1338               	set_vfd_brightness:
 1339               	.LFB64:
 1340               	.LM198:
 1341               	.LVL108:
 1342               	/* prologue: function */
 1343               	/* frame size = 0 */
 1344 05a2 982F      		mov r25,r24
 1345               	.LM199:
 1346 05a4 8B35      		cpi r24,lo8(91)
 1347 05a6 00F0      		brlo .L114
 1348 05a8 9AE5      		ldi r25,lo8(90)
 1349               	.LVL109:
 1350 05aa 00C0      		rjmp .L115
 1351               	.LVL110:
 1352               	.L114:
 1353               	.LM200:
 1354 05ac 8E31      		cpi r24,lo8(30)
 1355 05ae 00F4      		brsh .L115
 1356 05b0 9EE1      		ldi r25,lo8(30)
 1357               	.LVL111:
 1358               	.L115:
 1359               	.LM201:
 1360 05b2 87B5      		in r24,71-32
 1361 05b4 8913      		cpse r24,r25
 1362               	.LM202:
 1363 05b6 97BD      		out 71-32,r25
 1364               	.L117:
 1365 05b8 0895      		ret
 1366               	.LFE64:
 1368               	.global	display_time
 1370               	display_time:
 1371               	.LFB66:
 1372               	.LM203:
 1373               	.LVL112:
 1374 05ba 1F93      		push r17
 1375               	/* prologue: function */
 1376               	/* frame size = 0 */
 1377 05bc 182F      		mov r17,r24
 1378 05be 262F      		mov r18,r22
 1379               	.LBB309:
 1380               	.LM204:
 1381 05c0 842F      		mov r24,r20
 1382               	.LVL113:
 1383 05c2 6AE0      		ldi r22,lo8(10)
 1384               	.LVL114:
 1385 05c4 0E94 0000 		call __udivmodqi4
 1386 05c8 E92F      		mov r30,r25
 1387 05ca F0E0      		ldi r31,lo8(0)
 1388 05cc E050      		subi r30,lo8(-(numbertable))
 1389 05ce F040      		sbci r31,hi8(-(numbertable))
 1390               	/* #APP */
 1391               	 ;  1732 "iv.c" 1
 1392 05d0 E491      		lpm r30, Z
 1393               		
 1394               	 ;  0 "" 2
 1395               	.LVL115:
 1396               	/* #NOAPP */
 1397               	.LBE309:
 1398 05d2 E093 0000 		sts display+8,r30
 1399               	.LBB310:
 1400               	.LM205:
 1401 05d6 842F      		mov r24,r20
 1402 05d8 0E94 0000 		call __udivmodqi4
 1403 05dc E82F      		mov r30,r24
 1404               	.LVL116:
 1405 05de F0E0      		ldi r31,lo8(0)
 1406 05e0 E050      		subi r30,lo8(-(numbertable))
 1407 05e2 F040      		sbci r31,hi8(-(numbertable))
 1408               	/* #APP */
 1409               	 ;  1733 "iv.c" 1
 1410 05e4 E491      		lpm r30, Z
 1411               		
 1412               	 ;  0 "" 2
 1413               	.LVL117:
 1414               	/* #NOAPP */
 1415               	.LBE310:
 1416 05e6 E093 0000 		sts display+7,r30
 1417               	.LM206:
 1418 05ea 8091 0000 		lds r24,secondDisp
 1419 05ee 8330      		cpi r24,lo8(3)
 1420 05f0 01F0      		breq .L123
 1421 05f2 8430      		cpi r24,lo8(4)
 1422 05f4 00F4      		brsh .L127
 1423 05f6 8130      		cpi r24,lo8(1)
 1424 05f8 01F0      		breq .L125
 1425 05fa 8230      		cpi r24,lo8(2)
 1426 05fc 00F4      		brsh .L122
 1427 05fe 00C0      		rjmp .L139
 1428               	.L127:
 1429 0600 8530      		cpi r24,lo8(5)
 1430 0602 01F0      		breq .L125
 1431 0604 8530      		cpi r24,lo8(5)
 1432 0606 00F0      		brlo .L124
 1433 0608 8630      		cpi r24,lo8(6)
 1434 060a 01F4      		brne .L136
 1435 060c 00C0      		rjmp .L140
 1436               	.L139:
 1437               	.LM207:
 1438 060e 88E0      		ldi r24,lo8(8)
 1439 0610 00C0      		rjmp .L137
 1440               	.L122:
 1441               	.LM208:
 1442 0612 80E4      		ldi r24,lo8(64)
 1443 0614 00C0      		rjmp .L137
 1444               	.L123:
 1445               	.LM209:
 1446 0616 80E8      		ldi r24,lo8(-128)
 1447 0618 00C0      		rjmp .L137
 1448               	.L124:
 1449               	.LM210:
 1450 061a 84E0      		ldi r24,lo8(4)
 1451 061c 00C0      		rjmp .L137
 1452               	.L125:
 1453               	.LM211:
 1454 061e 82E0      		ldi r24,lo8(2)
 1455 0620 00C0      		rjmp .L137
 1456               	.L140:
 1457               	.LM212:
 1458 0622 80E2      		ldi r24,lo8(32)
 1459 0624 00C0      		rjmp .L137
 1460               	.L136:
 1461               	.LM213:
 1462 0626 80E1      		ldi r24,lo8(16)
 1463               	.L137:
 1464 0628 8093 0000 		sts display+3,r24
 1465               	.LM214:
 1466 062c 8093 0000 		sts display+6,r24
 1467               	.LM215:
 1468 0630 8091 0000 		lds r24,secondDisp
 1469 0634 8730      		cpi r24,lo8(7)
 1470 0636 01F4      		brne .L129
 1471               	.LM216:
 1472 0638 1092 0000 		sts secondDisp,__zero_reg__
 1473 063c 00C0      		rjmp .L130
 1474               	.L129:
 1475               	.LM217:
 1476 063e 8091 0000 		lds r24,secondDisp
 1477 0642 8F5F      		subi r24,lo8(-(1))
 1478 0644 8093 0000 		sts secondDisp,r24
 1479               	.L130:
 1480               	.LBB311:
 1481               	.LM218:
 1482 0648 822F      		mov r24,r18
 1483 064a 6AE0      		ldi r22,lo8(10)
 1484 064c 0E94 0000 		call __udivmodqi4
 1485 0650 E92F      		mov r30,r25
 1486               	.LVL118:
 1487 0652 F0E0      		ldi r31,lo8(0)
 1488 0654 E050      		subi r30,lo8(-(numbertable))
 1489 0656 F040      		sbci r31,hi8(-(numbertable))
 1490               	/* #APP */
 1491               	 ;  1776 "iv.c" 1
 1492 0658 E491      		lpm r30, Z
 1493               		
 1494               	 ;  0 "" 2
 1495               	.LVL119:
 1496               	/* #NOAPP */
 1497               	.LBE311:
 1498 065a E093 0000 		sts display+5,r30
 1499               	.LBB312:
 1500               	.LM219:
 1501 065e 822F      		mov r24,r18
 1502 0660 0E94 0000 		call __udivmodqi4
 1503 0664 E82F      		mov r30,r24
 1504               	.LVL120:
 1505 0666 F0E0      		ldi r31,lo8(0)
 1506 0668 E050      		subi r30,lo8(-(numbertable))
 1507 066a F040      		sbci r31,hi8(-(numbertable))
 1508               	/* #APP */
 1509               	 ;  1777 "iv.c" 1
 1510 066c E491      		lpm r30, Z
 1511               		
 1512               	 ;  0 "" 2
 1513               	.LVL121:
 1514               	/* #NOAPP */
 1515               	.LBE312:
 1516 066e E093 0000 		sts display+4,r30
 1517               	.LM220:
 1518 0672 8091 0000 		lds r24,region
 1519 0676 8823      		tst r24
 1520 0678 01F4      		brne .L131
 1521               	.LBB313:
 1522               	.LM221:
 1523 067a 812F      		mov r24,r17
 1524 067c 90E0      		ldi r25,lo8(0)
 1525               	.LVL122:
 1526 067e 0B96      		adiw r24,11
 1527 0680 6CE0      		ldi r22,lo8(12)
 1528 0682 70E0      		ldi r23,hi8(12)
 1529 0684 0E94 0000 		call __divmodhi4
 1530 0688 9C01      		movw r18,r24
 1531               	.LVL123:
 1532 068a 2F5F      		subi r18,lo8(-(1))
 1533 068c 3F4F      		sbci r19,hi8(-(1))
 1534 068e C901      		movw r24,r18
 1535 0690 6AE0      		ldi r22,lo8(10)
 1536 0692 70E0      		ldi r23,hi8(10)
 1537 0694 0E94 0000 		call __divmodhi4
 1538 0698 FC01      		movw r30,r24
 1539               	.LVL124:
 1540 069a E050      		subi r30,lo8(-(numbertable))
 1541 069c F040      		sbci r31,hi8(-(numbertable))
 1542               	/* #APP */
 1543               	 ;  1782 "iv.c" 1
 1544 069e E491      		lpm r30, Z
 1545               		
 1546               	 ;  0 "" 2
 1547               	.LVL125:
 1548               	/* #NOAPP */
 1549               	.LBE313:
 1550 06a0 E093 0000 		sts display+2,r30
 1551               	.LBB314:
 1552               	.LM222:
 1553 06a4 C901      		movw r24,r18
 1554 06a6 6AE0      		ldi r22,lo8(10)
 1555 06a8 70E0      		ldi r23,hi8(10)
 1556 06aa 0E94 0000 		call __divmodhi4
 1557 06ae FB01      		movw r30,r22
 1558               	.LVL126:
 1559 06b0 E050      		subi r30,lo8(-(numbertable))
 1560 06b2 F040      		sbci r31,hi8(-(numbertable))
 1561               	/* #APP */
 1562               	 ;  1783 "iv.c" 1
 1563 06b4 E491      		lpm r30, Z
 1564               		
 1565               	 ;  0 "" 2
 1566               	.LVL127:
 1567               	/* #NOAPP */
 1568               	.LBE314:
 1569 06b6 E093 0000 		sts display+1,r30
 1570               	.LM223:
 1571 06ba 1C30      		cpi r17,lo8(12)
 1572 06bc 00F0      		brlo .L132
 1573               	.LM224:
 1574 06be 8091 0000 		lds r24,display
 1575 06c2 8160      		ori r24,lo8(1)
 1576 06c4 00C0      		rjmp .L138
 1577               	.L132:
 1578               	.LM225:
 1579 06c6 8091 0000 		lds r24,display
 1580 06ca 8E7F      		andi r24,lo8(-2)
 1581               	.L138:
 1582 06cc 8093 0000 		sts display,r24
 1583 06d0 00C0      		rjmp .L134
 1584               	.LVL128:
 1585               	.L131:
 1586               	.LBB315:
 1587               	.LM226:
 1588 06d2 812F      		mov r24,r17
 1589 06d4 68E1      		ldi r22,lo8(24)
 1590 06d6 0E94 0000 		call __udivmodqi4
 1591 06da 292F      		mov r18,r25
 1592               	.LVL129:
 1593 06dc 892F      		mov r24,r25
 1594 06de 6AE0      		ldi r22,lo8(10)
 1595 06e0 0E94 0000 		call __udivmodqi4
 1596 06e4 E92F      		mov r30,r25
 1597               	.LVL130:
 1598 06e6 F0E0      		ldi r31,lo8(0)
 1599 06e8 E050      		subi r30,lo8(-(numbertable))
 1600 06ea F040      		sbci r31,hi8(-(numbertable))
 1601               	/* #APP */
 1602               	 ;  1791 "iv.c" 1
 1603 06ec E491      		lpm r30, Z
 1604               		
 1605               	 ;  0 "" 2
 1606               	.LVL131:
 1607               	/* #NOAPP */
 1608               	.LBE315:
 1609 06ee E093 0000 		sts display+2,r30
 1610               	.LBB316:
 1611               	.LM227:
 1612 06f2 822F      		mov r24,r18
 1613 06f4 0E94 0000 		call __udivmodqi4
 1614 06f8 E82F      		mov r30,r24
 1615               	.LVL132:
 1616 06fa F0E0      		ldi r31,lo8(0)
 1617 06fc E050      		subi r30,lo8(-(numbertable))
 1618 06fe F040      		sbci r31,hi8(-(numbertable))
 1619               	/* #APP */
 1620               	 ;  1792 "iv.c" 1
 1621 0700 E491      		lpm r30, Z
 1622               		
 1623               	 ;  0 "" 2
 1624               	.LVL133:
 1625               	/* #NOAPP */
 1626               	.LBE316:
 1627 0702 E093 0000 		sts display+1,r30
 1628               	.LVL134:
 1629               	.L134:
 1630               	/* epilogue start */
 1631               	.LM228:
 1632 0706 1F91      		pop r17
 1633               	.LVL135:
 1634 0708 0895      		ret
 1635               	.LFE66:
 1637               	.global	display_alarm
 1639               	display_alarm:
 1640               	.LFB67:
 1641               	.LM229:
 1642               	.LVL136:
 1643               	/* prologue: function */
 1644               	/* frame size = 0 */
 1645 070a 382F      		mov r19,r24
 1646 070c 262F      		mov r18,r22
 1647               	.LM230:
 1648 070e 1092 0000 		sts display+8,__zero_reg__
 1649               	.LM231:
 1650 0712 1092 0000 		sts display+7,__zero_reg__
 1651               	.LM232:
 1652 0716 1092 0000 		sts display+6,__zero_reg__
 1653               	.LBB317:
 1654               	.LM233:
 1655 071a 862F      		mov r24,r22
 1656               	.LVL137:
 1657 071c 6AE0      		ldi r22,lo8(10)
 1658               	.LVL138:
 1659 071e 0E94 0000 		call __udivmodqi4
 1660 0722 E92F      		mov r30,r25
 1661 0724 F0E0      		ldi r31,lo8(0)
 1662 0726 E050      		subi r30,lo8(-(numbertable))
 1663 0728 F040      		sbci r31,hi8(-(numbertable))
 1664               	/* #APP */
 1665               	 ;  1801 "iv.c" 1
 1666 072a E491      		lpm r30, Z
 1667               		
 1668               	 ;  0 "" 2
 1669               	.LVL139:
 1670               	/* #NOAPP */
 1671               	.LBE317:
 1672 072c E093 0000 		sts display+5,r30
 1673               	.LBB318:
 1674               	.LM234:
 1675 0730 822F      		mov r24,r18
 1676 0732 0E94 0000 		call __udivmodqi4
 1677 0736 E82F      		mov r30,r24
 1678               	.LVL140:
 1679 0738 F0E0      		ldi r31,lo8(0)
 1680 073a E050      		subi r30,lo8(-(numbertable))
 1681 073c F040      		sbci r31,hi8(-(numbertable))
 1682               	/* #APP */
 1683               	 ;  1802 "iv.c" 1
 1684 073e E491      		lpm r30, Z
 1685               		
 1686               	 ;  0 "" 2
 1687               	.LVL141:
 1688               	/* #NOAPP */
 1689               	.LBE318:
 1690 0740 E093 0000 		sts display+4,r30
 1691               	.LM235:
 1692 0744 1092 0000 		sts display+3,__zero_reg__
 1693               	.LM236:
 1694 0748 8091 0000 		lds r24,region
 1695 074c 8823      		tst r24
 1696 074e 01F0      		breq .+2
 1697 0750 00C0      		rjmp .L142
 1698               	.LM237:
 1699 0752 3C30      		cpi r19,lo8(12)
 1700 0754 00F0      		brlo .L143
 1701               	.LM238:
 1702 0756 8091 0000 		lds r24,display
 1703 075a 8160      		ori r24,lo8(1)
 1704 075c 8093 0000 		sts display,r24
 1705               	.LBB319:
 1706               	.LM239:
 1707 0760 E0E0      		ldi r30,lo8(alphatable+15)
 1708 0762 F0E0      		ldi r31,hi8(alphatable+15)
 1709               	.LVL142:
 1710               	/* #APP */
 1711               	 ;  1809 "iv.c" 1
 1712 0764 E491      		lpm r30, Z
 1713               		
 1714               	 ;  0 "" 2
 1715               	.LVL143:
 1716               	/* #NOAPP */
 1717               	.LBE319:
 1718 0766 E093 0000 		sts display+7,r30
 1719 076a 00C0      		rjmp .L144
 1720               	.LVL144:
 1721               	.L143:
 1722               	.LBB320:
 1723               	.LM240:
 1724 076c E0E0      		ldi r30,lo8(alphatable)
 1725 076e F0E0      		ldi r31,hi8(alphatable)
 1726               	.LVL145:
 1727               	/* #APP */
 1728               	 ;  1811 "iv.c" 1
 1729 0770 E491      		lpm r30, Z
 1730               		
 1731               	 ;  0 "" 2
 1732               	.LVL146:
 1733               	/* #NOAPP */
 1734               	.LBE320:
 1735 0772 E093 0000 		sts display+7,r30
 1736               	.LM241:
 1737 0776 8091 0000 		lds r24,display
 1738 077a 8E7F      		andi r24,lo8(-2)
 1739 077c 8093 0000 		sts display,r24
 1740               	.LVL147:
 1741               	.L144:
 1742               	.LBB321:
 1743               	.LM242:
 1744 0780 E0E0      		ldi r30,lo8(alphatable+12)
 1745 0782 F0E0      		ldi r31,hi8(alphatable+12)
 1746               	.LVL148:
 1747               	/* #APP */
 1748               	 ;  1814 "iv.c" 1
 1749 0784 E491      		lpm r30, Z
 1750               		
 1751               	 ;  0 "" 2
 1752               	.LVL149:
 1753               	/* #NOAPP */
 1754               	.LBE321:
 1755 0786 E093 0000 		sts display+8,r30
 1756               	.LBB322:
 1757               	.LM243:
 1758 078a 832F      		mov r24,r19
 1759 078c 90E0      		ldi r25,lo8(0)
 1760               	.LVL150:
 1761 078e 0B96      		adiw r24,11
 1762 0790 6CE0      		ldi r22,lo8(12)
 1763 0792 70E0      		ldi r23,hi8(12)
 1764 0794 0E94 0000 		call __divmodhi4
 1765 0798 9C01      		movw r18,r24
 1766               	.LVL151:
 1767 079a 2F5F      		subi r18,lo8(-(1))
 1768 079c 3F4F      		sbci r19,hi8(-(1))
 1769 079e C901      		movw r24,r18
 1770 07a0 6AE0      		ldi r22,lo8(10)
 1771 07a2 70E0      		ldi r23,hi8(10)
 1772 07a4 0E94 0000 		call __divmodhi4
 1773 07a8 FC01      		movw r30,r24
 1774               	.LVL152:
 1775 07aa E050      		subi r30,lo8(-(numbertable))
 1776 07ac F040      		sbci r31,hi8(-(numbertable))
 1777               	/* #APP */
 1778               	 ;  1816 "iv.c" 1
 1779 07ae E491      		lpm r30, Z
 1780               		
 1781               	 ;  0 "" 2
 1782               	.LVL153:
 1783               	/* #NOAPP */
 1784               	.LBE322:
 1785 07b0 E093 0000 		sts display+2,r30
 1786               	.LBB323:
 1787               	.LM244:
 1788 07b4 C901      		movw r24,r18
 1789 07b6 6AE0      		ldi r22,lo8(10)
 1790 07b8 70E0      		ldi r23,hi8(10)
 1791 07ba 0E94 0000 		call __divmodhi4
 1792 07be FB01      		movw r30,r22
 1793               	.LVL154:
 1794 07c0 E050      		subi r30,lo8(-(numbertable))
 1795 07c2 F040      		sbci r31,hi8(-(numbertable))
 1796               	/* #APP */
 1797               	 ;  1817 "iv.c" 1
 1798 07c4 E491      		lpm r30, Z
 1799               		
 1800               	 ;  0 "" 2
 1801               	.LVL155:
 1802               	/* #NOAPP */
 1803 07c6 00C0      		rjmp .L147
 1804               	.LVL156:
 1805               	.L142:
 1806               	.LBE323:
 1807               	.LBB324:
 1808               	.LM245:
 1809 07c8 832F      		mov r24,r19
 1810 07ca 90E0      		ldi r25,lo8(0)
 1811               	.LVL157:
 1812 07cc 4796      		adiw r24,23
 1813 07ce 68E1      		ldi r22,lo8(24)
 1814 07d0 70E0      		ldi r23,hi8(24)
 1815 07d2 0E94 0000 		call __divmodhi4
 1816 07d6 9C01      		movw r18,r24
 1817               	.LVL158:
 1818 07d8 2F5F      		subi r18,lo8(-(1))
 1819 07da 3F4F      		sbci r19,hi8(-(1))
 1820 07dc C901      		movw r24,r18
 1821 07de 6AE0      		ldi r22,lo8(10)
 1822 07e0 70E0      		ldi r23,hi8(10)
 1823 07e2 0E94 0000 		call __divmodhi4
 1824 07e6 FC01      		movw r30,r24
 1825               	.LVL159:
 1826 07e8 E050      		subi r30,lo8(-(numbertable))
 1827 07ea F040      		sbci r31,hi8(-(numbertable))
 1828               	/* #APP */
 1829               	 ;  1819 "iv.c" 1
 1830 07ec E491      		lpm r30, Z
 1831               		
 1832               	 ;  0 "" 2
 1833               	.LVL160:
 1834               	/* #NOAPP */
 1835               	.LBE324:
 1836 07ee E093 0000 		sts display+2,r30
 1837               	.LBB325:
 1838               	.LM246:
 1839 07f2 C901      		movw r24,r18
 1840 07f4 6AE0      		ldi r22,lo8(10)
 1841 07f6 70E0      		ldi r23,hi8(10)
 1842 07f8 0E94 0000 		call __divmodhi4
 1843 07fc FB01      		movw r30,r22
 1844               	.LVL161:
 1845 07fe E050      		subi r30,lo8(-(numbertable))
 1846 0800 F040      		sbci r31,hi8(-(numbertable))
 1847               	/* #APP */
 1848               	 ;  1820 "iv.c" 1
 1849 0802 E491      		lpm r30, Z
 1850               		
 1851               	 ;  0 "" 2
 1852               	.LVL162:
 1853               	/* #NOAPP */
 1854               	.L147:
 1855               	.LBE325:
 1856 0804 E093 0000 		sts display+1,r30
 1857 0808 0895      		ret
 1858               	.LFE67:
 1860               	.global	set_alarm
 1862               	set_alarm:
 1863               	.LFB39:
 1864               	.LM247:
 1865 080a EF92      		push r14
 1866 080c FF92      		push r15
 1867 080e 0F93      		push r16
 1868 0810 1F93      		push r17
 1869               	/* prologue: function */
 1870               	/* frame size = 0 */
 1871               	.LM248:
 1872 0812 1091 0000 		lds r17,alarm_h
 1873               	.LVL163:
 1874               	.LM249:
 1875 0816 0091 0000 		lds r16,alarm_m
 1876               	.LVL164:
 1877               	.LM250:
 1878 081a 8AE0      		ldi r24,lo8(10)
 1879 081c 8093 0000 		sts timeoutcounter,r24
 1880 0820 FF24      		clr r15
 1881               	.LVL165:
 1882               	.LM251:
 1883 0822 EAE0      		ldi r30,lo8(10)
 1884 0824 EE2E      		mov r14,r30
 1885               	.L173:
 1886               	.LM252:
 1887 0826 8091 0000 		lds r24,just_pressed
 1888 082a 80FD      		sbrc r24,0
 1889 082c 00C0      		rjmp .L165
 1890               	.LM253:
 1891 082e 8091 0000 		lds r24,just_pressed
 1892 0832 8823      		tst r24
 1893 0834 01F4      		brne .L150
 1894 0836 8091 0000 		lds r24,pressed
 1895 083a 8823      		tst r24
 1896 083c 01F0      		breq .L151
 1897               	.L150:
 1898               	.LM254:
 1899 083e E092 0000 		sts timeoutcounter,r14
 1900 0842 00C0      		rjmp .L152
 1901               	.L151:
 1902               	.LM255:
 1903 0844 8091 0000 		lds r24,timeoutcounter
 1904 0848 8823      		tst r24
 1905 084a 01F4      		brne .L152
 1906               	.LM256:
 1907 084c 1092 0000 		sts displaymode,__zero_reg__
 1908               	.LM257:
 1909 0850 1093 0000 		sts alarm_h,r17
 1910               	.LM258:
 1911 0854 0093 0000 		sts alarm_m,r16
 1912               	.LM259:
 1913 0858 2091 0000 		lds r18,alarm_h
 1914               	.L153:
 1915               	.LBB326:
 1916               	.LBB327:
 1917               	.LM260:
 1918 085c F999      		sbic 63-32,1
 1919 085e 00C0      		rjmp .L153
 1920               	.LM261:
 1921 0860 1FBA      		out 63-32,__zero_reg__
 1922               	.LM262:
 1923 0862 87E0      		ldi r24,lo8(7)
 1924 0864 90E0      		ldi r25,hi8(7)
 1925 0866 92BD      		out (65)+1-32,r25
 1926 0868 81BD      		out 65-32,r24
 1927               	.LM263:
 1928 086a 20BD      		out 64-32,r18
 1929               	.LM264:
 1930               	/* #APP */
 1931               	 ;  324 "/Applications/Arduino.app/Contents/Resources/Java/hardware/tools/avr/bin/../lib/gcc/avr/4.
 1932               		/* START EEPROM WRITE CRITICAL SECTION */
 1933 086c 0FB6      		in	r0, 63		
 1934 086e F894      		cli				
 1935 0870 FA9A      		sbi	31, 2	
 1936 0872 F99A      		sbi	31, 1	
 1937 0874 0FBE      		out	63, r0		
 1938               		/* END EEPROM WRITE CRITICAL SECTION */
 1939               	 ;  0 "" 2
 1940               	/* #NOAPP */
 1941               	.LBE327:
 1942               	.LBE326:
 1943               	.LM265:
 1944 0876 2091 0000 		lds r18,alarm_m
 1945               	.L154:
 1946               	.LBB328:
 1947               	.LBB329:
 1948               	.LM266:
 1949 087a F999      		sbic 63-32,1
 1950 087c 00C0      		rjmp .L154
 1951               	.LM267:
 1952 087e 1FBA      		out 63-32,__zero_reg__
 1953               	.LM268:
 1954 0880 88E0      		ldi r24,lo8(8)
 1955 0882 90E0      		ldi r25,hi8(8)
 1956 0884 92BD      		out (65)+1-32,r25
 1957 0886 81BD      		out 65-32,r24
 1958               	.LM269:
 1959 0888 20BD      		out 64-32,r18
 1960               	.LM270:
 1961               	/* #APP */
 1962               	 ;  324 "/Applications/Arduino.app/Contents/Resources/Java/hardware/tools/avr/bin/../lib/gcc/avr/4.
 1963               		/* START EEPROM WRITE CRITICAL SECTION */
 1964 088a 0FB6      		in	r0, 63		
 1965 088c F894      		cli				
 1966 088e FA9A      		sbi	31, 2	
 1967 0890 F99A      		sbi	31, 1	
 1968 0892 0FBE      		out	63, r0		
 1969               		/* END EEPROM WRITE CRITICAL SECTION */
 1970               	 ;  0 "" 2
 1971               	/* #NOAPP */
 1972 0894 00C0      		rjmp .L165
 1973               	.L152:
 1974               	.LBE329:
 1975               	.LBE328:
 1976               	.LM271:
 1977 0896 8091 0000 		lds r24,just_pressed
 1978 089a 81FF      		sbrs r24,1
 1979 089c 00C0      		rjmp .L155
 1980               	.LM272:
 1981 089e 1092 0000 		sts just_pressed,__zero_reg__
 1982               	.LM273:
 1983 08a2 FF20      		tst r15
 1984 08a4 01F4      		brne .L156
 1985               	.LM274:
 1986 08a6 812F      		mov r24,r17
 1987 08a8 602F      		mov r22,r16
 1988 08aa 0E94 0000 		call display_alarm
 1989               	.LM275:
 1990 08ae 8091 0000 		lds r24,display+1
 1991 08b2 8160      		ori r24,lo8(1)
 1992 08b4 8093 0000 		sts display+1,r24
 1993               	.LM276:
 1994 08b8 8091 0000 		lds r24,display+2
 1995 08bc 8160      		ori r24,lo8(1)
 1996 08be 8093 0000 		sts display+2,r24
 1997 08c2 FF24      		clr r15
 1998 08c4 F394      		inc r15
 1999 08c6 00C0      		rjmp .L155
 2000               	.L156:
 2001               	.LM277:
 2002 08c8 81E0      		ldi r24,lo8(1)
 2003 08ca F816      		cp r15,r24
 2004 08cc 01F4      		brne .L157
 2005               	.LM278:
 2006 08ce 812F      		mov r24,r17
 2007 08d0 602F      		mov r22,r16
 2008 08d2 0E94 0000 		call display_alarm
 2009               	.LM279:
 2010 08d6 8091 0000 		lds r24,display+4
 2011 08da 8160      		ori r24,lo8(1)
 2012 08dc 8093 0000 		sts display+4,r24
 2013               	.LM280:
 2014 08e0 8091 0000 		lds r24,display+5
 2015 08e4 8160      		ori r24,lo8(1)
 2016 08e6 8093 0000 		sts display+5,r24
 2017 08ea 72E0      		ldi r23,lo8(2)
 2018 08ec F72E      		mov r15,r23
 2019 08ee 00C0      		rjmp .L155
 2020               	.L157:
 2021               	.LM281:
 2022 08f0 1093 0000 		sts alarm_h,r17
 2023               	.LM282:
 2024 08f4 0093 0000 		sts alarm_m,r16
 2025               	.LM283:
 2026 08f8 2091 0000 		lds r18,alarm_h
 2027               	.L158:
 2028               	.LBB330:
 2029               	.LBB331:
 2030               	.LM284:
 2031 08fc F999      		sbic 63-32,1
 2032 08fe 00C0      		rjmp .L158
 2033               	.LM285:
 2034 0900 1FBA      		out 63-32,__zero_reg__
 2035               	.LM286:
 2036 0902 87E0      		ldi r24,lo8(7)
 2037 0904 90E0      		ldi r25,hi8(7)
 2038 0906 92BD      		out (65)+1-32,r25
 2039 0908 81BD      		out 65-32,r24
 2040               	.LM287:
 2041 090a 20BD      		out 64-32,r18
 2042               	.LM288:
 2043               	/* #APP */
 2044               	 ;  324 "/Applications/Arduino.app/Contents/Resources/Java/hardware/tools/avr/bin/../lib/gcc/avr/4.
 2045               		/* START EEPROM WRITE CRITICAL SECTION */
 2046 090c 0FB6      		in	r0, 63		
 2047 090e F894      		cli				
 2048 0910 FA9A      		sbi	31, 2	
 2049 0912 F99A      		sbi	31, 1	
 2050 0914 0FBE      		out	63, r0		
 2051               		/* END EEPROM WRITE CRITICAL SECTION */
 2052               	 ;  0 "" 2
 2053               	/* #NOAPP */
 2054               	.LBE331:
 2055               	.LBE330:
 2056               	.LM289:
 2057 0916 2091 0000 		lds r18,alarm_m
 2058               	.L159:
 2059               	.LBB332:
 2060               	.LBB333:
 2061               	.LM290:
 2062 091a F999      		sbic 63-32,1
 2063 091c 00C0      		rjmp .L159
 2064               	.LM291:
 2065 091e 1FBA      		out 63-32,__zero_reg__
 2066               	.LM292:
 2067 0920 88E0      		ldi r24,lo8(8)
 2068 0922 90E0      		ldi r25,hi8(8)
 2069 0924 92BD      		out (65)+1-32,r25
 2070 0926 81BD      		out 65-32,r24
 2071               	.LM293:
 2072 0928 20BD      		out 64-32,r18
 2073               	.LM294:
 2074               	/* #APP */
 2075               	 ;  324 "/Applications/Arduino.app/Contents/Resources/Java/hardware/tools/avr/bin/../lib/gcc/avr/4.
 2076               		/* START EEPROM WRITE CRITICAL SECTION */
 2077 092a 0FB6      		in	r0, 63		
 2078 092c F894      		cli				
 2079 092e FA9A      		sbi	31, 2	
 2080 0930 F99A      		sbi	31, 1	
 2081 0932 0FBE      		out	63, r0		
 2082               		/* END EEPROM WRITE CRITICAL SECTION */
 2083               	 ;  0 "" 2
 2084               	/* #NOAPP */
 2085               	.LBE333:
 2086               	.LBE332:
 2087               	.LM295:
 2088 0934 1092 0000 		sts displaymode,__zero_reg__
 2089 0938 00C0      		rjmp .L165
 2090               	.L155:
 2091               	.LM296:
 2092 093a 8091 0000 		lds r24,just_pressed
 2093 093e 82FD      		sbrc r24,2
 2094 0940 00C0      		rjmp .L160
 2095 0942 8091 0000 		lds r24,pressed
 2096 0946 82FF      		sbrs r24,2
 2097 0948 00C0      		rjmp .L173
 2098               	.L160:
 2099               	.LM297:
 2100 094a 1092 0000 		sts just_pressed,__zero_reg__
 2101               	.LM298:
 2102 094e 81E0      		ldi r24,lo8(1)
 2103 0950 F816      		cp r15,r24
 2104 0952 01F4      		brne .L162
 2105               	.LM299:
 2106 0954 812F      		mov r24,r17
 2107 0956 90E0      		ldi r25,lo8(0)
 2108               	.LVL166:
 2109 0958 0196      		adiw r24,1
 2110 095a 68E1      		ldi r22,lo8(24)
 2111 095c 70E0      		ldi r23,hi8(24)
 2112 095e 0E94 0000 		call __divmodhi4
 2113 0962 182F      		mov r17,r24
 2114               	.LM300:
 2115 0964 602F      		mov r22,r16
 2116 0966 0E94 0000 		call display_alarm
 2117               	.LVL167:
 2118               	.LM301:
 2119 096a 8091 0000 		lds r24,display+1
 2120 096e 8160      		ori r24,lo8(1)
 2121 0970 8093 0000 		sts display+1,r24
 2122               	.LM302:
 2123 0974 8091 0000 		lds r24,display+2
 2124 0978 8160      		ori r24,lo8(1)
 2125 097a 8093 0000 		sts display+2,r24
 2126 097e 00C0      		rjmp .L163
 2127               	.L162:
 2128               	.LM303:
 2129 0980 82E0      		ldi r24,lo8(2)
 2130 0982 F816      		cp r15,r24
 2131 0984 01F4      		brne .L163
 2132               	.LM304:
 2133 0986 802F      		mov r24,r16
 2134 0988 90E0      		ldi r25,lo8(0)
 2135               	.LVL168:
 2136 098a 0196      		adiw r24,1
 2137 098c 6CE3      		ldi r22,lo8(60)
 2138 098e 70E0      		ldi r23,hi8(60)
 2139 0990 0E94 0000 		call __divmodhi4
 2140 0994 082F      		mov r16,r24
 2141               	.LM305:
 2142 0996 812F      		mov r24,r17
 2143 0998 602F      		mov r22,r16
 2144 099a 0E94 0000 		call display_alarm
 2145               	.LVL169:
 2146               	.LM306:
 2147 099e 8091 0000 		lds r24,display+4
 2148 09a2 8160      		ori r24,lo8(1)
 2149 09a4 8093 0000 		sts display+4,r24
 2150               	.LM307:
 2151 09a8 8091 0000 		lds r24,display+5
 2152 09ac 8160      		ori r24,lo8(1)
 2153 09ae 8093 0000 		sts display+5,r24
 2154               	.L163:
 2155               	.LM308:
 2156 09b2 8091 0000 		lds r24,pressed
 2157 09b6 82FF      		sbrs r24,2
 2158 09b8 00C0      		rjmp .L173
 2159               	.LBB334:
 2160               	.LBB335:
 2161               	.LM309:
 2162               	/* #APP */
 2163               	 ;  140 "iv.c" 1
 2164 09ba 7894      		sei
 2165               	 ;  0 "" 2
 2166               	.LM310:
 2167               	/* #NOAPP */
 2168 09bc 1092 0000 		sts (milliseconds)+1,__zero_reg__
 2169 09c0 1092 0000 		sts milliseconds,__zero_reg__
 2170               	.L164:
 2171               	.LM311:
 2172 09c4 8091 0000 		lds r24,milliseconds
 2173 09c8 9091 0000 		lds r25,(milliseconds)+1
 2174 09cc 8B34      		cpi r24,75
 2175 09ce 9105      		cpc r25,__zero_reg__
 2176 09d0 00F0      		brlo .L164
 2177 09d2 00C0      		rjmp .L173
 2178               	.L165:
 2179               	/* epilogue start */
 2180               	.LBE335:
 2181               	.LBE334:
 2182               	.LM312:
 2183 09d4 1F91      		pop r17
 2184               	.LVL170:
 2185 09d6 0F91      		pop r16
 2186               	.LVL171:
 2187 09d8 FF90      		pop r15
 2188               	.LVL172:
 2189 09da EF90      		pop r14
 2190 09dc 0895      		ret
 2191               	.LFE39:
 2193               	.global	display_timezone
 2195               	display_timezone:
 2196               	.LFB68:
 2197               	.LM313:
 2198               	.LVL173:
 2199               	/* prologue: function */
 2200               	/* frame size = 0 */
 2201 09de 482F      		mov r20,r24
 2202 09e0 262F      		mov r18,r22
 2203               	.LBB336:
 2204               	.LM314:
 2205 09e2 E0E0      		ldi r30,lo8(alphatable+2)
 2206 09e4 F0E0      		ldi r31,hi8(alphatable+2)
 2207               	/* #APP */
 2208               	 ;  1826 "iv.c" 1
 2209 09e6 8491      		lpm r24, Z
 2210               		
 2211               	 ;  0 "" 2
 2212               	.LVL174:
 2213               	/* #NOAPP */
 2214               	.LBE336:
 2215 09e8 8093 0000 		sts display+8,r24
 2216               	.LBB337:
 2217               	.LM315:
 2218 09ec 7196      		adiw r30,17
 2219               	/* #APP */
 2220               	 ;  1827 "iv.c" 1
 2221 09ee 8491      		lpm r24, Z
 2222               		
 2223               	 ;  0 "" 2
 2224               	.LVL175:
 2225               	/* #NOAPP */
 2226               	.LBE337:
 2227 09f0 8093 0000 		sts display+7,r24
 2228               	.LBB338:
 2229               	.LM316:
 2230 09f4 3196      		adiw r30,1
 2231               	/* #APP */
 2232               	 ;  1828 "iv.c" 1
 2233 09f6 E491      		lpm r30, Z
 2234               		
 2235               	 ;  0 "" 2
 2236               	.LVL176:
 2237               	/* #NOAPP */
 2238               	.LBE338:
 2239 09f8 E093 0000 		sts display+6,r30
 2240               	.LBB339:
 2241               	.LM317:
 2242 09fc 862F      		mov r24,r22
 2243               	.LVL177:
 2244 09fe 6AE0      		ldi r22,lo8(10)
 2245               	.LVL178:
 2246 0a00 0E94 0000 		call __udivmodqi4
 2247 0a04 E92F      		mov r30,r25
 2248               	.LVL179:
 2249 0a06 F0E0      		ldi r31,lo8(0)
 2250 0a08 E050      		subi r30,lo8(-(numbertable))
 2251 0a0a F040      		sbci r31,hi8(-(numbertable))
 2252               	/* #APP */
 2253               	 ;  1829 "iv.c" 1
 2254 0a0c E491      		lpm r30, Z
 2255               		
 2256               	 ;  0 "" 2
 2257               	.LVL180:
 2258               	/* #NOAPP */
 2259               	.LBE339:
 2260 0a0e E093 0000 		sts display+5,r30
 2261               	.LBB340:
 2262               	.LM318:
 2263 0a12 822F      		mov r24,r18
 2264 0a14 0E94 0000 		call __udivmodqi4
 2265 0a18 E82F      		mov r30,r24
 2266               	.LVL181:
 2267 0a1a F0E0      		ldi r31,lo8(0)
 2268 0a1c E050      		subi r30,lo8(-(numbertable))
 2269 0a1e F040      		sbci r31,hi8(-(numbertable))
 2270               	/* #APP */
 2271               	 ;  1830 "iv.c" 1
 2272 0a20 E491      		lpm r30, Z
 2273               		
 2274               	 ;  0 "" 2
 2275               	.LVL182:
 2276               	/* #NOAPP */
 2277               	.LBE340:
 2278 0a22 E093 0000 		sts display+4,r30
 2279               	.LM319:
 2280 0a26 1092 0000 		sts display+3,__zero_reg__
 2281               	.LBB341:
 2282               	.LM320:
 2283 0a2a 242F      		mov r18,r20
 2284 0a2c 3327      		clr r19
 2285 0a2e 27FD      		sbrc r18,7
 2286 0a30 3095      		com r19
 2287               	.LVL183:
 2288 0a32 37FF      		sbrs r19,7
 2289 0a34 00C0      		rjmp .L175
 2290 0a36 3095      		com r19
 2291 0a38 2195      		neg r18
 2292 0a3a 3F4F      		sbci r19,lo8(-1)
 2293               	.L175:
 2294 0a3c C901      		movw r24,r18
 2295 0a3e 6AE0      		ldi r22,lo8(10)
 2296 0a40 70E0      		ldi r23,hi8(10)
 2297 0a42 0E94 0000 		call __divmodhi4
 2298 0a46 FC01      		movw r30,r24
 2299               	.LVL184:
 2300 0a48 E050      		subi r30,lo8(-(numbertable))
 2301 0a4a F040      		sbci r31,hi8(-(numbertable))
 2302               	/* #APP */
 2303               	 ;  1832 "iv.c" 1
 2304 0a4c E491      		lpm r30, Z
 2305               		
 2306               	 ;  0 "" 2
 2307               	.LVL185:
 2308               	/* #NOAPP */
 2309               	.LBE341:
 2310 0a4e E093 0000 		sts display+2,r30
 2311               	.LBB342:
 2312               	.LM321:
 2313 0a52 C901      		movw r24,r18
 2314 0a54 6AE0      		ldi r22,lo8(10)
 2315 0a56 70E0      		ldi r23,hi8(10)
 2316 0a58 0E94 0000 		call __divmodhi4
 2317 0a5c FB01      		movw r30,r22
 2318               	.LVL186:
 2319 0a5e E050      		subi r30,lo8(-(numbertable))
 2320 0a60 F040      		sbci r31,hi8(-(numbertable))
 2321               	/* #APP */
 2322               	 ;  1833 "iv.c" 1
 2323 0a62 E491      		lpm r30, Z
 2324               		
 2325               	 ;  0 "" 2
 2326               	.LVL187:
 2327               	/* #NOAPP */
 2328               	.LBE342:
 2329 0a64 E093 0000 		sts display+1,r30
 2330               	.LM322:
 2331 0a68 47FD      		sbrc r20,7
 2332 0a6a 00C0      		rjmp .L176
 2333               	.LM323:
 2334 0a6c 8091 0000 		lds r24,display
 2335 0a70 8D7F      		andi r24,lo8(-3)
 2336 0a72 00C0      		rjmp .L179
 2337               	.L176:
 2338               	.LM324:
 2339 0a74 8091 0000 		lds r24,display
 2340 0a78 8260      		ori r24,lo8(2)
 2341               	.L179:
 2342 0a7a 8093 0000 		sts display,r24
 2343 0a7e 0895      		ret
 2344               	.LFE68:
 2346               	.global	display_str
 2348               	display_str:
 2349               	.LFB69:
 2350               	.LM325:
 2351               	.LVL188:
 2352 0a80 CF93      		push r28
 2353 0a82 DF93      		push r29
 2354               	/* prologue: function */
 2355               	/* frame size = 0 */
 2356               	.LM326:
 2357 0a84 1092 0000 		sts display,__zero_reg__
 2358 0a88 EC01      		movw r28,r24
 2359               	.LVL189:
 2360 0a8a A0E0      		ldi r26,lo8(display+1)
 2361 0a8c B0E0      		ldi r27,hi8(display+1)
 2362               	.LVL190:
 2363               	.L185:
 2364               	.LM327:
 2365 0a8e E881      		ld r30,Y
 2366               	.LVL191:
 2367 0a90 EE23      		tst r30
 2368 0a92 01F0      		breq .L186
 2369               	.LM328:
 2370 0a94 8E2F      		mov r24,r30
 2371 0a96 8156      		subi r24,lo8(-(-97))
 2372 0a98 8A31      		cpi r24,lo8(26)
 2373 0a9a 00F4      		brsh .L182
 2374               	.LBB343:
 2375               	.LM329:
 2376 0a9c F0E0      		ldi r31,lo8(0)
 2377 0a9e E050      		subi r30,lo8(-(alphatable-97))
 2378 0aa0 F040      		sbci r31,hi8(-(alphatable-97))
 2379               	/* #APP */
 2380               	 ;  1857 "iv.c" 1
 2381 0aa2 E491      		lpm r30, Z
 2382               		
 2383               	 ;  0 "" 2
 2384               	.LVL192:
 2385               	/* #NOAPP */
 2386 0aa4 00C0      		rjmp .L188
 2387               	.LVL193:
 2388               	.L182:
 2389               	.LBE343:
 2390               	.LM330:
 2391 0aa6 8E2F      		mov r24,r30
 2392 0aa8 8053      		subi r24,lo8(-(-48))
 2393 0aaa 8A30      		cpi r24,lo8(10)
 2394 0aac 00F4      		brsh .L184
 2395               	.LBB344:
 2396               	.LM331:
 2397 0aae F0E0      		ldi r31,lo8(0)
 2398 0ab0 E050      		subi r30,lo8(-(numbertable-48))
 2399 0ab2 F040      		sbci r31,hi8(-(numbertable-48))
 2400               	/* #APP */
 2401               	 ;  1859 "iv.c" 1
 2402 0ab4 E491      		lpm r30, Z
 2403               		
 2404               	 ;  0 "" 2
 2405               	.LVL194:
 2406               	/* #NOAPP */
 2407               	.L188:
 2408               	.LBE344:
 2409 0ab6 EC93      		st X,r30
 2410 0ab8 00C0      		rjmp .L183
 2411               	.LVL195:
 2412               	.L184:
 2413               	.LM332:
 2414 0aba 1C92      		st X,__zero_reg__
 2415               	.LVL196:
 2416               	.L183:
 2417 0abc 2196      		adiw r28,1
 2418 0abe 1196      		adiw r26,1
 2419               	.LM333:
 2420 0ac0 80E0      		ldi r24,hi8(display+9)
 2421 0ac2 A030      		cpi r26,lo8(display+9)
 2422 0ac4 B807      		cpc r27,r24
 2423 0ac6 01F4      		brne .L185
 2424               	.L186:
 2425               	/* epilogue start */
 2426               	.LM334:
 2427 0ac8 DF91      		pop r29
 2428 0aca CF91      		pop r28
 2429 0acc 0895      		ret
 2430               	.LFE69:
 2432               		.data
 2433               	.LC0:
 2434 0000 7375 6E64 		.string	"sunday"
 2434      6179 00
 2435               	.LC1:
 2436 0007 6D6F 6E64 		.string	"monday"
 2436      6179 00
 2437               	.LC2:
 2438 000e 7475 6573 		.string	"tuesday"
 2438      6461 7900 
 2439               	.LC3:
 2440 0016 7765 646E 		.string	"wednsday"
 2440      7364 6179 
 2440      00
 2441               	.LC4:
 2442 001f 7468 7572 		.string	"thursday"
 2442      7364 6179 
 2442      00
 2443               	.LC5:
 2444 0028 6672 6964 		.string	"friday"
 2444      6179 00
 2445               	.LC6:
 2446 002f 7361 7475 		.string	"saturday"
 2446      7264 6179 
 2446      00
 2447               	.LC7:
 2448 0038 6A61 6E00 		.string	"jan"
 2449               	.LC8:
 2450 003c 6665 6200 		.string	"feb"
 2451               	.LC9:
 2452 0040 6D61 7263 		.string	"march"
 2452      6800 
 2453               	.LC10:
 2454 0046 6170 7269 		.string	"april"
 2454      6C00 
 2455               	.LC11:
 2456 004c 6D61 7900 		.string	"may"
 2457               	.LC12:
 2458 0050 6A75 6E65 		.string	"june"
 2458      00
 2459               	.LC13:
 2460 0055 6A75 6C79 		.string	"july"
 2460      00
 2461               	.LC14:
 2462 005a 6175 6773 		.string	"augst"
 2462      7400 
 2463               	.LC15:
 2464 0060 7365 7074 		.string	"sept"
 2464      00
 2465               	.LC16:
 2466 0065 6F63 746F 		.string	"octob"
 2466      6200 
 2467               	.LC17:
 2468 006b 6E6F 7665 		.string	"novem"
 2468      6D00 
 2469               	.LC18:
 2470 0071 6465 6365 		.string	"decem"
 2470      6D00 
 2471               		.text
 2472               	.global	display_date
 2474               	display_date:
 2475               	.LFB65:
 2476               	.LM335:
 2477               	.LVL197:
 2478 0ace CF93      		push r28
 2479 0ad0 DF93      		push r29
 2480               	/* prologue: function */
 2481               	/* frame size = 0 */
 2482               	.LM336:
 2483 0ad2 8823      		tst r24
 2484 0ad4 01F0      		breq .+2
 2485 0ad6 00C0      		rjmp .L190
 2486               	.LM337:
 2487 0ad8 1092 0000 		sts display,__zero_reg__
 2488               	.LM338:
 2489 0adc 82E0      		ldi r24,lo8(2)
 2490               	.LVL198:
 2491 0ade 8093 0000 		sts display+3,r24
 2492 0ae2 8093 0000 		sts display+6,r24
 2493               	.LM339:
 2494 0ae6 8091 0000 		lds r24,region
 2495 0aea 8823      		tst r24
 2496 0aec 01F0      		breq .+2
 2497 0aee 00C0      		rjmp .L191
 2498               	.LBB345:
 2499               	.LM340:
 2500 0af0 8091 0000 		lds r24,date_m
 2501 0af4 6AE0      		ldi r22,lo8(10)
 2502 0af6 0E94 0000 		call __divmodqi4
 2503 0afa E82F      		mov r30,r24
 2504 0afc FF27      		clr r31
 2505 0afe E7FD      		sbrc r30,7
 2506 0b00 F095      		com r31
 2507 0b02 E050      		subi r30,lo8(-(numbertable))
 2508 0b04 F040      		sbci r31,hi8(-(numbertable))
 2509               	/* #APP */
 2510               	 ;  1615 "iv.c" 1
 2511 0b06 E491      		lpm r30, Z
 2512               		
 2513               	 ;  0 "" 2
 2514               	.LVL199:
 2515               	/* #NOAPP */
 2516               	.LBE345:
 2517 0b08 E093 0000 		sts display+1,r30
 2518               	.LBB346:
 2519               	.LM341:
 2520 0b0c 8091 0000 		lds r24,date_m
 2521 0b10 6AE0      		ldi r22,lo8(10)
 2522 0b12 0E94 0000 		call __divmodqi4
 2523 0b16 E92F      		mov r30,r25
 2524 0b18 FF27      		clr r31
 2525 0b1a E7FD      		sbrc r30,7
 2526 0b1c F095      		com r31
 2527               	.LVL200:
 2528 0b1e E050      		subi r30,lo8(-(numbertable))
 2529 0b20 F040      		sbci r31,hi8(-(numbertable))
 2530               	/* #APP */
 2531               	 ;  1616 "iv.c" 1
 2532 0b22 E491      		lpm r30, Z
 2533               		
 2534               	 ;  0 "" 2
 2535               	.LVL201:
 2536               	/* #NOAPP */
 2537               	.LBE346:
 2538 0b24 E093 0000 		sts display+2,r30
 2539               	.LBB347:
 2540               	.LM342:
 2541 0b28 8091 0000 		lds r24,date_d
 2542 0b2c 6AE0      		ldi r22,lo8(10)
 2543 0b2e 0E94 0000 		call __divmodqi4
 2544 0b32 E82F      		mov r30,r24
 2545 0b34 FF27      		clr r31
 2546 0b36 E7FD      		sbrc r30,7
 2547 0b38 F095      		com r31
 2548               	.LVL202:
 2549 0b3a E050      		subi r30,lo8(-(numbertable))
 2550 0b3c F040      		sbci r31,hi8(-(numbertable))
 2551               	/* #APP */
 2552               	 ;  1617 "iv.c" 1
 2553 0b3e E491      		lpm r30, Z
 2554               		
 2555               	 ;  0 "" 2
 2556               	.LVL203:
 2557               	/* #NOAPP */
 2558               	.LBE347:
 2559 0b40 E093 0000 		sts display+4,r30
 2560               	.LBB348:
 2561               	.LM343:
 2562 0b44 8091 0000 		lds r24,date_d
 2563 0b48 6AE0      		ldi r22,lo8(10)
 2564 0b4a 0E94 0000 		call __divmodqi4
 2565 0b4e E92F      		mov r30,r25
 2566 0b50 FF27      		clr r31
 2567 0b52 E7FD      		sbrc r30,7
 2568 0b54 F095      		com r31
 2569               	.LVL204:
 2570 0b56 E050      		subi r30,lo8(-(numbertable))
 2571 0b58 F040      		sbci r31,hi8(-(numbertable))
 2572               	/* #APP */
 2573               	 ;  1618 "iv.c" 1
 2574 0b5a E491      		lpm r30, Z
 2575               		
 2576               	 ;  0 "" 2
 2577               	.LVL205:
 2578               	/* #NOAPP */
 2579 0b5c 00C0      		rjmp .L224
 2580               	.LVL206:
 2581               	.L191:
 2582               	.LBE348:
 2583               	.LBB349:
 2584               	.LM344:
 2585 0b5e 8091 0000 		lds r24,date_d
 2586 0b62 6AE0      		ldi r22,lo8(10)
 2587 0b64 0E94 0000 		call __divmodqi4
 2588 0b68 E82F      		mov r30,r24
 2589 0b6a FF27      		clr r31
 2590 0b6c E7FD      		sbrc r30,7
 2591 0b6e F095      		com r31
 2592 0b70 E050      		subi r30,lo8(-(numbertable))
 2593 0b72 F040      		sbci r31,hi8(-(numbertable))
 2594               	/* #APP */
 2595               	 ;  1621 "iv.c" 1
 2596 0b74 E491      		lpm r30, Z
 2597               		
 2598               	 ;  0 "" 2
 2599               	.LVL207:
 2600               	/* #NOAPP */
 2601               	.LBE349:
 2602 0b76 E093 0000 		sts display+1,r30
 2603               	.LBB350:
 2604               	.LM345:
 2605 0b7a 8091 0000 		lds r24,date_d
 2606 0b7e 6AE0      		ldi r22,lo8(10)
 2607 0b80 0E94 0000 		call __divmodqi4
 2608 0b84 E92F      		mov r30,r25
 2609 0b86 FF27      		clr r31
 2610 0b88 E7FD      		sbrc r30,7
 2611 0b8a F095      		com r31
 2612               	.LVL208:
 2613 0b8c E050      		subi r30,lo8(-(numbertable))
 2614 0b8e F040      		sbci r31,hi8(-(numbertable))
 2615               	/* #APP */
 2616               	 ;  1622 "iv.c" 1
 2617 0b90 E491      		lpm r30, Z
 2618               		
 2619               	 ;  0 "" 2
 2620               	.LVL209:
 2621               	/* #NOAPP */
 2622               	.LBE350:
 2623 0b92 E093 0000 		sts display+2,r30
 2624               	.LBB351:
 2625               	.LM346:
 2626 0b96 8091 0000 		lds r24,date_m
 2627 0b9a 6AE0      		ldi r22,lo8(10)
 2628 0b9c 0E94 0000 		call __divmodqi4
 2629 0ba0 E82F      		mov r30,r24
 2630 0ba2 FF27      		clr r31
 2631 0ba4 E7FD      		sbrc r30,7
 2632 0ba6 F095      		com r31
 2633               	.LVL210:
 2634 0ba8 E050      		subi r30,lo8(-(numbertable))
 2635 0baa F040      		sbci r31,hi8(-(numbertable))
 2636               	/* #APP */
 2637               	 ;  1623 "iv.c" 1
 2638 0bac E491      		lpm r30, Z
 2639               		
 2640               	 ;  0 "" 2
 2641               	.LVL211:
 2642               	/* #NOAPP */
 2643               	.LBE351:
 2644 0bae E093 0000 		sts display+4,r30
 2645               	.LBB352:
 2646               	.LM347:
 2647 0bb2 8091 0000 		lds r24,date_m
 2648 0bb6 6AE0      		ldi r22,lo8(10)
 2649 0bb8 0E94 0000 		call __divmodqi4
 2650 0bbc E92F      		mov r30,r25
 2651 0bbe FF27      		clr r31
 2652 0bc0 E7FD      		sbrc r30,7
 2653 0bc2 F095      		com r31
 2654               	.LVL212:
 2655 0bc4 E050      		subi r30,lo8(-(numbertable))
 2656 0bc6 F040      		sbci r31,hi8(-(numbertable))
 2657               	/* #APP */
 2658               	 ;  1624 "iv.c" 1
 2659 0bc8 E491      		lpm r30, Z
 2660               		
 2661               	 ;  0 "" 2
 2662               	.LVL213:
 2663               	/* #NOAPP */
 2664               	.L224:
 2665               	.LBE352:
 2666 0bca E093 0000 		sts display+5,r30
 2667               	.LBB353:
 2668               	.LM348:
 2669 0bce 8091 0000 		lds r24,date_y
 2670 0bd2 6AE0      		ldi r22,lo8(10)
 2671 0bd4 0E94 0000 		call __divmodqi4
 2672 0bd8 E82F      		mov r30,r24
 2673 0bda FF27      		clr r31
 2674 0bdc E7FD      		sbrc r30,7
 2675 0bde F095      		com r31
 2676               	.LVL214:
 2677 0be0 E050      		subi r30,lo8(-(numbertable))
 2678 0be2 F040      		sbci r31,hi8(-(numbertable))
 2679               	/* #APP */
 2680               	 ;  1627 "iv.c" 1
 2681 0be4 E491      		lpm r30, Z
 2682               		
 2683               	 ;  0 "" 2
 2684               	.LVL215:
 2685               	/* #NOAPP */
 2686               	.LBE353:
 2687 0be6 E093 0000 		sts display+7,r30
 2688               	.LBB354:
 2689               	.LM349:
 2690 0bea 8091 0000 		lds r24,date_y
 2691 0bee 6AE0      		ldi r22,lo8(10)
 2692 0bf0 0E94 0000 		call __divmodqi4
 2693 0bf4 E92F      		mov r30,r25
 2694 0bf6 FF27      		clr r31
 2695 0bf8 E7FD      		sbrc r30,7
 2696 0bfa F095      		com r31
 2697               	.LVL216:
 2698 0bfc E050      		subi r30,lo8(-(numbertable))
 2699 0bfe F040      		sbci r31,hi8(-(numbertable))
 2700               	/* #APP */
 2701               	 ;  1628 "iv.c" 1
 2702 0c00 E491      		lpm r30, Z
 2703               		
 2704               	 ;  0 "" 2
 2705               	.LVL217:
 2706               	/* #NOAPP */
 2707 0c02 00C0      		rjmp .L227
 2708               	.LVL218:
 2709               	.L190:
 2710               	.LBE354:
 2711               	.LM350:
 2712 0c04 8130      		cpi r24,lo8(1)
 2713 0c06 01F0      		breq .+2
 2714 0c08 00C0      		rjmp .L221
 2715               	.LBB355:
 2716               	.LM351:
 2717 0c0a 8091 0000 		lds r24,date_m
 2718               	.LVL219:
 2719 0c0e C82F      		mov r28,r24
 2720 0c10 DD27      		clr r29
 2721 0c12 C7FD      		sbrc r28,7
 2722 0c14 D095      		com r29
 2723               	.LVL220:
 2724               	.LM352:
 2725 0c16 8091 0000 		lds r24,date_y
 2726 0c1a E82F      		mov r30,r24
 2727 0c1c FF27      		clr r31
 2728 0c1e E7FD      		sbrc r30,7
 2729 0c20 F095      		com r31
 2730               	.LVL221:
 2731 0c22 E053      		subi r30,lo8(-(2000))
 2732 0c24 F84F      		sbci r31,hi8(-(2000))
 2733               	.LM353:
 2734 0c26 8091 0000 		lds r24,date_m
 2735 0c2a 8330      		cpi r24,lo8(3)
 2736 0c2c 04F4      		brge .L194
 2737               	.LM354:
 2738 0c2e 2C96      		adiw r28,12
 2739               	.LM355:
 2740 0c30 3197      		sbiw r30,1
 2741               	.L194:
 2742               	.LM356:
 2743 0c32 2091 0000 		lds r18,date_d
 2744               	.LM357:
 2745 0c36 1092 0000 		sts display+7,__zero_reg__
 2746 0c3a 1092 0000 		sts display+8,__zero_reg__
 2747               	.LM358:
 2748 0c3e 3327      		clr r19
 2749 0c40 27FD      		sbrc r18,7
 2750 0c42 3095      		com r19
 2751 0c44 2F5F      		subi r18,lo8(-(1))
 2752 0c46 3F4F      		sbci r19,hi8(-(1))
 2753 0c48 2E0F      		add r18,r30
 2754 0c4a 3F1F      		adc r19,r31
 2755 0c4c CE01      		movw r24,r28
 2756 0c4e 880F      		lsl r24
 2757 0c50 991F      		rol r25
 2758 0c52 280F      		add r18,r24
 2759 0c54 391F      		adc r19,r25
 2760 0c56 CF01      		movw r24,r30
 2761 0c58 9695      		lsr r25
 2762 0c5a 8795      		ror r24
 2763 0c5c 9695      		lsr r25
 2764 0c5e 8795      		ror r24
 2765 0c60 280F      		add r18,r24
 2766 0c62 391F      		adc r19,r25
 2767 0c64 CF01      		movw r24,r30
 2768 0c66 60E9      		ldi r22,lo8(400)
 2769 0c68 71E0      		ldi r23,hi8(400)
 2770 0c6a 0E94 0000 		call __udivmodhi4
 2771 0c6e 260F      		add r18,r22
 2772 0c70 371F      		adc r19,r23
 2773 0c72 CF01      		movw r24,r30
 2774 0c74 64E6      		ldi r22,lo8(100)
 2775 0c76 70E0      		ldi r23,hi8(100)
 2776 0c78 0E94 0000 		call __udivmodhi4
 2777 0c7c 261B      		sub r18,r22
 2778 0c7e 370B      		sbc r19,r23
 2779 0c80 AE01      		movw r20,r28
 2780 0c82 4F5F      		subi r20,lo8(-(1))
 2781 0c84 5F4F      		sbci r21,hi8(-(1))
 2782 0c86 CA01      		movw r24,r20
 2783 0c88 880F      		lsl r24
 2784 0c8a 991F      		rol r25
 2785 0c8c 840F      		add r24,r20
 2786 0c8e 951F      		adc r25,r21
 2787 0c90 880F      		lsl r24
 2788 0c92 991F      		rol r25
 2789 0c94 6AE0      		ldi r22,lo8(10)
 2790 0c96 70E0      		ldi r23,hi8(10)
 2791 0c98 0E94 0000 		call __udivmodhi4
 2792 0c9c C901      		movw r24,r18
 2793 0c9e 860F      		add r24,r22
 2794 0ca0 971F      		adc r25,r23
 2795 0ca2 67E0      		ldi r22,lo8(7)
 2796 0ca4 70E0      		ldi r23,hi8(7)
 2797 0ca6 0E94 0000 		call __udivmodhi4
 2798 0caa 8330      		cpi r24,lo8(3)
 2799 0cac 01F0      		breq .L199
 2800 0cae 8430      		cpi r24,lo8(4)
 2801 0cb0 00F4      		brsh .L203
 2802 0cb2 8130      		cpi r24,lo8(1)
 2803 0cb4 01F0      		breq .L197
 2804 0cb6 8230      		cpi r24,lo8(2)
 2805 0cb8 00F4      		brsh .L198
 2806 0cba 00C0      		rjmp .L228
 2807               	.L203:
 2808 0cbc 8530      		cpi r24,lo8(5)
 2809 0cbe 01F0      		breq .L201
 2810 0cc0 8530      		cpi r24,lo8(5)
 2811 0cc2 00F0      		brlo .L200
 2812 0cc4 8630      		cpi r24,lo8(6)
 2813 0cc6 01F4      		brne .L195
 2814 0cc8 00C0      		rjmp .L229
 2815               	.L228:
 2816               	.LM359:
 2817 0cca 80E0      		ldi r24,lo8(.LC0)
 2818 0ccc 90E0      		ldi r25,hi8(.LC0)
 2819 0cce 00C0      		rjmp .L225
 2820               	.L197:
 2821               	.LM360:
 2822 0cd0 80E0      		ldi r24,lo8(.LC1)
 2823 0cd2 90E0      		ldi r25,hi8(.LC1)
 2824 0cd4 00C0      		rjmp .L225
 2825               	.L198:
 2826               	.LM361:
 2827 0cd6 80E0      		ldi r24,lo8(.LC2)
 2828 0cd8 90E0      		ldi r25,hi8(.LC2)
 2829 0cda 00C0      		rjmp .L225
 2830               	.L199:
 2831               	.LM362:
 2832 0cdc 80E0      		ldi r24,lo8(.LC3)
 2833 0cde 90E0      		ldi r25,hi8(.LC3)
 2834 0ce0 00C0      		rjmp .L225
 2835               	.L200:
 2836               	.LM363:
 2837 0ce2 80E0      		ldi r24,lo8(.LC4)
 2838 0ce4 90E0      		ldi r25,hi8(.LC4)
 2839 0ce6 00C0      		rjmp .L225
 2840               	.L201:
 2841               	.LM364:
 2842 0ce8 80E0      		ldi r24,lo8(.LC5)
 2843 0cea 90E0      		ldi r25,hi8(.LC5)
 2844 0cec 00C0      		rjmp .L225
 2845               	.L229:
 2846               	.LM365:
 2847 0cee 80E0      		ldi r24,lo8(.LC6)
 2848 0cf0 90E0      		ldi r25,hi8(.LC6)
 2849               	.L225:
 2850 0cf2 0E94 0000 		call display_str
 2851               	.LVL222:
 2852               	.L195:
 2853               	.LBB356:
 2854               	.LBB357:
 2855               	.LM366:
 2856               	/* #APP */
 2857               	 ;  140 "iv.c" 1
 2858 0cf6 7894      		sei
 2859               	 ;  0 "" 2
 2860               	.LM367:
 2861               	/* #NOAPP */
 2862 0cf8 1092 0000 		sts (milliseconds)+1,__zero_reg__
 2863 0cfc 1092 0000 		sts milliseconds,__zero_reg__
 2864               	.L204:
 2865               	.LM368:
 2866 0d00 8091 0000 		lds r24,milliseconds
 2867 0d04 9091 0000 		lds r25,(milliseconds)+1
 2868 0d08 885E      		subi r24,lo8(1000)
 2869 0d0a 9340      		sbci r25,hi8(1000)
 2870 0d0c 00F0      		brlo .L204
 2871               	.LBE357:
 2872               	.LBE356:
 2873               	.LM369:
 2874 0d0e 1092 0000 		sts display+4,__zero_reg__
 2875 0d12 1092 0000 		sts display+5,__zero_reg__
 2876 0d16 1092 0000 		sts display+6,__zero_reg__
 2877               	.LM370:
 2878 0d1a 8091 0000 		lds r24,date_m
 2879 0d1e 8630      		cpi r24,lo8(6)
 2880 0d20 01F0      		breq .L211
 2881 0d22 8730      		cpi r24,lo8(7)
 2882 0d24 04F4      		brge .L218
 2883 0d26 8330      		cpi r24,lo8(3)
 2884 0d28 01F0      		breq .L208
 2885 0d2a 8430      		cpi r24,lo8(4)
 2886 0d2c 04F4      		brge .L219
 2887 0d2e 8130      		cpi r24,lo8(1)
 2888 0d30 01F0      		breq .L206
 2889 0d32 8230      		cpi r24,lo8(2)
 2890 0d34 01F4      		brne .L205
 2891 0d36 00C0      		rjmp .L230
 2892               	.L219:
 2893 0d38 8430      		cpi r24,lo8(4)
 2894 0d3a 01F0      		breq .L209
 2895 0d3c 8530      		cpi r24,lo8(5)
 2896 0d3e 01F4      		brne .L205
 2897 0d40 00C0      		rjmp .L231
 2898               	.L218:
 2899 0d42 8930      		cpi r24,lo8(9)
 2900 0d44 01F0      		breq .L214
 2901 0d46 8A30      		cpi r24,lo8(10)
 2902 0d48 04F4      		brge .L220
 2903 0d4a 8730      		cpi r24,lo8(7)
 2904 0d4c 01F0      		breq .L212
 2905 0d4e 8830      		cpi r24,lo8(8)
 2906 0d50 01F4      		brne .L205
 2907 0d52 00C0      		rjmp .L232
 2908               	.L220:
 2909 0d54 8B30      		cpi r24,lo8(11)
 2910 0d56 01F0      		breq .L216
 2911 0d58 8B30      		cpi r24,lo8(11)
 2912 0d5a 04F0      		brlt .L215
 2913 0d5c 8C30      		cpi r24,lo8(12)
 2914 0d5e 01F4      		brne .L205
 2915 0d60 00C0      		rjmp .L233
 2916               	.L206:
 2917               	.LM371:
 2918 0d62 80E0      		ldi r24,lo8(.LC7)
 2919 0d64 90E0      		ldi r25,hi8(.LC7)
 2920 0d66 00C0      		rjmp .L226
 2921               	.L230:
 2922               	.LM372:
 2923 0d68 80E0      		ldi r24,lo8(.LC8)
 2924 0d6a 90E0      		ldi r25,hi8(.LC8)
 2925 0d6c 00C0      		rjmp .L226
 2926               	.L208:
 2927               	.LM373:
 2928 0d6e 80E0      		ldi r24,lo8(.LC9)
 2929 0d70 90E0      		ldi r25,hi8(.LC9)
 2930 0d72 00C0      		rjmp .L226
 2931               	.L209:
 2932               	.LM374:
 2933 0d74 80E0      		ldi r24,lo8(.LC10)
 2934 0d76 90E0      		ldi r25,hi8(.LC10)
 2935 0d78 00C0      		rjmp .L226
 2936               	.L231:
 2937               	.LM375:
 2938 0d7a 80E0      		ldi r24,lo8(.LC11)
 2939 0d7c 90E0      		ldi r25,hi8(.LC11)
 2940 0d7e 00C0      		rjmp .L226
 2941               	.L211:
 2942               	.LM376:
 2943 0d80 80E0      		ldi r24,lo8(.LC12)
 2944 0d82 90E0      		ldi r25,hi8(.LC12)
 2945 0d84 00C0      		rjmp .L226
 2946               	.L212:
 2947               	.LM377:
 2948 0d86 80E0      		ldi r24,lo8(.LC13)
 2949 0d88 90E0      		ldi r25,hi8(.LC13)
 2950 0d8a 00C0      		rjmp .L226
 2951               	.L232:
 2952               	.LM378:
 2953 0d8c 80E0      		ldi r24,lo8(.LC14)
 2954 0d8e 90E0      		ldi r25,hi8(.LC14)
 2955 0d90 00C0      		rjmp .L226
 2956               	.L214:
 2957               	.LM379:
 2958 0d92 80E0      		ldi r24,lo8(.LC15)
 2959 0d94 90E0      		ldi r25,hi8(.LC15)
 2960 0d96 00C0      		rjmp .L226
 2961               	.L215:
 2962               	.LM380:
 2963 0d98 80E0      		ldi r24,lo8(.LC16)
 2964 0d9a 90E0      		ldi r25,hi8(.LC16)
 2965 0d9c 00C0      		rjmp .L226
 2966               	.L216:
 2967               	.LM381:
 2968 0d9e 80E0      		ldi r24,lo8(.LC17)
 2969 0da0 90E0      		ldi r25,hi8(.LC17)
 2970 0da2 00C0      		rjmp .L226
 2971               	.L233:
 2972               	.LM382:
 2973 0da4 80E0      		ldi r24,lo8(.LC18)
 2974 0da6 90E0      		ldi r25,hi8(.LC18)
 2975               	.L226:
 2976 0da8 0E94 0000 		call display_str
 2977               	.LVL223:
 2978               	.L205:
 2979               	.LBB358:
 2980               	.LM383:
 2981 0dac 8091 0000 		lds r24,date_d
 2982 0db0 6AE0      		ldi r22,lo8(10)
 2983 0db2 0E94 0000 		call __divmodqi4
 2984 0db6 E82F      		mov r30,r24
 2985 0db8 FF27      		clr r31
 2986 0dba E7FD      		sbrc r30,7
 2987 0dbc F095      		com r31
 2988               	.LVL224:
 2989 0dbe E050      		subi r30,lo8(-(numbertable))
 2990 0dc0 F040      		sbci r31,hi8(-(numbertable))
 2991               	/* #APP */
 2992               	 ;  1696 "iv.c" 1
 2993 0dc2 E491      		lpm r30, Z
 2994               		
 2995               	 ;  0 "" 2
 2996               	.LVL225:
 2997               	/* #NOAPP */
 2998               	.LBE358:
 2999 0dc4 E093 0000 		sts display+7,r30
 3000               	.LBB359:
 3001               	.LM384:
 3002 0dc8 8091 0000 		lds r24,date_d
 3003 0dcc 6AE0      		ldi r22,lo8(10)
 3004 0dce 0E94 0000 		call __divmodqi4
 3005 0dd2 E92F      		mov r30,r25
 3006 0dd4 FF27      		clr r31
 3007 0dd6 E7FD      		sbrc r30,7
 3008 0dd8 F095      		com r31
 3009               	.LVL226:
 3010 0dda E050      		subi r30,lo8(-(numbertable))
 3011 0ddc F040      		sbci r31,hi8(-(numbertable))
 3012               	/* #APP */
 3013               	 ;  1697 "iv.c" 1
 3014 0dde E491      		lpm r30, Z
 3015               		
 3016               	 ;  0 "" 2
 3017               	.LVL227:
 3018               	/* #NOAPP */
 3019               	.L227:
 3020               	.LBE359:
 3021 0de0 E093 0000 		sts display+8,r30
 3022               	.LVL228:
 3023               	.L221:
 3024               	/* epilogue start */
 3025               	.LBE355:
 3026               	.LM385:
 3027 0de4 DF91      		pop r29
 3028 0de6 CF91      		pop r28
 3029               	.LVL229:
 3030 0de8 0895      		ret
 3031               	.LFE65:
 3033               		.data
 3034               	.LC19:
 3035 0077 7573 612D 		.string	"usa-12hr"
 3035      3132 6872 
 3035      00
 3036               	.LC20:
 3037 0080 6575 722D 		.string	"eur-24hr"
 3037      3234 6872 
 3037      00
 3038               		.text
 3039               	.global	set_region
 3041               	set_region:
 3042               	.LFB48:
 3043               	.LM386:
 3044 0dea 0F93      		push r16
 3045 0dec 1F93      		push r17
 3046 0dee CF93      		push r28
 3047 0df0 DF93      		push r29
 3048               	/* prologue: function */
 3049               	/* frame size = 0 */
 3050               	.LM387:
 3051 0df2 8AE0      		ldi r24,lo8(10)
 3052 0df4 8093 0000 		sts timeoutcounter,r24
 3053               	.L235:
 3054               	.LBB360:
 3055               	.LBB361:
 3056               	.LM388:
 3057 0df8 F999      		sbic 63-32,1
 3058 0dfa 00C0      		rjmp .L235
 3059               	.LM389:
 3060 0dfc 8BE0      		ldi r24,lo8(11)
 3061 0dfe 90E0      		ldi r25,hi8(11)
 3062 0e00 92BD      		out (65)+1-32,r25
 3063 0e02 81BD      		out 65-32,r24
 3064               	.LM390:
 3065               	/* #APP */
 3066               	 ;  208 "/Applications/Arduino.app/Contents/Resources/Java/hardware/tools/avr/bin/../lib/gcc/avr/4.
 3067               		/* START EEPROM READ CRITICAL SECTION */ 
 3068 0e04 F89A      		sbi 31, 0 
 3069 0e06 80B5      		in r24, 32 
 3070               		/* END EEPROM READ CRITICAL SECTION */ 
 3071               		
 3072               	 ;  0 "" 2
 3073               	.LVL230:
 3074               	/* #NOAPP */
 3075               	.LBE361:
 3076               	.LBE360:
 3077               	.LM391:
 3078 0e08 8093 0000 		sts region,r24
 3079 0e0c 10E0      		ldi r17,lo8(0)
 3080               	.LVL231:
 3081               	.LM392:
 3082 0e0e 0AE0      		ldi r16,lo8(10)
 3083               	.LBB362:
 3084               	.LBB363:
 3085               	.LM393:
 3086 0e10 CBE0      		ldi r28,lo8(11)
 3087 0e12 D0E0      		ldi r29,hi8(11)
 3088 0e14 00C0      		rjmp .L254
 3089               	.LVL232:
 3090               	.L244:
 3091               	.LBE363:
 3092               	.LBE362:
 3093               	.LM394:
 3094 0e16 10E0      		ldi r17,lo8(0)
 3095               	.LVL233:
 3096               	.L254:
 3097               	.LM395:
 3098 0e18 8091 0000 		lds r24,just_pressed
 3099               	.LVL234:
 3100 0e1c 8823      		tst r24
 3101 0e1e 01F4      		brne .L237
 3102 0e20 8091 0000 		lds r24,pressed
 3103 0e24 8823      		tst r24
 3104 0e26 01F0      		breq .L238
 3105               	.L237:
 3106               	.LM396:
 3107 0e28 0093 0000 		sts timeoutcounter,r16
 3108 0e2c 00C0      		rjmp .L239
 3109               	.L238:
 3110               	.LM397:
 3111 0e2e 8091 0000 		lds r24,timeoutcounter
 3112 0e32 8823      		tst r24
 3113 0e34 01F0      		breq .L242
 3114               	.L239:
 3115               	.LM398:
 3116 0e36 8091 0000 		lds r24,just_pressed
 3117 0e3a 80FD      		sbrc r24,0
 3118 0e3c 00C0      		rjmp .L249
 3119               	.LM399:
 3120 0e3e 8091 0000 		lds r24,just_pressed
 3121 0e42 81FF      		sbrs r24,1
 3122 0e44 00C0      		rjmp .L241
 3123               	.LM400:
 3124 0e46 1092 0000 		sts just_pressed,__zero_reg__
 3125               	.LM401:
 3126 0e4a 1123      		tst r17
 3127 0e4c 01F4      		brne .L242
 3128               	.LM402:
 3129 0e4e 8091 0000 		lds r24,region
 3130 0e52 8823      		tst r24
 3131 0e54 01F4      		brne .L243
 3132               	.LM403:
 3133 0e56 80E0      		ldi r24,lo8(.LC19)
 3134 0e58 90E0      		ldi r25,hi8(.LC19)
 3135 0e5a 00C0      		rjmp .L255
 3136               	.L243:
 3137               	.LM404:
 3138 0e5c 80E0      		ldi r24,lo8(.LC20)
 3139 0e5e 90E0      		ldi r25,hi8(.LC20)
 3140               	.L255:
 3141 0e60 0E94 0000 		call display_str
 3142 0e64 11E0      		ldi r17,lo8(1)
 3143 0e66 00C0      		rjmp .L241
 3144               	.L242:
 3145               	.LM405:
 3146 0e68 1092 0000 		sts displaymode,__zero_reg__
 3147 0e6c 00C0      		rjmp .L249
 3148               	.L241:
 3149               	.LM406:
 3150 0e6e 8091 0000 		lds r24,just_pressed
 3151 0e72 82FF      		sbrs r24,2
 3152 0e74 00C0      		rjmp .L254
 3153               	.LM407:
 3154 0e76 1092 0000 		sts just_pressed,__zero_reg__
 3155               	.LM408:
 3156 0e7a 1130      		cpi r17,lo8(1)
 3157 0e7c 01F4      		brne .L244
 3158               	.LM409:
 3159 0e7e 90E0      		ldi r25,lo8(0)
 3160 0e80 8091 0000 		lds r24,region
 3161 0e84 8823      		tst r24
 3162 0e86 01F4      		brne .L245
 3163 0e88 91E0      		ldi r25,lo8(1)
 3164               	.L245:
 3165 0e8a 9093 0000 		sts region,r25
 3166               	.LM410:
 3167 0e8e 9923      		tst r25
 3168 0e90 01F4      		brne .L246
 3169               	.LM411:
 3170 0e92 80E0      		ldi r24,lo8(.LC19)
 3171 0e94 90E0      		ldi r25,hi8(.LC19)
 3172 0e96 00C0      		rjmp .L256
 3173               	.L246:
 3174               	.LM412:
 3175 0e98 80E0      		ldi r24,lo8(.LC20)
 3176 0e9a 90E0      		ldi r25,hi8(.LC20)
 3177               	.L256:
 3178 0e9c 0E94 0000 		call display_str
 3179               	.LM413:
 3180 0ea0 8091 0000 		lds r24,region
 3181               	.L248:
 3182               	.LBB365:
 3183               	.LBB364:
 3184               	.LM414:
 3185 0ea4 F999      		sbic 63-32,1
 3186 0ea6 00C0      		rjmp .L248
 3187               	.LM415:
 3188 0ea8 1FBA      		out 63-32,__zero_reg__
 3189               	.LM416:
 3190 0eaa D2BD      		out (65)+1-32,r29
 3191 0eac C1BD      		out 65-32,r28
 3192               	.LM417:
 3193 0eae 80BD      		out 64-32,r24
 3194               	.LM418:
 3195               	/* #APP */
 3196               	 ;  324 "/Applications/Arduino.app/Contents/Resources/Java/hardware/tools/avr/bin/../lib/gcc/avr/4.
 3197               		/* START EEPROM WRITE CRITICAL SECTION */
 3198 0eb0 0FB6      		in	r0, 63		
 3199 0eb2 F894      		cli				
 3200 0eb4 FA9A      		sbi	31, 2	
 3201 0eb6 F99A      		sbi	31, 1	
 3202 0eb8 0FBE      		out	63, r0		
 3203               		/* END EEPROM WRITE CRITICAL SECTION */
 3204               	 ;  0 "" 2
 3205               	/* #NOAPP */
 3206 0eba 00C0      		rjmp .L254
 3207               	.L249:
 3208               	/* epilogue start */
 3209               	.LBE364:
 3210               	.LBE365:
 3211               	.LM419:
 3212 0ebc DF91      		pop r29
 3213 0ebe CF91      		pop r28
 3214 0ec0 1F91      		pop r17
 3215               	.LVL235:
 3216 0ec2 0F91      		pop r16
 3217 0ec4 0895      		ret
 3218               	.LFE48:
 3220               		.data
 3221               	.LC21:
 3222 0089 766F 6C20 		.string	"vol high"
 3222      6869 6768 
 3222      00
 3223               	.LC22:
 3224 0092 766F 6C20 		.string	"vol  low"
 3224      206C 6F77 
 3224      00
 3225               		.text
 3226               	.global	set_volume
 3228               	set_volume:
 3229               	.LFB47:
 3230               	.LM420:
 3231 0ec6 EF92      		push r14
 3232 0ec8 FF92      		push r15
 3233 0eca 0F93      		push r16
 3234 0ecc 1F93      		push r17
 3235 0ece CF93      		push r28
 3236 0ed0 DF93      		push r29
 3237               	/* prologue: function */
 3238               	/* frame size = 0 */
 3239               	.LM421:
 3240 0ed2 8AE0      		ldi r24,lo8(10)
 3241 0ed4 8093 0000 		sts timeoutcounter,r24
 3242               	.L258:
 3243               	.LBB366:
 3244               	.LBB367:
 3245               	.LM422:
 3246 0ed8 F999      		sbic 63-32,1
 3247 0eda 00C0      		rjmp .L258
 3248               	.LM423:
 3249 0edc 8AE0      		ldi r24,lo8(10)
 3250 0ede 90E0      		ldi r25,hi8(10)
 3251 0ee0 92BD      		out (65)+1-32,r25
 3252 0ee2 81BD      		out 65-32,r24
 3253               	.LM424:
 3254               	/* #APP */
 3255               	 ;  208 "/Applications/Arduino.app/Contents/Resources/Java/hardware/tools/avr/bin/../lib/gcc/avr/4.
 3256               		/* START EEPROM READ CRITICAL SECTION */ 
 3257 0ee4 F89A      		sbi 31, 0 
 3258 0ee6 F0B4      		in r15, 32 
 3259               		/* END EEPROM READ CRITICAL SECTION */ 
 3260               		
 3261               	 ;  0 "" 2
 3262               	.LVL236:
 3263               	/* #NOAPP */
 3264 0ee8 00E0      		ldi r16,lo8(0)
 3265               	.LVL237:
 3266               	.LBE367:
 3267               	.LBE366:
 3268               	.LM425:
 3269 0eea 5AE0      		ldi r21,lo8(10)
 3270 0eec E52E      		mov r14,r21
 3271               	.LBB369:
 3272               	.LBB370:
 3273               	.LM426:
 3274 0eee CAE0      		ldi r28,lo8(10)
 3275 0ef0 D0E0      		ldi r29,hi8(10)
 3276 0ef2 00C0      		rjmp .L278
 3277               	.L268:
 3278               	.LBE370:
 3279               	.LBE369:
 3280               	.LBB372:
 3281               	.LBB368:
 3282               	.LM427:
 3283 0ef4 00E0      		ldi r16,lo8(0)
 3284               	.L278:
 3285               	.LBE368:
 3286               	.LBE372:
 3287               	.LM428:
 3288 0ef6 8091 0000 		lds r24,just_pressed
 3289 0efa 8823      		tst r24
 3290 0efc 01F4      		brne .L260
 3291 0efe 8091 0000 		lds r24,pressed
 3292 0f02 8823      		tst r24
 3293 0f04 01F0      		breq .L261
 3294               	.L260:
 3295               	.LM429:
 3296 0f06 E092 0000 		sts timeoutcounter,r14
 3297 0f0a 00C0      		rjmp .L262
 3298               	.L261:
 3299               	.LM430:
 3300 0f0c 8091 0000 		lds r24,timeoutcounter
 3301 0f10 8823      		tst r24
 3302 0f12 01F0      		breq .L265
 3303               	.L262:
 3304               	.LM431:
 3305 0f14 8091 0000 		lds r24,just_pressed
 3306 0f18 80FD      		sbrc r24,0
 3307 0f1a 00C0      		rjmp .L273
 3308               	.LM432:
 3309 0f1c 8091 0000 		lds r24,just_pressed
 3310 0f20 81FF      		sbrs r24,1
 3311 0f22 00C0      		rjmp .L264
 3312               	.LM433:
 3313 0f24 1092 0000 		sts just_pressed,__zero_reg__
 3314               	.LM434:
 3315 0f28 0023      		tst r16
 3316 0f2a 01F4      		brne .L265
 3317               	.LM435:
 3318 0f2c FF20      		tst r15
 3319 0f2e 01F0      		breq .L266
 3320               	.LM436:
 3321 0f30 80E0      		ldi r24,lo8(.LC21)
 3322 0f32 90E0      		ldi r25,hi8(.LC21)
 3323 0f34 0E94 0000 		call display_str
 3324               	.LM437:
 3325 0f38 8091 0000 		lds r24,display+5
 3326 0f3c 8160      		ori r24,lo8(1)
 3327 0f3e 8093 0000 		sts display+5,r24
 3328 0f42 00C0      		rjmp .L267
 3329               	.L266:
 3330               	.LM438:
 3331 0f44 80E0      		ldi r24,lo8(.LC22)
 3332 0f46 90E0      		ldi r25,hi8(.LC22)
 3333 0f48 0E94 0000 		call display_str
 3334               	.L267:
 3335               	.LM439:
 3336 0f4c 8091 0000 		lds r24,display+6
 3337 0f50 8160      		ori r24,lo8(1)
 3338 0f52 8093 0000 		sts display+6,r24
 3339               	.LM440:
 3340 0f56 8091 0000 		lds r24,display+7
 3341 0f5a 8160      		ori r24,lo8(1)
 3342 0f5c 8093 0000 		sts display+7,r24
 3343               	.LM441:
 3344 0f60 8091 0000 		lds r24,display+8
 3345 0f64 8160      		ori r24,lo8(1)
 3346 0f66 8093 0000 		sts display+8,r24
 3347 0f6a 01E0      		ldi r16,lo8(1)
 3348 0f6c 00C0      		rjmp .L264
 3349               	.L265:
 3350               	.LM442:
 3351 0f6e 1092 0000 		sts displaymode,__zero_reg__
 3352 0f72 00C0      		rjmp .L273
 3353               	.L264:
 3354               	.LM443:
 3355 0f74 8091 0000 		lds r24,just_pressed
 3356 0f78 82FF      		sbrs r24,2
 3357 0f7a 00C0      		rjmp .L278
 3358               	.LM444:
 3359 0f7c 1092 0000 		sts just_pressed,__zero_reg__
 3360               	.LM445:
 3361 0f80 0130      		cpi r16,lo8(1)
 3362 0f82 01F0      		breq .+2
 3363 0f84 00C0      		rjmp .L268
 3364               	.LM446:
 3365 0f86 10E0      		ldi r17,lo8(0)
 3366 0f88 FF20      		tst r15
 3367 0f8a 01F4      		brne .L269
 3368 0f8c 11E0      		ldi r17,lo8(1)
 3369               	.L269:
 3370 0f8e F12E      		mov r15,r17
 3371               	.LM447:
 3372 0f90 1123      		tst r17
 3373 0f92 01F0      		breq .L270
 3374               	.LM448:
 3375 0f94 80E0      		ldi r24,lo8(.LC21)
 3376 0f96 90E0      		ldi r25,hi8(.LC21)
 3377 0f98 0E94 0000 		call display_str
 3378               	.LM449:
 3379 0f9c 8091 0000 		lds r24,display+5
 3380 0fa0 8160      		ori r24,lo8(1)
 3381 0fa2 8093 0000 		sts display+5,r24
 3382 0fa6 00C0      		rjmp .L271
 3383               	.L270:
 3384               	.LM450:
 3385 0fa8 80E0      		ldi r24,lo8(.LC22)
 3386 0faa 90E0      		ldi r25,hi8(.LC22)
 3387 0fac 0E94 0000 		call display_str
 3388               	.L271:
 3389               	.LM451:
 3390 0fb0 8091 0000 		lds r24,display+6
 3391 0fb4 8160      		ori r24,lo8(1)
 3392 0fb6 8093 0000 		sts display+6,r24
 3393               	.LM452:
 3394 0fba 8091 0000 		lds r24,display+7
 3395 0fbe 8160      		ori r24,lo8(1)
 3396 0fc0 8093 0000 		sts display+7,r24
 3397               	.LM453:
 3398 0fc4 8091 0000 		lds r24,display+8
 3399 0fc8 8160      		ori r24,lo8(1)
 3400 0fca 8093 0000 		sts display+8,r24
 3401               	.L272:
 3402               	.LBB373:
 3403               	.LBB371:
 3404               	.LM454:
 3405 0fce F999      		sbic 63-32,1
 3406 0fd0 00C0      		rjmp .L272
 3407               	.LM455:
 3408 0fd2 1FBA      		out 63-32,__zero_reg__
 3409               	.LM456:
 3410 0fd4 D2BD      		out (65)+1-32,r29
 3411 0fd6 C1BD      		out 65-32,r28
 3412               	.LM457:
 3413 0fd8 10BD      		out 64-32,r17
 3414               	.LM458:
 3415               	/* #APP */
 3416               	 ;  324 "/Applications/Arduino.app/Contents/Resources/Java/hardware/tools/avr/bin/../lib/gcc/avr/4.
 3417               		/* START EEPROM WRITE CRITICAL SECTION */
 3418 0fda 0FB6      		in	r0, 63		
 3419 0fdc F894      		cli				
 3420 0fde FA9A      		sbi	31, 2	
 3421 0fe0 F99A      		sbi	31, 1	
 3422 0fe2 0FBE      		out	63, r0		
 3423               		/* END EEPROM WRITE CRITICAL SECTION */
 3424               	 ;  0 "" 2
 3425               	/* #NOAPP */
 3426               	.LBE371:
 3427               	.LBE373:
 3428               	.LM459:
 3429 0fe4 0E94 0000 		call speaker_init
 3430               	.LM460:
 3431 0fe8 80EA      		ldi r24,lo8(4000)
 3432 0fea 9FE0      		ldi r25,hi8(4000)
 3433 0fec 61E0      		ldi r22,lo8(1)
 3434 0fee 0E94 0000 		call beep
 3435 0ff2 00C0      		rjmp .L278
 3436               	.L273:
 3437               	/* epilogue start */
 3438               	.LM461:
 3439 0ff4 DF91      		pop r29
 3440 0ff6 CF91      		pop r28
 3441 0ff8 1F91      		pop r17
 3442 0ffa 0F91      		pop r16
 3443               	.LVL238:
 3444 0ffc FF90      		pop r15
 3445               	.LVL239:
 3446 0ffe EF90      		pop r14
 3447 1000 0895      		ret
 3448               	.LFE47:
 3450               		.data
 3451               	.LC23:
 3452 009b 6272 6974 		.string	"brite "
 3452      6520 00
 3453               		.text
 3454               	.global	set_brightness
 3456               	set_brightness:
 3457               	.LFB45:
 3458               	.LM462:
 3459 1002 FF92      		push r15
 3460 1004 0F93      		push r16
 3461 1006 1F93      		push r17
 3462               	/* prologue: function */
 3463               	/* frame size = 0 */
 3464               	.LM463:
 3465 1008 8AE0      		ldi r24,lo8(10)
 3466 100a 8093 0000 		sts timeoutcounter,r24
 3467 100e 10E0      		ldi r17,lo8(0)
 3468               	.LVL240:
 3469               	.LM464:
 3470 1010 6AE0      		ldi r22,lo8(10)
 3471 1012 F62E      		mov r15,r22
 3472               	.LM465:
 3473 1014 0EE1      		ldi r16,lo8(30)
 3474 1016 00C0      		rjmp .L298
 3475               	.L290:
 3476               	.LM466:
 3477 1018 10E0      		ldi r17,lo8(0)
 3478               	.L298:
 3479               	.LM467:
 3480 101a 8091 0000 		lds r24,just_pressed
 3481 101e 8823      		tst r24
 3482 1020 01F4      		brne .L281
 3483 1022 8091 0000 		lds r24,pressed
 3484 1026 8823      		tst r24
 3485 1028 01F0      		breq .L282
 3486               	.L281:
 3487               	.LM468:
 3488 102a F092 0000 		sts timeoutcounter,r15
 3489 102e 00C0      		rjmp .L283
 3490               	.L282:
 3491               	.LM469:
 3492 1030 8091 0000 		lds r24,timeoutcounter
 3493 1034 8823      		tst r24
 3494 1036 01F4      		brne .L283
 3495               	.LM470:
 3496 1038 1092 0000 		sts displaymode,__zero_reg__
 3497               	.LM471:
 3498 103c 2091 0000 		lds r18,brightness_level
 3499               	.L284:
 3500               	.LBB374:
 3501               	.LBB375:
 3502               	.LM472:
 3503 1040 F999      		sbic 63-32,1
 3504 1042 00C0      		rjmp .L284
 3505 1044 00C0      		rjmp .L299
 3506               	.L283:
 3507               	.LBE375:
 3508               	.LBE374:
 3509               	.LM473:
 3510 1046 8091 0000 		lds r24,just_pressed
 3511 104a 80FD      		sbrc r24,0
 3512 104c 00C0      		rjmp .L293
 3513               	.LM474:
 3514 104e 8091 0000 		lds r24,just_pressed
 3515 1052 81FF      		sbrs r24,1
 3516 1054 00C0      		rjmp .L286
 3517               	.LM475:
 3518 1056 1092 0000 		sts just_pressed,__zero_reg__
 3519               	.LM476:
 3520 105a 1123      		tst r17
 3521 105c 01F4      		brne .L287
 3522               	.LM477:
 3523 105e 80E0      		ldi r24,lo8(.LC23)
 3524 1060 90E0      		ldi r25,hi8(.LC23)
 3525 1062 0E94 0000 		call display_str
 3526               	.LM478:
 3527 1066 8091 0000 		lds r24,brightness_level
 3528 106a 90E0      		ldi r25,lo8(0)
 3529 106c 0E94 0000 		call display_brightness
 3530 1070 11E0      		ldi r17,lo8(1)
 3531 1072 00C0      		rjmp .L286
 3532               	.L287:
 3533               	.LM479:
 3534 1074 1092 0000 		sts displaymode,__zero_reg__
 3535               	.LM480:
 3536 1078 2091 0000 		lds r18,brightness_level
 3537               	.L288:
 3538               	.LBB376:
 3539               	.LBB377:
 3540               	.LM481:
 3541 107c F999      		sbic 63-32,1
 3542 107e 00C0      		rjmp .L288
 3543               	.L299:
 3544               	.LM482:
 3545 1080 1FBA      		out 63-32,__zero_reg__
 3546               	.LM483:
 3547 1082 89E0      		ldi r24,lo8(9)
 3548 1084 90E0      		ldi r25,hi8(9)
 3549 1086 92BD      		out (65)+1-32,r25
 3550 1088 81BD      		out 65-32,r24
 3551               	.LM484:
 3552 108a 20BD      		out 64-32,r18
 3553               	.LM485:
 3554               	/* #APP */
 3555               	 ;  324 "/Applications/Arduino.app/Contents/Resources/Java/hardware/tools/avr/bin/../lib/gcc/avr/4.
 3556               		/* START EEPROM WRITE CRITICAL SECTION */
 3557 108c 0FB6      		in	r0, 63		
 3558 108e F894      		cli				
 3559 1090 FA9A      		sbi	31, 2	
 3560 1092 F99A      		sbi	31, 1	
 3561 1094 0FBE      		out	63, r0		
 3562               		/* END EEPROM WRITE CRITICAL SECTION */
 3563               	 ;  0 "" 2
 3564               	/* #NOAPP */
 3565 1096 00C0      		rjmp .L293
 3566               	.L286:
 3567               	.LBE377:
 3568               	.LBE376:
 3569               	.LM486:
 3570 1098 8091 0000 		lds r24,just_pressed
 3571 109c 82FD      		sbrc r24,2
 3572 109e 00C0      		rjmp .L289
 3573 10a0 8091 0000 		lds r24,pressed
 3574 10a4 82FF      		sbrs r24,2
 3575 10a6 00C0      		rjmp .L298
 3576               	.L289:
 3577               	.LM487:
 3578 10a8 1092 0000 		sts just_pressed,__zero_reg__
 3579               	.LM488:
 3580 10ac 1130      		cpi r17,lo8(1)
 3581 10ae 01F0      		breq .+2
 3582 10b0 00C0      		rjmp .L290
 3583               	.LM489:
 3584 10b2 8091 0000 		lds r24,brightness_level
 3585 10b6 8823      		tst r24
 3586 10b8 01F4      		brne .L291
 3587               	.LM490:
 3588 10ba 0093 0000 		sts brightness_level,r16
 3589 10be 00C0      		rjmp .L292
 3590               	.L291:
 3591               	.LM491:
 3592 10c0 8091 0000 		lds r24,brightness_level
 3593 10c4 8B5F      		subi r24,lo8(-(5))
 3594 10c6 8093 0000 		sts brightness_level,r24
 3595               	.LM492:
 3596 10ca 8091 0000 		lds r24,brightness_level
 3597 10ce 8B35      		cpi r24,lo8(91)
 3598 10d0 00F0      		brlo .L292
 3599               	.LM493:
 3600 10d2 1092 0000 		sts brightness_level,__zero_reg__
 3601               	.L292:
 3602               	.LM494:
 3603 10d6 8091 0000 		lds r24,brightness_level
 3604 10da 90E0      		ldi r25,lo8(0)
 3605 10dc 0E94 0000 		call display_brightness
 3606 10e0 00C0      		rjmp .L298
 3607               	.L293:
 3608               	/* epilogue start */
 3609               	.LM495:
 3610 10e2 1F91      		pop r17
 3611               	.LVL241:
 3612 10e4 0F91      		pop r16
 3613 10e6 FF90      		pop r15
 3614 10e8 0895      		ret
 3615               	.LFE45:
 3617               	.global	vfd_init
 3619               	vfd_init:
 3620               	.LFB70:
 3621               	.LM496:
 3622               	/* prologue: function */
 3623               	/* frame size = 0 */
 3624               	.LM497:
 3625 10ea 81E5      		ldi r24,lo8(81)
 3626 10ec 8CBD      		out 76-32,r24
 3627               	/* epilogue start */
 3628               	.LM498:
 3629 10ee 0895      		ret
 3630               	.LFE70:
 3632               	.global	vfd_send
 3634               	vfd_send:
 3635               	.LFB72:
 3636               	.LM499:
 3637               	.LVL242:
 3638               	/* prologue: function */
 3639               	/* frame size = 0 */
 3640 10f0 9B01      		movw r18,r22
 3641 10f2 AC01      		movw r20,r24
 3642               	.LM500:
 3643               	/* #APP */
 3644               	 ;  1901 "iv.c" 1
 3645 10f4 F894      		cli
 3646               	 ;  0 "" 2
 3647               	.LM501:
 3648               	/* #NOAPP */
 3649 10f6 AA27      		clr r26
 3650 10f8 BB27      		clr r27
 3651               	.LBB378:
 3652               	.LBB379:
 3653               	.LM502:
 3654 10fa 8EBD      		out 78-32,r24
 3655               	.L303:
 3656               	.LM503:
 3657 10fc 0DB4      		in __tmp_reg__,77-32
 3658 10fe 07FE      		sbrs __tmp_reg__,7
 3659 1100 00C0      		rjmp .L303
 3660               	.LBE379:
 3661               	.LBE378:
 3662               	.LM504:
 3663 1102 BB27      		clr r27
 3664 1104 A52F      		mov r26,r21
 3665 1106 942F      		mov r25,r20
 3666 1108 832F      		mov r24,r19
 3667               	.LBB380:
 3668               	.LBB381:
 3669               	.LM505:
 3670 110a 8EBD      		out 78-32,r24
 3671               	.LVL243:
 3672               	.L304:
 3673               	.LM506:
 3674 110c 0DB4      		in __tmp_reg__,77-32
 3675 110e 07FE      		sbrs __tmp_reg__,7
 3676 1110 00C0      		rjmp .L304
 3677               	.LBE381:
 3678               	.LBE380:
 3679               	.LBB382:
 3680               	.LBB383:
 3681               	.LM507:
 3682 1112 2EBD      		out 78-32,r18
 3683               	.L305:
 3684               	.LM508:
 3685 1114 0DB4      		in __tmp_reg__,77-32
 3686 1116 07FE      		sbrs __tmp_reg__,7
 3687 1118 00C0      		rjmp .L305
 3688               	.LBE383:
 3689               	.LBE382:
 3690               	.LM509:
 3691 111a 409A      		sbi 40-32,0
 3692               	.LM510:
 3693 111c 4098      		cbi 40-32,0
 3694               	.LM511:
 3695               	/* #APP */
 3696               	 ;  1909 "iv.c" 1
 3697 111e 7894      		sei
 3698               	 ;  0 "" 2
 3699               	/* epilogue start */
 3700               	.LM512:
 3701               	/* #NOAPP */
 3702 1120 0895      		ret
 3703               	.LFE72:
 3705               	.global	setdisplay
 3707               	setdisplay:
 3708               	.LFB71:
 3709               	.LM513:
 3710               	.LVL244:
 3711 1122 AF92      		push r10
 3712 1124 BF92      		push r11
 3713 1126 CF92      		push r12
 3714 1128 DF92      		push r13
 3715 112a EF92      		push r14
 3716 112c FF92      		push r15
 3717 112e 0F93      		push r16
 3718 1130 1F93      		push r17
 3719               	/* prologue: function */
 3720               	/* frame size = 0 */
 3721               	.LBB384:
 3722               	.LM514:
 3723 1132 E82F      		mov r30,r24
 3724 1134 F0E0      		ldi r31,lo8(0)
 3725               	.LVL245:
 3726 1136 E050      		subi r30,lo8(-(digittable))
 3727 1138 F040      		sbci r31,hi8(-(digittable))
 3728               	.LVL246:
 3729               	/* #APP */
 3730               	 ;  1881 "iv.c" 1
 3731 113a E491      		lpm r30, Z
 3732               		
 3733               	 ;  0 "" 2
 3734               	.LVL247:
 3735               	/* #NOAPP */
 3736               	.LBE384:
 3737 113c 81E0      		ldi r24,lo8(1)
 3738 113e 90E0      		ldi r25,hi8(1)
 3739 1140 00C0      		rjmp 2f
 3740 1142 880F      	1:	lsl r24
 3741 1144 991F      		rol r25
 3742 1146 EA95      	2:	dec r30
 3743 1148 02F4      		brpl 1b
 3744 114a 7C01      		movw r14,r24
 3745 114c 0027      		clr r16
 3746 114e F7FC      		sbrc r15,7
 3747 1150 0095      		com r16
 3748 1152 102F      		mov r17,r16
 3749               	.LVL248:
 3750 1154 2091 0000 		lds r18,t
 3751 1158 3091 0000 		lds r19,(t)+1
 3752 115c 4091 0000 		lds r20,(t)+2
 3753 1160 5091 0000 		lds r21,(t)+3
 3754 1164 A0E0      		ldi r26,lo8(0)
 3755 1166 B0E0      		ldi r27,hi8(0)
 3756               	.LM515:
 3757 1168 70E0      		ldi r23,lo8(0)
 3758               	.LVL249:
 3759               	.LM516:
 3760 116a F1E0      		ldi r31,lo8(1)
 3761 116c AF2E      		mov r10,r31
 3762 116e B12C      		mov r11,__zero_reg__
 3763 1170 C12C      		mov r12,__zero_reg__
 3764 1172 D12C      		mov r13,__zero_reg__
 3765               	.LVL250:
 3766               	.L312:
 3767               	.LM517:
 3768 1174 CB01      		movw r24,r22
 3769 1176 0A2E      		mov r0,r26
 3770 1178 00C0      		rjmp 2f
 3771 117a 9595      	1:	asr r25
 3772 117c 8795      		ror r24
 3773 117e 0A94      	2:	dec r0
 3774 1180 02F4      		brpl 1b
 3775 1182 80FF      		sbrs r24,0
 3776 1184 00C0      		rjmp .L311
 3777               	.LBB385:
 3778               	.LM518:
 3779 1186 FD01      		movw r30,r26
 3780               	.LVL251:
 3781 1188 E050      		subi r30,lo8(-(segmenttable))
 3782 118a F040      		sbci r31,hi8(-(segmenttable))
 3783               	/* #APP */
 3784               	 ;  1888 "iv.c" 1
 3785 118c E491      		lpm r30, Z
 3786               		
 3787               	 ;  0 "" 2
 3788               	.LVL252:
 3789               	/* #NOAPP */
 3790               	.LBE385:
 3791 118e A601      		movw r20,r12
 3792 1190 9501      		movw r18,r10
 3793 1192 00C0      		rjmp 2f
 3794 1194 220F      	1:	lsl r18
 3795 1196 331F      		rol r19
 3796 1198 441F      		rol r20
 3797 119a 551F      		rol r21
 3798 119c EA95      	2:	dec r30
 3799 119e 02F4      		brpl 1b
 3800               	.LM519:
 3801 11a0 E22A      		or r14,r18
 3802 11a2 F32A      		or r15,r19
 3803 11a4 042B      		or r16,r20
 3804 11a6 152B      		or r17,r21
 3805               	.LVL253:
 3806               	.L311:
 3807 11a8 1196      		adiw r26,1
 3808               	.LM520:
 3809 11aa A830      		cpi r26,8
 3810 11ac B105      		cpc r27,__zero_reg__
 3811 11ae 01F4      		brne .L312
 3812 11b0 2093 0000 		sts t,r18
 3813 11b4 3093 0000 		sts (t)+1,r19
 3814 11b8 4093 0000 		sts (t)+2,r20
 3815 11bc 5093 0000 		sts (t)+3,r21
 3816               	.LM521:
 3817 11c0 C801      		movw r24,r16
 3818 11c2 B701      		movw r22,r14
 3819               	.LVL254:
 3820 11c4 0E94 0000 		call vfd_send
 3821               	.LVL255:
 3822               	/* epilogue start */
 3823               	.LM522:
 3824 11c8 1F91      		pop r17
 3825 11ca 0F91      		pop r16
 3826 11cc FF90      		pop r15
 3827 11ce EF90      		pop r14
 3828               	.LVL256:
 3829 11d0 DF90      		pop r13
 3830 11d2 CF90      		pop r12
 3831 11d4 BF90      		pop r11
 3832 11d6 AF90      		pop r10
 3833 11d8 0895      		ret
 3834               	.LFE71:
 3836               	.global	__vector_16
 3838               	__vector_16:
 3839               	.LFB29:
 3840               	.LM523:
 3841 11da 1F92      		push __zero_reg__
 3842 11dc 0F92      		push r0
 3843 11de 0FB6      		in r0,__SREG__
 3844 11e0 0F92      		push r0
 3845 11e2 1124      		clr __zero_reg__
 3846 11e4 2F93      		push r18
 3847 11e6 3F93      		push r19
 3848 11e8 4F93      		push r20
 3849 11ea 5F93      		push r21
 3850 11ec 6F93      		push r22
 3851 11ee 7F93      		push r23
 3852 11f0 8F93      		push r24
 3853 11f2 9F93      		push r25
 3854 11f4 AF93      		push r26
 3855 11f6 BF93      		push r27
 3856 11f8 EF93      		push r30
 3857 11fa FF93      		push r31
 3858               	/* prologue: Signal */
 3859               	/* frame size = 0 */
 3860               	.LM524:
 3861               	/* #APP */
 3862               	 ;  168 "iv.c" 1
 3863 11fc 7894      		sei
 3864               	 ;  0 "" 2
 3865               	/* #NOAPP */
 3866               	.LBB386:
 3867               	.LBB387:
 3868               	.LM525:
 3869               	/* #APP */
 3870               	 ;  162 "iv.c" 1
 3871 11fe A895      		wdr
 3872               	 ;  0 "" 2
 3873               	/* #NOAPP */
 3874               	.LBE387:
 3875               	.LBE386:
 3876               	.LM526:
 3877 1200 8091 0000 		lds r24,muxdiv
 3878 1204 9091 0000 		lds r25,(muxdiv)+1
 3879 1208 0196      		adiw r24,1
 3880 120a 9093 0000 		sts (muxdiv)+1,r25
 3881 120e 8093 0000 		sts muxdiv,r24
 3882               	.LM527:
 3883 1212 8197      		sbiw r24,33
 3884 1214 00F4      		brsh .+2
 3885 1216 00C0      		rjmp .L319
 3886               	.LM528:
 3887 1218 1092 0000 		sts (muxdiv)+1,__zero_reg__
 3888 121c 1092 0000 		sts muxdiv,__zero_reg__
 3889               	.LM529:
 3890 1220 8091 0000 		lds r24,milliseconds
 3891 1224 9091 0000 		lds r25,(milliseconds)+1
 3892 1228 0196      		adiw r24,1
 3893 122a 9093 0000 		sts (milliseconds)+1,r25
 3894 122e 8093 0000 		sts milliseconds,r24
 3895               	.LM530:
 3896 1232 8091 0000 		lds r24,currdigit
 3897 1236 8930      		cpi r24,lo8(9)
 3898 1238 00F0      		brlo .L317
 3899               	.LM531:
 3900 123a 1092 0000 		sts currdigit,__zero_reg__
 3901               	.L317:
 3902               	.LM532:
 3903 123e 8091 0000 		lds r24,currdigit
 3904 1242 E82F      		mov r30,r24
 3905 1244 F0E0      		ldi r31,lo8(0)
 3906 1246 E050      		subi r30,lo8(-(display))
 3907 1248 F040      		sbci r31,hi8(-(display))
 3908 124a 6081      		ld r22,Z
 3909 124c 0E94 0000 		call setdisplay
 3910               	.LM533:
 3911 1250 8091 0000 		lds r24,currdigit
 3912 1254 8F5F      		subi r24,lo8(-(1))
 3913 1256 8093 0000 		sts currdigit,r24
 3914               	.LM534:
 3915 125a 8091 0000 		lds r24,alarming
 3916 125e 8823      		tst r24
 3917 1260 01F4      		brne .+2
 3918 1262 00C0      		rjmp .L319
 3919 1264 8091 0000 		lds r24,snoozetimer
 3920 1268 9091 0000 		lds r25,(snoozetimer)+1
 3921 126c 892B      		or r24,r25
 3922 126e 01F0      		breq .+2
 3923 1270 00C0      		rjmp .L319
 3924               	.LM535:
 3925 1272 8091 0000 		lds r24,alarmdiv
 3926 1276 9091 0000 		lds r25,(alarmdiv)+1
 3927 127a 0196      		adiw r24,1
 3928 127c 9093 0000 		sts (alarmdiv)+1,r25
 3929 1280 8093 0000 		sts alarmdiv,r24
 3930               	.LM536:
 3931 1284 8536      		cpi r24,101
 3932 1286 9105      		cpc r25,__zero_reg__
 3933 1288 00F0      		brlo .L319
 3934               	.LM537:
 3935 128a 1092 0000 		sts (alarmdiv)+1,__zero_reg__
 3936 128e 1092 0000 		sts alarmdiv,__zero_reg__
 3937               	.LM538:
 3938 1292 8AEF      		ldi r24,lo8(250)
 3939 1294 90E0      		ldi r25,hi8(250)
 3940 1296 9093 8700 		sts (134)+1,r25
 3941 129a 8093 8600 		sts 134,r24
 3942               	.LM539:
 3943 129e 8091 8600 		lds r24,134
 3944 12a2 9091 8700 		lds r25,(134)+1
 3945 12a6 9695      		lsr r25
 3946 12a8 8795      		ror r24
 3947 12aa 9093 8B00 		sts (138)+1,r25
 3948 12ae 8093 8A00 		sts 138,r24
 3949 12b2 8091 8A00 		lds r24,138
 3950 12b6 9091 8B00 		lds r25,(138)+1
 3951 12ba 9093 8900 		sts (136)+1,r25
 3952 12be 8093 8800 		sts 136,r24
 3953               	.LM540:
 3954 12c2 8091 0000 		lds r24,alarming
 3955 12c6 807F      		andi r24,lo8(-16)
 3956 12c8 01F0      		breq .L318
 3957               	.LM541:
 3958 12ca 8091 0000 		lds r24,alarming
 3959 12ce 8F70      		andi r24,lo8(15)
 3960 12d0 8093 0000 		sts alarming,r24
 3961               	.LM542:
 3962 12d4 8091 8100 		lds r24,129
 3963 12d8 8D7F      		andi r24,lo8(-3)
 3964 12da 00C0      		rjmp .L320
 3965               	.L318:
 3966               	.LM543:
 3967 12dc 8091 0000 		lds r24,alarming
 3968 12e0 806F      		ori r24,lo8(-16)
 3969 12e2 8093 0000 		sts alarming,r24
 3970               	.LM544:
 3971 12e6 8091 8100 		lds r24,129
 3972 12ea 8260      		ori r24,lo8(2)
 3973               	.L320:
 3974 12ec 8093 8100 		sts 129,r24
 3975               	.L319:
 3976               	/* epilogue start */
 3977               	.LM545:
 3978 12f0 FF91      		pop r31
 3979 12f2 EF91      		pop r30
 3980 12f4 BF91      		pop r27
 3981 12f6 AF91      		pop r26
 3982 12f8 9F91      		pop r25
 3983 12fa 8F91      		pop r24
 3984 12fc 7F91      		pop r23
 3985 12fe 6F91      		pop r22
 3986 1300 5F91      		pop r21
 3987 1302 4F91      		pop r20
 3988 1304 3F91      		pop r19
 3989 1306 2F91      		pop r18
 3990 1308 0F90      		pop r0
 3991 130a 0FBE      		out __SREG__,r0
 3992 130c 0F90      		pop r0
 3993 130e 1F90      		pop __zero_reg__
 3994 1310 1895      		reti
 3995               	.LFE29:
 3997               	.global	fix_time
 3999               	fix_time:
 4000               	.LFB74:
 4001               	.LM546:
 4002               	/* prologue: function */
 4003               	/* frame size = 0 */
 4004               	.LM547:
 4005 1312 8091 0000 		lds r24,time_s
 4006 1316 8C33      		cpi r24,lo8(60)
 4007 1318 04F0      		brlt .L322
 4008               	.LM548:
 4009 131a 8091 0000 		lds r24,time_s
 4010 131e 8C53      		subi r24,lo8(-(-60))
 4011 1320 8093 0000 		sts time_s,r24
 4012               	.LM549:
 4013 1324 8091 0000 		lds r24,time_m
 4014 1328 8F5F      		subi r24,lo8(-(1))
 4015 132a 8093 0000 		sts time_m,r24
 4016               	.L322:
 4017               	.LM550:
 4018 132e 8091 0000 		lds r24,time_s
 4019 1332 87FF      		sbrs r24,7
 4020 1334 00C0      		rjmp .L323
 4021               	.LM551:
 4022 1336 8091 0000 		lds r24,time_s
 4023 133a 845C      		subi r24,lo8(-(60))
 4024 133c 8093 0000 		sts time_s,r24
 4025               	.LM552:
 4026 1340 8091 0000 		lds r24,time_m
 4027 1344 8150      		subi r24,lo8(-(-1))
 4028 1346 8093 0000 		sts time_m,r24
 4029               	.L323:
 4030               	.LM553:
 4031 134a 8091 0000 		lds r24,time_m
 4032 134e 8C33      		cpi r24,lo8(60)
 4033 1350 04F0      		brlt .L324
 4034               	.LM554:
 4035 1352 8091 0000 		lds r24,time_m
 4036 1356 8C53      		subi r24,lo8(-(-60))
 4037 1358 8093 0000 		sts time_m,r24
 4038               	.LM555:
 4039 135c 8091 0000 		lds r24,time_h
 4040 1360 8F5F      		subi r24,lo8(-(1))
 4041 1362 8093 0000 		sts time_h,r24
 4042               	.LM556:
 4043 1366 2091 0000 		lds r18,time_h
 4044               	.L325:
 4045               	.LBB388:
 4046               	.LBB389:
 4047               	.LM557:
 4048 136a F999      		sbic 63-32,1
 4049 136c 00C0      		rjmp .L325
 4050               	.LM558:
 4051 136e 1FBA      		out 63-32,__zero_reg__
 4052               	.LM559:
 4053 1370 84E0      		ldi r24,lo8(4)
 4054 1372 90E0      		ldi r25,hi8(4)
 4055 1374 92BD      		out (65)+1-32,r25
 4056 1376 81BD      		out 65-32,r24
 4057               	.LM560:
 4058 1378 20BD      		out 64-32,r18
 4059               	.LM561:
 4060               	/* #APP */
 4061               	 ;  324 "/Applications/Arduino.app/Contents/Resources/Java/hardware/tools/avr/bin/../lib/gcc/avr/4.
 4062               		/* START EEPROM WRITE CRITICAL SECTION */
 4063 137a 0FB6      		in	r0, 63		
 4064 137c F894      		cli				
 4065 137e FA9A      		sbi	31, 2	
 4066 1380 F99A      		sbi	31, 1	
 4067 1382 0FBE      		out	63, r0		
 4068               		/* END EEPROM WRITE CRITICAL SECTION */
 4069               	 ;  0 "" 2
 4070               	/* #NOAPP */
 4071               	.LBE389:
 4072               	.LBE388:
 4073               	.LM562:
 4074 1384 2091 0000 		lds r18,time_m
 4075               	.L326:
 4076               	.LBB390:
 4077               	.LBB391:
 4078               	.LM563:
 4079 1388 F999      		sbic 63-32,1
 4080 138a 00C0      		rjmp .L326
 4081               	.LM564:
 4082 138c 1FBA      		out 63-32,__zero_reg__
 4083               	.LM565:
 4084 138e 85E0      		ldi r24,lo8(5)
 4085 1390 90E0      		ldi r25,hi8(5)
 4086 1392 92BD      		out (65)+1-32,r25
 4087 1394 81BD      		out 65-32,r24
 4088               	.LM566:
 4089 1396 20BD      		out 64-32,r18
 4090               	.LM567:
 4091               	/* #APP */
 4092               	 ;  324 "/Applications/Arduino.app/Contents/Resources/Java/hardware/tools/avr/bin/../lib/gcc/avr/4.
 4093               		/* START EEPROM WRITE CRITICAL SECTION */
 4094 1398 0FB6      		in	r0, 63		
 4095 139a F894      		cli				
 4096 139c FA9A      		sbi	31, 2	
 4097 139e F99A      		sbi	31, 1	
 4098 13a0 0FBE      		out	63, r0		
 4099               		/* END EEPROM WRITE CRITICAL SECTION */
 4100               	 ;  0 "" 2
 4101               	/* #NOAPP */
 4102               	.L324:
 4103               	.LBE391:
 4104               	.LBE390:
 4105               	.LM568:
 4106 13a2 8091 0000 		lds r24,time_m
 4107 13a6 87FF      		sbrs r24,7
 4108 13a8 00C0      		rjmp .L327
 4109               	.LM569:
 4110 13aa 8091 0000 		lds r24,time_m
 4111 13ae 845C      		subi r24,lo8(-(60))
 4112 13b0 8093 0000 		sts time_m,r24
 4113               	.LM570:
 4114 13b4 8091 0000 		lds r24,time_h
 4115 13b8 8150      		subi r24,lo8(-(-1))
 4116 13ba 8093 0000 		sts time_h,r24
 4117               	.LM571:
 4118 13be 2091 0000 		lds r18,time_h
 4119               	.L328:
 4120               	.LBB392:
 4121               	.LBB393:
 4122               	.LM572:
 4123 13c2 F999      		sbic 63-32,1
 4124 13c4 00C0      		rjmp .L328
 4125               	.LM573:
 4126 13c6 1FBA      		out 63-32,__zero_reg__
 4127               	.LM574:
 4128 13c8 84E0      		ldi r24,lo8(4)
 4129 13ca 90E0      		ldi r25,hi8(4)
 4130 13cc 92BD      		out (65)+1-32,r25
 4131 13ce 81BD      		out 65-32,r24
 4132               	.LM575:
 4133 13d0 20BD      		out 64-32,r18
 4134               	.LM576:
 4135               	/* #APP */
 4136               	 ;  324 "/Applications/Arduino.app/Contents/Resources/Java/hardware/tools/avr/bin/../lib/gcc/avr/4.
 4137               		/* START EEPROM WRITE CRITICAL SECTION */
 4138 13d2 0FB6      		in	r0, 63		
 4139 13d4 F894      		cli				
 4140 13d6 FA9A      		sbi	31, 2	
 4141 13d8 F99A      		sbi	31, 1	
 4142 13da 0FBE      		out	63, r0		
 4143               		/* END EEPROM WRITE CRITICAL SECTION */
 4144               	 ;  0 "" 2
 4145               	/* #NOAPP */
 4146               	.LBE393:
 4147               	.LBE392:
 4148               	.LM577:
 4149 13dc 2091 0000 		lds r18,time_m
 4150               	.L329:
 4151               	.LBB394:
 4152               	.LBB395:
 4153               	.LM578:
 4154 13e0 F999      		sbic 63-32,1
 4155 13e2 00C0      		rjmp .L329
 4156               	.LM579:
 4157 13e4 1FBA      		out 63-32,__zero_reg__
 4158               	.LM580:
 4159 13e6 85E0      		ldi r24,lo8(5)
 4160 13e8 90E0      		ldi r25,hi8(5)
 4161 13ea 92BD      		out (65)+1-32,r25
 4162 13ec 81BD      		out 65-32,r24
 4163               	.LM581:
 4164 13ee 20BD      		out 64-32,r18
 4165               	.LM582:
 4166               	/* #APP */
 4167               	 ;  324 "/Applications/Arduino.app/Contents/Resources/Java/hardware/tools/avr/bin/../lib/gcc/avr/4.
 4168               		/* START EEPROM WRITE CRITICAL SECTION */
 4169 13f0 0FB6      		in	r0, 63		
 4170 13f2 F894      		cli				
 4171 13f4 FA9A      		sbi	31, 2	
 4172 13f6 F99A      		sbi	31, 1	
 4173 13f8 0FBE      		out	63, r0		
 4174               		/* END EEPROM WRITE CRITICAL SECTION */
 4175               	 ;  0 "" 2
 4176               	/* #NOAPP */
 4177               	.L327:
 4178               	.LBE395:
 4179               	.LBE394:
 4180               	.LM583:
 4181 13fa 8091 0000 		lds r24,time_h
 4182 13fe 8831      		cpi r24,lo8(24)
 4183 1400 04F0      		brlt .L330
 4184               	.LM584:
 4185 1402 8091 0000 		lds r24,time_h
 4186 1406 8851      		subi r24,lo8(-(-24))
 4187 1408 8093 0000 		sts time_h,r24
 4188               	.LM585:
 4189 140c 8091 0000 		lds r24,date_d
 4190 1410 8F5F      		subi r24,lo8(-(1))
 4191 1412 8093 0000 		sts date_d,r24
 4192               	.LM586:
 4193 1416 2091 0000 		lds r18,date_d
 4194               	.L331:
 4195               	.LBB396:
 4196               	.LBB397:
 4197               	.LM587:
 4198 141a F999      		sbic 63-32,1
 4199 141c 00C0      		rjmp .L331
 4200               	.LM588:
 4201 141e 1FBA      		out 63-32,__zero_reg__
 4202               	.LM589:
 4203 1420 83E0      		ldi r24,lo8(3)
 4204 1422 90E0      		ldi r25,hi8(3)
 4205 1424 92BD      		out (65)+1-32,r25
 4206 1426 81BD      		out 65-32,r24
 4207               	.LM590:
 4208 1428 20BD      		out 64-32,r18
 4209               	.LM591:
 4210               	/* #APP */
 4211               	 ;  324 "/Applications/Arduino.app/Contents/Resources/Java/hardware/tools/avr/bin/../lib/gcc/avr/4.
 4212               		/* START EEPROM WRITE CRITICAL SECTION */
 4213 142a 0FB6      		in	r0, 63		
 4214 142c F894      		cli				
 4215 142e FA9A      		sbi	31, 2	
 4216 1430 F99A      		sbi	31, 1	
 4217 1432 0FBE      		out	63, r0		
 4218               		/* END EEPROM WRITE CRITICAL SECTION */
 4219               	 ;  0 "" 2
 4220               	/* #NOAPP */
 4221               	.L330:
 4222               	.LBE397:
 4223               	.LBE396:
 4224               	.LM592:
 4225 1434 8091 0000 		lds r24,time_h
 4226 1438 87FF      		sbrs r24,7
 4227 143a 00C0      		rjmp .L332
 4228               	.LM593:
 4229 143c 8091 0000 		lds r24,time_h
 4230 1440 885E      		subi r24,lo8(-(24))
 4231 1442 8093 0000 		sts time_h,r24
 4232               	.LM594:
 4233 1446 8091 0000 		lds r24,date_d
 4234 144a 8150      		subi r24,lo8(-(-1))
 4235 144c 8093 0000 		sts date_d,r24
 4236               	.LM595:
 4237 1450 2091 0000 		lds r18,date_d
 4238               	.L333:
 4239               	.LBB398:
 4240               	.LBB399:
 4241               	.LM596:
 4242 1454 F999      		sbic 63-32,1
 4243 1456 00C0      		rjmp .L333
 4244               	.LM597:
 4245 1458 1FBA      		out 63-32,__zero_reg__
 4246               	.LM598:
 4247 145a 83E0      		ldi r24,lo8(3)
 4248 145c 90E0      		ldi r25,hi8(3)
 4249 145e 92BD      		out (65)+1-32,r25
 4250 1460 81BD      		out 65-32,r24
 4251               	.LM599:
 4252 1462 20BD      		out 64-32,r18
 4253               	.LM600:
 4254               	/* #APP */
 4255               	 ;  324 "/Applications/Arduino.app/Contents/Resources/Java/hardware/tools/avr/bin/../lib/gcc/avr/4.
 4256               		/* START EEPROM WRITE CRITICAL SECTION */
 4257 1464 0FB6      		in	r0, 63		
 4258 1466 F894      		cli				
 4259 1468 FA9A      		sbi	31, 2	
 4260 146a F99A      		sbi	31, 1	
 4261 146c 0FBE      		out	63, r0		
 4262               		/* END EEPROM WRITE CRITICAL SECTION */
 4263               	 ;  0 "" 2
 4264               	/* #NOAPP */
 4265               	.L332:
 4266               	.LBE399:
 4267               	.LBE398:
 4268               	.LM601:
 4269 146e 8091 0000 		lds r24,date_d
 4270 1472 8032      		cpi r24,lo8(32)
 4271 1474 04F4      		brge .L334
 4272 1476 8091 0000 		lds r24,date_d
 4273 147a 8F31      		cpi r24,lo8(31)
 4274 147c 01F4      		brne .L335
 4275 147e 8091 0000 		lds r24,date_m
 4276 1482 8430      		cpi r24,lo8(4)
 4277 1484 01F0      		breq .L334
 4278 1486 8091 0000 		lds r24,date_m
 4279 148a 8630      		cpi r24,lo8(6)
 4280 148c 01F0      		breq .L334
 4281 148e 8091 0000 		lds r24,date_m
 4282 1492 8930      		cpi r24,lo8(9)
 4283 1494 01F0      		breq .L334
 4284 1496 8091 0000 		lds r24,date_m
 4285 149a 8B30      		cpi r24,lo8(11)
 4286 149c 01F0      		breq .L334
 4287               	.L335:
 4288 149e 8091 0000 		lds r24,date_d
 4289 14a2 8E31      		cpi r24,lo8(30)
 4290 14a4 01F4      		brne .L336
 4291 14a6 8091 0000 		lds r24,date_m
 4292 14aa 8230      		cpi r24,lo8(2)
 4293 14ac 01F0      		breq .L334
 4294               	.L336:
 4295 14ae 8091 0000 		lds r24,date_d
 4296 14b2 8D31      		cpi r24,lo8(29)
 4297 14b4 01F4      		brne .L337
 4298 14b6 8091 0000 		lds r24,date_m
 4299 14ba 8230      		cpi r24,lo8(2)
 4300 14bc 01F4      		brne .L337
 4301 14be 8091 0000 		lds r24,date_y
 4302 14c2 9927      		clr r25
 4303 14c4 87FD      		sbrc r24,7
 4304 14c6 9095      		com r25
 4305 14c8 8053      		subi r24,lo8(-(2000))
 4306 14ca 984F      		sbci r25,hi8(-(2000))
 4307 14cc 0E94 0000 		call leapyear
 4308 14d0 8823      		tst r24
 4309 14d2 01F4      		brne .L337
 4310               	.L334:
 4311               	.LM602:
 4312 14d4 81E0      		ldi r24,lo8(1)
 4313 14d6 8093 0000 		sts date_d,r24
 4314               	.LM603:
 4315 14da 8091 0000 		lds r24,date_m
 4316 14de 8F5F      		subi r24,lo8(-(1))
 4317 14e0 8093 0000 		sts date_m,r24
 4318               	.LM604:
 4319 14e4 2091 0000 		lds r18,date_m
 4320               	.L338:
 4321               	.LBB400:
 4322               	.LBB401:
 4323               	.LM605:
 4324 14e8 F999      		sbic 63-32,1
 4325 14ea 00C0      		rjmp .L338
 4326               	.LM606:
 4327 14ec 1FBA      		out 63-32,__zero_reg__
 4328               	.LM607:
 4329 14ee 82E0      		ldi r24,lo8(2)
 4330 14f0 90E0      		ldi r25,hi8(2)
 4331 14f2 92BD      		out (65)+1-32,r25
 4332 14f4 81BD      		out 65-32,r24
 4333               	.LM608:
 4334 14f6 20BD      		out 64-32,r18
 4335               	.LM609:
 4336               	/* #APP */
 4337               	 ;  324 "/Applications/Arduino.app/Contents/Resources/Java/hardware/tools/avr/bin/../lib/gcc/avr/4.
 4338               		/* START EEPROM WRITE CRITICAL SECTION */
 4339 14f8 0FB6      		in	r0, 63		
 4340 14fa F894      		cli				
 4341 14fc FA9A      		sbi	31, 2	
 4342 14fe F99A      		sbi	31, 1	
 4343 1500 0FBE      		out	63, r0		
 4344               		/* END EEPROM WRITE CRITICAL SECTION */
 4345               	 ;  0 "" 2
 4346               	/* #NOAPP */
 4347               	.L337:
 4348               	.LBE401:
 4349               	.LBE400:
 4350               	.LM610:
 4351 1502 8091 0000 		lds r24,date_d
 4352 1506 1816      		cp __zero_reg__,r24
 4353 1508 04F4      		brge .+2
 4354 150a 00C0      		rjmp .L339
 4355               	.LM611:
 4356 150c 8091 0000 		lds r24,date_m
 4357 1510 8630      		cpi r24,lo8(6)
 4358 1512 01F0      		breq .L341
 4359 1514 8730      		cpi r24,lo8(7)
 4360 1516 04F4      		brge .L344
 4361 1518 8330      		cpi r24,lo8(3)
 4362 151a 01F0      		breq .L342
 4363 151c 8430      		cpi r24,lo8(4)
 4364 151e 04F4      		brge .L345
 4365 1520 8130      		cpi r24,lo8(1)
 4366 1522 04F4      		brge .L341
 4367 1524 00C0      		rjmp .L340
 4368               	.L345:
 4369 1526 8430      		cpi r24,lo8(4)
 4370 1528 01F0      		breq .L341
 4371 152a 8530      		cpi r24,lo8(5)
 4372 152c 01F4      		brne .L340
 4373 152e 00C0      		rjmp .L343
 4374               	.L344:
 4375 1530 8A30      		cpi r24,lo8(10)
 4376 1532 04F4      		brge .L346
 4377 1534 8830      		cpi r24,lo8(8)
 4378 1536 04F4      		brge .L341
 4379 1538 00C0      		rjmp .L343
 4380               	.L346:
 4381 153a 8B30      		cpi r24,lo8(11)
 4382 153c 01F0      		breq .L341
 4383 153e 8B30      		cpi r24,lo8(11)
 4384 1540 04F0      		brlt .L343
 4385 1542 8C30      		cpi r24,lo8(12)
 4386 1544 01F4      		brne .L340
 4387 1546 00C0      		rjmp .L343
 4388               	.L341:
 4389               	.LM612:
 4390 1548 8091 0000 		lds r24,date_d
 4391 154c 815E      		subi r24,lo8(-(31))
 4392 154e 00C0      		rjmp .L369
 4393               	.L343:
 4394               	.LM613:
 4395 1550 8091 0000 		lds r24,date_d
 4396 1554 825E      		subi r24,lo8(-(30))
 4397               	.L369:
 4398 1556 8093 0000 		sts date_d,r24
 4399               	.LM614:
 4400 155a 8091 0000 		lds r24,date_m
 4401 155e 8150      		subi r24,lo8(-(-1))
 4402 1560 8093 0000 		sts date_m,r24
 4403 1564 00C0      		rjmp .L347
 4404               	.L342:
 4405               	.LM615:
 4406 1566 8091 0000 		lds r24,date_y
 4407 156a 9927      		clr r25
 4408 156c 87FD      		sbrc r24,7
 4409 156e 9095      		com r25
 4410 1570 8053      		subi r24,lo8(-(2000))
 4411 1572 984F      		sbci r25,hi8(-(2000))
 4412 1574 0E94 0000 		call leapyear
 4413 1578 8823      		tst r24
 4414 157a 01F0      		breq .L348
 4415               	.LM616:
 4416 157c 8091 0000 		lds r24,date_d
 4417 1580 835E      		subi r24,lo8(-(29))
 4418 1582 00C0      		rjmp .L369
 4419               	.L348:
 4420               	.LM617:
 4421 1584 8091 0000 		lds r24,date_d
 4422 1588 845E      		subi r24,lo8(-(28))
 4423 158a 00C0      		rjmp .L369
 4424               	.L340:
 4425               	.LM618:
 4426 158c 81E0      		ldi r24,lo8(1)
 4427 158e 8093 0000 		sts date_d,r24
 4428               	.L347:
 4429               	.LM619:
 4430 1592 2091 0000 		lds r18,date_m
 4431               	.L350:
 4432               	.LBB402:
 4433               	.LBB403:
 4434               	.LM620:
 4435 1596 F999      		sbic 63-32,1
 4436 1598 00C0      		rjmp .L350
 4437               	.LM621:
 4438 159a 1FBA      		out 63-32,__zero_reg__
 4439               	.LM622:
 4440 159c 82E0      		ldi r24,lo8(2)
 4441 159e 90E0      		ldi r25,hi8(2)
 4442 15a0 92BD      		out (65)+1-32,r25
 4443 15a2 81BD      		out 65-32,r24
 4444               	.LM623:
 4445 15a4 20BD      		out 64-32,r18
 4446               	.LM624:
 4447               	/* #APP */
 4448               	 ;  324 "/Applications/Arduino.app/Contents/Resources/Java/hardware/tools/avr/bin/../lib/gcc/avr/4.
 4449               		/* START EEPROM WRITE CRITICAL SECTION */
 4450 15a6 0FB6      		in	r0, 63		
 4451 15a8 F894      		cli				
 4452 15aa FA9A      		sbi	31, 2	
 4453 15ac F99A      		sbi	31, 1	
 4454 15ae 0FBE      		out	63, r0		
 4455               		/* END EEPROM WRITE CRITICAL SECTION */
 4456               	 ;  0 "" 2
 4457               	/* #NOAPP */
 4458               	.L339:
 4459               	.LBE403:
 4460               	.LBE402:
 4461               	.LM625:
 4462 15b0 8091 0000 		lds r24,date_m
 4463 15b4 8D30      		cpi r24,lo8(13)
 4464 15b6 04F0      		brlt .L351
 4465               	.LM626:
 4466 15b8 8091 0000 		lds r24,date_y
 4467 15bc 8F5F      		subi r24,lo8(-(1))
 4468 15be 8093 0000 		sts date_y,r24
 4469               	.LM627:
 4470 15c2 81E0      		ldi r24,lo8(1)
 4471 15c4 8093 0000 		sts date_m,r24
 4472               	.LM628:
 4473 15c8 2091 0000 		lds r18,date_y
 4474               	.L352:
 4475               	.LBB404:
 4476               	.LBB405:
 4477               	.LM629:
 4478 15cc F999      		sbic 63-32,1
 4479 15ce 00C0      		rjmp .L352
 4480               	.LM630:
 4481 15d0 1FBA      		out 63-32,__zero_reg__
 4482               	.LM631:
 4483 15d2 81E0      		ldi r24,lo8(1)
 4484 15d4 90E0      		ldi r25,hi8(1)
 4485 15d6 92BD      		out (65)+1-32,r25
 4486 15d8 81BD      		out 65-32,r24
 4487               	.LM632:
 4488 15da 20BD      		out 64-32,r18
 4489               	.LM633:
 4490               	/* #APP */
 4491               	 ;  324 "/Applications/Arduino.app/Contents/Resources/Java/hardware/tools/avr/bin/../lib/gcc/avr/4.
 4492               		/* START EEPROM WRITE CRITICAL SECTION */
 4493 15dc 0FB6      		in	r0, 63		
 4494 15de F894      		cli				
 4495 15e0 FA9A      		sbi	31, 2	
 4496 15e2 F99A      		sbi	31, 1	
 4497 15e4 0FBE      		out	63, r0		
 4498               		/* END EEPROM WRITE CRITICAL SECTION */
 4499               	 ;  0 "" 2
 4500               	/* #NOAPP */
 4501               	.L351:
 4502               	.LBE405:
 4503               	.LBE404:
 4504               	.LM634:
 4505 15e6 8091 0000 		lds r24,date_m
 4506 15ea 1816      		cp __zero_reg__,r24
 4507 15ec 04F0      		brlt .L356
 4508               	.LM635:
 4509 15ee 8091 0000 		lds r24,date_m
 4510 15f2 845F      		subi r24,lo8(-(12))
 4511 15f4 8093 0000 		sts date_m,r24
 4512               	.LM636:
 4513 15f8 8091 0000 		lds r24,date_y
 4514 15fc 8150      		subi r24,lo8(-(-1))
 4515 15fe 8093 0000 		sts date_y,r24
 4516               	.LM637:
 4517 1602 2091 0000 		lds r18,date_m
 4518               	.L354:
 4519               	.LBB406:
 4520               	.LBB407:
 4521               	.LM638:
 4522 1606 F999      		sbic 63-32,1
 4523 1608 00C0      		rjmp .L354
 4524               	.LM639:
 4525 160a 1FBA      		out 63-32,__zero_reg__
 4526               	.LM640:
 4527 160c 82E0      		ldi r24,lo8(2)
 4528 160e 90E0      		ldi r25,hi8(2)
 4529 1610 92BD      		out (65)+1-32,r25
 4530 1612 81BD      		out 65-32,r24
 4531               	.LM641:
 4532 1614 20BD      		out 64-32,r18
 4533               	.LM642:
 4534               	/* #APP */
 4535               	 ;  324 "/Applications/Arduino.app/Contents/Resources/Java/hardware/tools/avr/bin/../lib/gcc/avr/4.
 4536               		/* START EEPROM WRITE CRITICAL SECTION */
 4537 1616 0FB6      		in	r0, 63		
 4538 1618 F894      		cli				
 4539 161a FA9A      		sbi	31, 2	
 4540 161c F99A      		sbi	31, 1	
 4541 161e 0FBE      		out	63, r0		
 4542               		/* END EEPROM WRITE CRITICAL SECTION */
 4543               	 ;  0 "" 2
 4544               	/* #NOAPP */
 4545               	.LBE407:
 4546               	.LBE406:
 4547               	.LM643:
 4548 1620 2091 0000 		lds r18,date_y
 4549               	.L355:
 4550               	.LBB408:
 4551               	.LBB409:
 4552               	.LM644:
 4553 1624 F999      		sbic 63-32,1
 4554 1626 00C0      		rjmp .L355
 4555               	.LM645:
 4556 1628 1FBA      		out 63-32,__zero_reg__
 4557               	.LM646:
 4558 162a 81E0      		ldi r24,lo8(1)
 4559 162c 90E0      		ldi r25,hi8(1)
 4560 162e 92BD      		out (65)+1-32,r25
 4561 1630 81BD      		out 65-32,r24
 4562               	.LM647:
 4563 1632 20BD      		out 64-32,r18
 4564               	.LM648:
 4565               	/* #APP */
 4566               	 ;  324 "/Applications/Arduino.app/Contents/Resources/Java/hardware/tools/avr/bin/../lib/gcc/avr/4.
 4567               		/* START EEPROM WRITE CRITICAL SECTION */
 4568 1634 0FB6      		in	r0, 63		
 4569 1636 F894      		cli				
 4570 1638 FA9A      		sbi	31, 2	
 4571 163a F99A      		sbi	31, 1	
 4572 163c 0FBE      		out	63, r0		
 4573               		/* END EEPROM WRITE CRITICAL SECTION */
 4574               	 ;  0 "" 2
 4575               	/* #NOAPP */
 4576               	.L356:
 4577 163e 0895      		ret
 4578               	.LBE409:
 4579               	.LBE408:
 4580               	.LFE74:
 4582               	.global	spi_xfer
 4584               	spi_xfer:
 4585               	.LFB75:
 4586               	.LM649:
 4587               	.LVL257:
 4588               	/* prologue: function */
 4589               	/* frame size = 0 */
 4590               	.LM650:
 4591 1640 8EBD      		out 78-32,r24
 4592               	.L373:
 4593               	.LM651:
 4594 1642 0DB4      		in __tmp_reg__,77-32
 4595 1644 07FE      		sbrs __tmp_reg__,7
 4596 1646 00C0      		rjmp .L373
 4597               	/* epilogue start */
 4598               	.LM652:
 4599 1648 0895      		ret
 4600               	.LFE75:
 4602               	.global	check_alarm
 4604               	check_alarm:
 4605               	.LFB73:
 4606               	.LM653:
 4607               	.LVL258:
 4608               	/* prologue: function */
 4609               	/* frame size = 0 */
 4610 164a 982F      		mov r25,r24
 4611               	.LM654:
 4612 164c 8091 0000 		lds r24,alarm_on
 4613               	.LVL259:
 4614 1650 8823      		tst r24
 4615 1652 01F0      		breq .L378
 4616 1654 8091 0000 		lds r24,alarm_h
 4617 1658 8917      		cp r24,r25
 4618 165a 01F4      		brne .L378
 4619 165c 8091 0000 		lds r24,alarm_m
 4620 1660 8617      		cp r24,r22
 4621 1662 01F4      		brne .L378
 4622 1664 4423      		tst r20
 4623 1666 01F4      		brne .L378
 4624               	.LM655:
 4625 1668 80E0      		ldi r24,lo8(__c.3534)
 4626 166a 90E0      		ldi r25,hi8(__c.3534)
 4627 166c 61E0      		ldi r22,lo8(1)
 4628               	.LVL260:
 4629 166e 0E94 0000 		call ROM_putstring
 4630               	.LVL261:
 4631               	.LM656:
 4632 1672 81E0      		ldi r24,lo8(1)
 4633 1674 8093 0000 		sts alarming,r24
 4634               	.LM657:
 4635 1678 1092 0000 		sts (snoozetimer)+1,__zero_reg__
 4636 167c 1092 0000 		sts snoozetimer,__zero_reg__
 4637               	.LVL262:
 4638               	.L378:
 4639 1680 0895      		ret
 4640               	.LFE73:
 4642               	.global	__vector_9
 4644               	__vector_9:
 4645               	.LFB32:
 4646               	.LM658:
 4647 1682 1F92      		push __zero_reg__
 4648 1684 0F92      		push r0
 4649 1686 0FB6      		in r0,__SREG__
 4650 1688 0F92      		push r0
 4651 168a 1124      		clr __zero_reg__
 4652 168c 2F93      		push r18
 4653 168e 3F93      		push r19
 4654 1690 4F93      		push r20
 4655 1692 5F93      		push r21
 4656 1694 6F93      		push r22
 4657 1696 7F93      		push r23
 4658 1698 8F93      		push r24
 4659 169a 9F93      		push r25
 4660 169c AF93      		push r26
 4661 169e BF93      		push r27
 4662 16a0 EF93      		push r30
 4663 16a2 FF93      		push r31
 4664               	/* prologue: Signal */
 4665               	/* frame size = 0 */
 4666               	.LM659:
 4667 16a4 80E8      		ldi r24,lo8(-128)
 4668 16a6 8093 6100 		sts 97,r24
 4669               	.LM660:
 4670 16aa 1092 6100 		sts 97,__zero_reg__
 4671               	.LM661:
 4672 16ae 8091 0000 		lds r24,time_s
 4673 16b2 8F5F      		subi r24,lo8(-(1))
 4674 16b4 8093 0000 		sts time_s,r24
 4675               	.LM662:
 4676 16b8 0E94 0000 		call fix_time
 4677               	.LM663:
 4678 16bc 8091 0000 		lds r24,sleepmode
 4679 16c0 8823      		tst r24
 4680 16c2 01F0      		breq .+2
 4681 16c4 00C0      		rjmp .L387
 4682               	.LM664:
 4683 16c6 8091 0000 		lds r24,displaymode
 4684 16ca 8823      		tst r24
 4685 16cc 01F4      		brne .L381
 4686               	.LM665:
 4687 16ce 8091 0000 		lds r24,time_h
 4688 16d2 6091 0000 		lds r22,time_m
 4689 16d6 4091 0000 		lds r20,time_s
 4690 16da 0E94 0000 		call display_time
 4691               	.LM666:
 4692 16de 8091 0000 		lds r24,alarm_on
 4693 16e2 8823      		tst r24
 4694 16e4 01F0      		breq .L382
 4695               	.LM667:
 4696 16e6 8091 0000 		lds r24,display
 4697 16ea 8260      		ori r24,lo8(2)
 4698 16ec 00C0      		rjmp .L388
 4699               	.L382:
 4700               	.LM668:
 4701 16ee 8091 0000 		lds r24,display
 4702 16f2 8D7F      		andi r24,lo8(-3)
 4703               	.L388:
 4704 16f4 8093 0000 		sts display,r24
 4705               	.L381:
 4706               	.LBB410:
 4707               	.LBB411:
 4708               	.LM669:
 4709 16f8 8091 0000 		lds r24,brightness_level
 4710 16fc 8823      		tst r24
 4711 16fe 01F4      		brne .L383
 4712               	.LM670:
 4713 1700 8091 7A00 		lds r24,122
 4714 1704 8064      		ori r24,lo8(64)
 4715 1706 8093 7A00 		sts 122,r24
 4716               	.L383:
 4717               	.LBE411:
 4718               	.LBE410:
 4719               	.LM671:
 4720 170a 8091 0000 		lds r24,time_h
 4721 170e 6091 0000 		lds r22,time_m
 4722 1712 4091 0000 		lds r20,time_s
 4723 1716 0E94 0000 		call check_alarm
 4724               	.LM672:
 4725 171a 8091 0000 		lds r24,timeoutcounter
 4726 171e 8823      		tst r24
 4727 1720 01F0      		breq .L384
 4728               	.LM673:
 4729 1722 8091 0000 		lds r24,timeoutcounter
 4730 1726 8150      		subi r24,lo8(-(-1))
 4731 1728 8093 0000 		sts timeoutcounter,r24
 4732               	.L384:
 4733               	.LM674:
 4734 172c 8091 0000 		lds r24,buttonholdcounter
 4735 1730 8823      		tst r24
 4736 1732 01F0      		breq .L385
 4737               	.LM675:
 4738 1734 8091 0000 		lds r24,buttonholdcounter
 4739 1738 8150      		subi r24,lo8(-(-1))
 4740 173a 8093 0000 		sts buttonholdcounter,r24
 4741               	.L385:
 4742               	.LM676:
 4743 173e 8091 0000 		lds r24,snoozetimer
 4744 1742 9091 0000 		lds r25,(snoozetimer)+1
 4745 1746 0097      		sbiw r24,0
 4746 1748 01F0      		breq .L387
 4747               	.LM677:
 4748 174a 0197      		sbiw r24,1
 4749 174c 9093 0000 		sts (snoozetimer)+1,r25
 4750 1750 8093 0000 		sts snoozetimer,r24
 4751               	.LM678:
 4752 1754 80FF      		sbrs r24,0
 4753 1756 00C0      		rjmp .L386
 4754               	.LM679:
 4755 1758 8091 0000 		lds r24,display
 4756 175c 8260      		ori r24,lo8(2)
 4757 175e 00C0      		rjmp .L389
 4758               	.L386:
 4759               	.LM680:
 4760 1760 8091 0000 		lds r24,display
 4761 1764 8D7F      		andi r24,lo8(-3)
 4762               	.L389:
 4763 1766 8093 0000 		sts display,r24
 4764               	.L387:
 4765               	/* epilogue start */
 4766               	.LM681:
 4767 176a FF91      		pop r31
 4768 176c EF91      		pop r30
 4769 176e BF91      		pop r27
 4770 1770 AF91      		pop r26
 4771 1772 9F91      		pop r25
 4772 1774 8F91      		pop r24
 4773 1776 7F91      		pop r23
 4774 1778 6F91      		pop r22
 4775 177a 5F91      		pop r21
 4776 177c 4F91      		pop r20
 4777 177e 3F91      		pop r19
 4778 1780 2F91      		pop r18
 4779 1782 0F90      		pop r0
 4780 1784 0FBE      		out __SREG__,r0
 4781 1786 0F90      		pop r0
 4782 1788 1F90      		pop __zero_reg__
 4783 178a 1895      		reti
 4784               	.LFE32:
 4786               		.data
 4787               	.LC24:
 4788 00a2 616C 6172 		.string	"alarm on"
 4788      6D20 6F6E 
 4788      00
 4789               		.text
 4790               	.global	setalarmstate
 4792               	setalarmstate:
 4793               	.LFB52:
 4794               	.LM682:
 4795               	/* prologue: function */
 4796               	/* frame size = 0 */
 4797               	.LM683:
 4798 178c 4A9B      		sbis 41-32,2
 4799 178e 00C0      		rjmp .L391
 4800               	.LM684:
 4801 1790 8091 0000 		lds r24,alarm_on
 4802 1794 8823      		tst r24
 4803 1796 01F0      		breq .+2
 4804 1798 00C0      		rjmp .L395
 4805               	.LM685:
 4806 179a 81E0      		ldi r24,lo8(1)
 4807 179c 8093 0000 		sts alarm_on,r24
 4808               	.LM686:
 4809 17a0 1092 0000 		sts (snoozetimer)+1,__zero_reg__
 4810 17a4 1092 0000 		sts snoozetimer,__zero_reg__
 4811               	.LM687:
 4812 17a8 80E0      		ldi r24,lo8(.LC24)
 4813 17aa 90E0      		ldi r25,hi8(.LC24)
 4814 17ac 0E94 0000 		call display_str
 4815               	.LM688:
 4816 17b0 89E0      		ldi r24,lo8(9)
 4817 17b2 8093 0000 		sts displaymode,r24
 4818               	.LBB412:
 4819               	.LBB413:
 4820               	.LM689:
 4821               	/* #APP */
 4822               	 ;  140 "iv.c" 1
 4823 17b6 7894      		sei
 4824               	 ;  0 "" 2
 4825               	.LM690:
 4826               	/* #NOAPP */
 4827 17b8 1092 0000 		sts (milliseconds)+1,__zero_reg__
 4828 17bc 1092 0000 		sts milliseconds,__zero_reg__
 4829               	.L393:
 4830               	.LM691:
 4831 17c0 8091 0000 		lds r24,milliseconds
 4832 17c4 9091 0000 		lds r25,(milliseconds)+1
 4833 17c8 885E      		subi r24,lo8(1000)
 4834 17ca 9340      		sbci r25,hi8(1000)
 4835 17cc 00F0      		brlo .L393
 4836               	.LBE413:
 4837               	.LBE412:
 4838               	.LM692:
 4839 17ce 8091 0000 		lds r24,alarm_h
 4840 17d2 6091 0000 		lds r22,alarm_m
 4841 17d6 0E94 0000 		call display_alarm
 4842               	.LBB414:
 4843               	.LBB415:
 4844               	.LM693:
 4845               	/* #APP */
 4846               	 ;  140 "iv.c" 1
 4847 17da 7894      		sei
 4848               	 ;  0 "" 2
 4849               	.LM694:
 4850               	/* #NOAPP */
 4851 17dc 1092 0000 		sts (milliseconds)+1,__zero_reg__
 4852 17e0 1092 0000 		sts milliseconds,__zero_reg__
 4853               	.L394:
 4854               	.LM695:
 4855 17e4 8091 0000 		lds r24,milliseconds
 4856 17e8 9091 0000 		lds r25,(milliseconds)+1
 4857 17ec 885E      		subi r24,lo8(1000)
 4858 17ee 9340      		sbci r25,hi8(1000)
 4859 17f0 00F0      		brlo .L394
 4860               	.LBE415:
 4861               	.LBE414:
 4862               	.LM696:
 4863 17f2 1092 0000 		sts displaymode,__zero_reg__
 4864 17f6 0895      		ret
 4865               	.L391:
 4866               	.LM697:
 4867 17f8 8091 0000 		lds r24,alarm_on
 4868 17fc 8823      		tst r24
 4869 17fe 01F0      		breq .L395
 4870               	.LM698:
 4871 1800 1092 0000 		sts alarm_on,__zero_reg__
 4872               	.LM699:
 4873 1804 1092 0000 		sts (snoozetimer)+1,__zero_reg__
 4874 1808 1092 0000 		sts snoozetimer,__zero_reg__
 4875               	.LM700:
 4876 180c 8091 0000 		lds r24,alarming
 4877 1810 8823      		tst r24
 4878 1812 01F0      		breq .L395
 4879               	.LM701:
 4880 1814 80E0      		ldi r24,lo8(__c.2897)
 4881 1816 90E0      		ldi r25,hi8(__c.2897)
 4882 1818 61E0      		ldi r22,lo8(1)
 4883 181a 0E94 0000 		call ROM_putstring
 4884               	.LM702:
 4885 181e 1092 0000 		sts alarming,__zero_reg__
 4886               	.LM703:
 4887 1822 8091 8100 		lds r24,129
 4888 1826 8D7F      		andi r24,lo8(-3)
 4889 1828 8093 8100 		sts 129,r24
 4890               	.LM704:
 4891 182c 85B1      		in r24,37-32
 4892 182e 8660      		ori r24,lo8(6)
 4893 1830 85B9      		out 37-32,r24
 4894               	.L395:
 4895 1832 0895      		ret
 4896               	.LFE52:
 4898               	.global	wakeup
 4900               	wakeup:
 4901               	.LFB36:
 4902               	.LM705:
 4903               	/* prologue: function */
 4904               	/* frame size = 0 */
 4905               	.LM706:
 4906 1834 8091 0000 		lds r24,sleepmode
 4907 1838 8823      		tst r24
 4908 183a 01F4      		brne .+2
 4909 183c 00C0      		rjmp .L402
 4910               	.LM707:
 4911 183e 80E8      		ldi r24,lo8(-128)
 4912 1840 8093 6100 		sts 97,r24
 4913               	.LM708:
 4914 1844 1092 6100 		sts 97,__zero_reg__
 4915               	.LM709:
 4916 1848 80E0      		ldi r24,lo8(__c.2301)
 4917 184a 90E0      		ldi r25,hi8(__c.2301)
 4918 184c 61E0      		ldi r22,lo8(1)
 4919 184e 0E94 0000 		call ROM_putstring
 4920               	.LM710:
 4921 1852 1092 0000 		sts sleepmode,__zero_reg__
 4922               	.LBB416:
 4923               	.LBB417:
 4924               	.LBB418:
 4925               	.LBB419:
 4926               	.LM711:
 4927 1856 80E4      		ldi r24,lo8(-25536)
 4928 1858 9CE9      		ldi r25,hi8(-25536)
 4929               	.LVL263:
 4930               	/* #APP */
 4931               	 ;  105 "/Applications/Arduino.app/Contents/Resources/Java/hardware/tools/avr/bin/../lib/gcc/avr/4.
 4932 185a 0197      		1: sbiw r24,1
 4933 185c 01F4      		brne 1b
 4934               	 ;  0 "" 2
 4935               	/* #NOAPP */
 4936               	.LBE419:
 4937               	.LBE418:
 4938               	.LBE417:
 4939               	.LBE416:
 4940               	.LM712:
 4941 185e 00B6      		in __tmp_reg__,80-32
 4942 1860 05FC      		sbrc __tmp_reg__,5
 4943 1862 00C0      		rjmp .L402
 4944               	.LBB420:
 4945               	.LBB421:
 4946               	.LM713:
 4947 1864 8EE2      		ldi r24,lo8(46)
 4948               	.LVL264:
 4949 1866 84B9      		out 36-32,r24
 4950               	.LM714:
 4951 1868 88E4      		ldi r24,lo8(72)
 4952 186a 8AB9      		out 42-32,r24
 4953               	.LM715:
 4954 186c 89E0      		ldi r24,lo8(9)
 4955 186e 87B9      		out 39-32,r24
 4956               	.LM716:
 4957 1870 84E3      		ldi r24,lo8(52)
 4958 1872 8BB9      		out 43-32,r24
 4959               	.LM717:
 4960 1874 91E0      		ldi r25,lo8(1)
 4961 1876 95B9      		out 37-32,r25
 4962               	.LM718:
 4963 1878 85E0      		ldi r24,lo8(5)
 4964 187a 8093 6800 		sts 104,r24
 4965               	.LM719:
 4966 187e 9093 6B00 		sts 107,r25
 4967               	.LM720:
 4968 1882 80E3      		ldi r24,lo8(48)
 4969 1884 8093 6D00 		sts 109,r24
 4970               	.LBE421:
 4971               	.LBE420:
 4972               	.LM721:
 4973 1888 0E94 0000 		call dimmer_init
 4974               	.L400:
 4975               	.LBB422:
 4976               	.LBB423:
 4977               	.LM722:
 4978 188c F999      		sbic 63-32,1
 4979 188e 00C0      		rjmp .L400
 4980               	.LM723:
 4981 1890 89E0      		ldi r24,lo8(9)
 4982 1892 90E0      		ldi r25,hi8(9)
 4983 1894 92BD      		out (65)+1-32,r25
 4984 1896 81BD      		out 65-32,r24
 4985               	.LM724:
 4986               	/* #APP */
 4987               	 ;  208 "/Applications/Arduino.app/Contents/Resources/Java/hardware/tools/avr/bin/../lib/gcc/avr/4.
 4988               		/* START EEPROM READ CRITICAL SECTION */ 
 4989 1898 F89A      		sbi 31, 0 
 4990 189a 80B5      		in r24, 32 
 4991               		/* END EEPROM READ CRITICAL SECTION */ 
 4992               		
 4993               	 ;  0 "" 2
 4994               	.LVL265:
 4995               	/* #NOAPP */
 4996               	.LBE423:
 4997               	.LBE422:
 4998               	.LM725:
 4999 189c 8093 0000 		sts brightness_level,r24
 5000               	.LM726:
 5001 18a0 8091 0000 		lds r24,brightness_level
 5002               	.LVL266:
 5003 18a4 0E94 0000 		call boost_init
 5004               	.LBB424:
 5005               	.LBB425:
 5006               	.LM727:
 5007 18a8 81E5      		ldi r24,lo8(81)
 5008 18aa 8CBD      		out 76-32,r24
 5009               	.LBE425:
 5010               	.LBE424:
 5011               	.LM728:
 5012 18ac 5B98      		cbi 43-32,3
 5013               	.LM729:
 5014 18ae 4398      		cbi 40-32,3
 5015               	.L401:
 5016               	.LBB426:
 5017               	.LBB427:
 5018               	.LM730:
 5019 18b0 F999      		sbic 63-32,1
 5020 18b2 00C0      		rjmp .L401
 5021               	.LM731:
 5022 18b4 8AE0      		ldi r24,lo8(10)
 5023 18b6 90E0      		ldi r25,hi8(10)
 5024 18b8 92BD      		out (65)+1-32,r25
 5025 18ba 81BD      		out 65-32,r24
 5026               	.LM732:
 5027               	/* #APP */
 5028               	 ;  208 "/Applications/Arduino.app/Contents/Resources/Java/hardware/tools/avr/bin/../lib/gcc/avr/4.
 5029               		/* START EEPROM READ CRITICAL SECTION */ 
 5030 18bc F89A      		sbi 31, 0 
 5031 18be 80B5      		in r24, 32 
 5032               		/* END EEPROM READ CRITICAL SECTION */ 
 5033               		
 5034               	 ;  0 "" 2
 5035               	.LVL267:
 5036               	/* #NOAPP */
 5037               	.LBE427:
 5038               	.LBE426:
 5039               	.LM733:
 5040 18c0 8093 0000 		sts volume,r24
 5041               	.LM734:
 5042 18c4 0E94 0000 		call speaker_init
 5043               	.LVL268:
 5044               	.LBB428:
 5045               	.LBB429:
 5046               	.LM735:
 5047               	/* #APP */
 5048               	 ;  162 "iv.c" 1
 5049 18c8 A895      		wdr
 5050               	 ;  0 "" 2
 5051               	/* #NOAPP */
 5052               	.LBE429:
 5053               	.LBE428:
 5054               	.LM736:
 5055 18ca 0E94 0000 		call setalarmstate
 5056               	.LM737:
 5057 18ce 80E7      		ldi r24,lo8(880)
 5058 18d0 93E0      		ldi r25,hi8(880)
 5059 18d2 61E0      		ldi r22,lo8(1)
 5060 18d4 0E94 0000 		call beep
 5061               	.LM738:
 5062 18d8 80EE      		ldi r24,lo8(1760)
 5063 18da 96E0      		ldi r25,hi8(1760)
 5064 18dc 61E0      		ldi r22,lo8(1)
 5065 18de 0E94 0000 		call beep
 5066               	.LM739:
 5067 18e2 80EC      		ldi r24,lo8(3520)
 5068 18e4 9DE0      		ldi r25,hi8(3520)
 5069 18e6 61E0      		ldi r22,lo8(1)
 5070 18e8 0E94 0000 		call beep
 5071               	.LBB430:
 5072               	.LBB431:
 5073               	.LM740:
 5074               	/* #APP */
 5075               	 ;  162 "iv.c" 1
 5076 18ec A895      		wdr
 5077               	 ;  0 "" 2
 5078               	.LVL269:
 5079               	/* #NOAPP */
 5080               	.L402:
 5081 18ee 0895      		ret
 5082               	.LBE431:
 5083               	.LBE430:
 5084               	.LFE36:
 5086               	.global	__vector_23
 5088               	__vector_23:
 5089               	.LFB34:
 5090               	.LM741:
 5091 18f0 1F92      		push __zero_reg__
 5092 18f2 0F92      		push r0
 5093 18f4 0FB6      		in r0,__SREG__
 5094 18f6 0F92      		push r0
 5095 18f8 1124      		clr __zero_reg__
 5096 18fa 2F93      		push r18
 5097 18fc 3F93      		push r19
 5098 18fe 4F93      		push r20
 5099 1900 5F93      		push r21
 5100 1902 6F93      		push r22
 5101 1904 7F93      		push r23
 5102 1906 8F93      		push r24
 5103 1908 9F93      		push r25
 5104 190a AF93      		push r26
 5105 190c BF93      		push r27
 5106 190e EF93      		push r30
 5107 1910 FF93      		push r31
 5108               	/* prologue: Signal */
 5109               	/* frame size = 0 */
 5110               	.LM742:
 5111 1912 00B6      		in __tmp_reg__,80-32
 5112 1914 05FE      		sbrs __tmp_reg__,5
 5113 1916 00C0      		rjmp .L406
 5114               	.LM743:
 5115 1918 8091 0000 		lds r24,sleepmode
 5116 191c 8823      		tst r24
 5117 191e 01F0      		breq .+2
 5118 1920 00C0      		rjmp .L414
 5119               	.LM744:
 5120 1922 5B9A      		sbi 43-32,3
 5121               	.LM745:
 5122 1924 85B1      		in r24,37-32
 5123 1926 877D      		andi r24,lo8(-41)
 5124 1928 85B9      		out 37-32,r24
 5125               	.LM746:
 5126 192a 5E98      		cbi 43-32,6
 5127               	.LM747:
 5128 192c 8CB5      		in r24,76-32
 5129 192e 8F7B      		andi r24,lo8(-65)
 5130 1930 8CBD      		out 76-32,r24
 5131               	.LM748:
 5132 1932 8091 0000 		lds r24,restored
 5133 1936 8823      		tst r24
 5134 1938 01F0      		breq .L408
 5135               	.LM749:
 5136 193a 2091 0000 		lds r18,time_m
 5137               	.L409:
 5138               	.LBB432:
 5139               	.LBB433:
 5140               	.LM750:
 5141 193e F999      		sbic 63-32,1
 5142 1940 00C0      		rjmp .L409
 5143               	.LM751:
 5144 1942 1FBA      		out 63-32,__zero_reg__
 5145               	.LM752:
 5146 1944 85E0      		ldi r24,lo8(5)
 5147 1946 90E0      		ldi r25,hi8(5)
 5148 1948 92BD      		out (65)+1-32,r25
 5149 194a 81BD      		out 65-32,r24
 5150               	.LM753:
 5151 194c 20BD      		out 64-32,r18
 5152               	.LM754:
 5153               	/* #APP */
 5154               	 ;  324 "/Applications/Arduino.app/Contents/Resources/Java/hardware/tools/avr/bin/../lib/gcc/avr/4.
 5155               		/* START EEPROM WRITE CRITICAL SECTION */
 5156 194e 0FB6      		in	r0, 63		
 5157 1950 F894      		cli				
 5158 1952 FA9A      		sbi	31, 2	
 5159 1954 F99A      		sbi	31, 1	
 5160 1956 0FBE      		out	63, r0		
 5161               		/* END EEPROM WRITE CRITICAL SECTION */
 5162               	 ;  0 "" 2
 5163               	/* #NOAPP */
 5164               	.LBE433:
 5165               	.LBE432:
 5166               	.LM755:
 5167 1958 2091 0000 		lds r18,time_s
 5168               	.L410:
 5169               	.LBB434:
 5170               	.LBB435:
 5171               	.LM756:
 5172 195c F999      		sbic 63-32,1
 5173 195e 00C0      		rjmp .L410
 5174               	.LM757:
 5175 1960 1FBA      		out 63-32,__zero_reg__
 5176               	.LM758:
 5177 1962 86E0      		ldi r24,lo8(6)
 5178 1964 90E0      		ldi r25,hi8(6)
 5179 1966 92BD      		out (65)+1-32,r25
 5180 1968 81BD      		out 65-32,r24
 5181               	.LM759:
 5182 196a 20BD      		out 64-32,r18
 5183               	.LM760:
 5184               	/* #APP */
 5185               	 ;  324 "/Applications/Arduino.app/Contents/Resources/Java/hardware/tools/avr/bin/../lib/gcc/avr/4.
 5186               		/* START EEPROM WRITE CRITICAL SECTION */
 5187 196c 0FB6      		in	r0, 63		
 5188 196e F894      		cli				
 5189 1970 FA9A      		sbi	31, 2	
 5190 1972 F99A      		sbi	31, 1	
 5191 1974 0FBE      		out	63, r0		
 5192               		/* END EEPROM WRITE CRITICAL SECTION */
 5193               	 ;  0 "" 2
 5194               	/* #NOAPP */
 5195               	.L408:
 5196               	.LBE435:
 5197               	.LBE434:
 5198               	.LM761:
 5199 1976 80E0      		ldi r24,lo8(__c.2217)
 5200 1978 90E0      		ldi r25,hi8(__c.2217)
 5201 197a 61E0      		ldi r22,lo8(1)
 5202 197c 0E94 0000 		call ROM_putstring
 5203               	.LM762:
 5204 1980 15BC      		out 69-32,__zero_reg__
 5205               	.LM763:
 5206 1982 1092 0000 		sts volume,__zero_reg__
 5207               	.LM764:
 5208 1986 1092 6800 		sts 104,__zero_reg__
 5209               	.LM765:
 5210 198a 4598      		cbi 40-32,5
 5211 198c 00C0      		rjmp .L419
 5212               	.L406:
 5213               	.LM766:
 5214 198e 8091 0000 		lds r24,sleepmode
 5215 1992 8823      		tst r24
 5216 1994 01F0      		breq .L414
 5217               	.LM767:
 5218 1996 8091 0000 		lds r24,restored
 5219 199a 8823      		tst r24
 5220 199c 01F0      		breq .L411
 5221               	.LM768:
 5222 199e 2091 0000 		lds r18,time_m
 5223               	.L412:
 5224               	.LBB436:
 5225               	.LBB437:
 5226               	.LM769:
 5227 19a2 F999      		sbic 63-32,1
 5228 19a4 00C0      		rjmp .L412
 5229               	.LM770:
 5230 19a6 1FBA      		out 63-32,__zero_reg__
 5231               	.LM771:
 5232 19a8 85E0      		ldi r24,lo8(5)
 5233 19aa 90E0      		ldi r25,hi8(5)
 5234 19ac 92BD      		out (65)+1-32,r25
 5235 19ae 81BD      		out 65-32,r24
 5236               	.LM772:
 5237 19b0 20BD      		out 64-32,r18
 5238               	.LM773:
 5239               	/* #APP */
 5240               	 ;  324 "/Applications/Arduino.app/Contents/Resources/Java/hardware/tools/avr/bin/../lib/gcc/avr/4.
 5241               		/* START EEPROM WRITE CRITICAL SECTION */
 5242 19b2 0FB6      		in	r0, 63		
 5243 19b4 F894      		cli				
 5244 19b6 FA9A      		sbi	31, 2	
 5245 19b8 F99A      		sbi	31, 1	
 5246 19ba 0FBE      		out	63, r0		
 5247               		/* END EEPROM WRITE CRITICAL SECTION */
 5248               	 ;  0 "" 2
 5249               	/* #NOAPP */
 5250               	.LBE437:
 5251               	.LBE436:
 5252               	.LM774:
 5253 19bc 2091 0000 		lds r18,time_s
 5254               	.L413:
 5255               	.LBB438:
 5256               	.LBB439:
 5257               	.LM775:
 5258 19c0 F999      		sbic 63-32,1
 5259 19c2 00C0      		rjmp .L413
 5260               	.LM776:
 5261 19c4 1FBA      		out 63-32,__zero_reg__
 5262               	.LM777:
 5263 19c6 86E0      		ldi r24,lo8(6)
 5264 19c8 90E0      		ldi r25,hi8(6)
 5265 19ca 92BD      		out (65)+1-32,r25
 5266 19cc 81BD      		out 65-32,r24
 5267               	.LM778:
 5268 19ce 20BD      		out 64-32,r18
 5269               	.LM779:
 5270               	/* #APP */
 5271               	 ;  324 "/Applications/Arduino.app/Contents/Resources/Java/hardware/tools/avr/bin/../lib/gcc/avr/4.
 5272               		/* START EEPROM WRITE CRITICAL SECTION */
 5273 19d0 0FB6      		in	r0, 63		
 5274 19d2 F894      		cli				
 5275 19d4 FA9A      		sbi	31, 2	
 5276 19d6 F99A      		sbi	31, 1	
 5277 19d8 0FBE      		out	63, r0		
 5278               		/* END EEPROM WRITE CRITICAL SECTION */
 5279               	 ;  0 "" 2
 5280               	/* #NOAPP */
 5281               	.L411:
 5282               	.LBE439:
 5283               	.LBE438:
 5284               	.LM780:
 5285 19da 80E0      		ldi r24,lo8(__c.2219)
 5286 19dc 90E0      		ldi r25,hi8(__c.2219)
 5287 19de 61E0      		ldi r22,lo8(1)
 5288 19e0 0E94 0000 		call ROM_putstring
 5289               	.L419:
 5290               	.LM781:
 5291 19e4 E091 0000 		lds r30,app_start
 5292 19e8 F091 0000 		lds r31,(app_start)+1
 5293 19ec 0995      		icall
 5294               	.L414:
 5295               	/* epilogue start */
 5296               	.LM782:
 5297 19ee FF91      		pop r31
 5298 19f0 EF91      		pop r30
 5299 19f2 BF91      		pop r27
 5300 19f4 AF91      		pop r26
 5301 19f6 9F91      		pop r25
 5302 19f8 8F91      		pop r24
 5303 19fa 7F91      		pop r23
 5304 19fc 6F91      		pop r22
 5305 19fe 5F91      		pop r21
 5306 1a00 4F91      		pop r20
 5307 1a02 3F91      		pop r19
 5308 1a04 2F91      		pop r18
 5309 1a06 0F90      		pop r0
 5310 1a08 0FBE      		out __SREG__,r0
 5311 1a0a 0F90      		pop r0
 5312 1a0c 1F90      		pop __zero_reg__
 5313 1a0e 1895      		reti
 5314               	.LFE34:
 5316               		.data
 5317               	.LC25:
 5318 00ab 736E 6F6F 		.string	"snoozing"
 5318      7A69 6E67 
 5318      00
 5319               		.text
 5320               	.global	setsnooze
 5322               	setsnooze:
 5323               	.LFB27:
 5324               	.LM783:
 5325               	/* prologue: function */
 5326               	/* frame size = 0 */
 5327               	.LM784:
 5328 1a10 88E5      		ldi r24,lo8(600)
 5329 1a12 92E0      		ldi r25,hi8(600)
 5330 1a14 9093 0000 		sts (snoozetimer)+1,r25
 5331 1a18 8093 0000 		sts snoozetimer,r24
 5332               	.LM785:
 5333 1a1c 80E0      		ldi r24,lo8(__c.2037)
 5334 1a1e 90E0      		ldi r25,hi8(__c.2037)
 5335 1a20 61E0      		ldi r22,lo8(1)
 5336 1a22 0E94 0000 		call ROM_putstring
 5337               	.LM786:
 5338 1a26 80E0      		ldi r24,lo8(.LC25)
 5339 1a28 90E0      		ldi r25,hi8(.LC25)
 5340 1a2a 0E94 0000 		call display_str
 5341               	.LM787:
 5342 1a2e 89E0      		ldi r24,lo8(9)
 5343 1a30 8093 0000 		sts displaymode,r24
 5344               	.LBB440:
 5345               	.LBB441:
 5346               	.LM788:
 5347               	/* #APP */
 5348               	 ;  140 "iv.c" 1
 5349 1a34 7894      		sei
 5350               	 ;  0 "" 2
 5351               	.LM789:
 5352               	/* #NOAPP */
 5353 1a36 1092 0000 		sts (milliseconds)+1,__zero_reg__
 5354 1a3a 1092 0000 		sts milliseconds,__zero_reg__
 5355               	.L421:
 5356               	.LM790:
 5357 1a3e 8091 0000 		lds r24,milliseconds
 5358 1a42 9091 0000 		lds r25,(milliseconds)+1
 5359 1a46 885E      		subi r24,lo8(1000)
 5360 1a48 9340      		sbci r25,hi8(1000)
 5361 1a4a 00F0      		brlo .L421
 5362               	.LBE441:
 5363               	.LBE440:
 5364               	.LM791:
 5365 1a4c 1092 0000 		sts displaymode,__zero_reg__
 5366               	/* epilogue start */
 5367               	.LM792:
 5368 1a50 0895      		ret
 5369               	.LFE27:
 5371               	.global	__vector_3
 5373               	__vector_3:
 5374               	.LFB31:
 5375               	.LM793:
 5376 1a52 1F92      		push __zero_reg__
 5377 1a54 0F92      		push r0
 5378 1a56 0FB6      		in r0,__SREG__
 5379 1a58 0F92      		push r0
 5380 1a5a 1124      		clr __zero_reg__
 5381 1a5c 2F93      		push r18
 5382 1a5e 3F93      		push r19
 5383 1a60 4F93      		push r20
 5384 1a62 5F93      		push r21
 5385 1a64 6F93      		push r22
 5386 1a66 7F93      		push r23
 5387 1a68 8F93      		push r24
 5388 1a6a 9F93      		push r25
 5389 1a6c AF93      		push r26
 5390 1a6e BF93      		push r27
 5391 1a70 EF93      		push r30
 5392 1a72 FF93      		push r31
 5393               	/* prologue: Signal */
 5394               	/* frame size = 0 */
 5395               	.LM794:
 5396 1a74 1092 6B00 		sts 107,__zero_reg__
 5397               	.LM795:
 5398               	/* #APP */
 5399               	 ;  300 "iv.c" 1
 5400 1a78 7894      		sei
 5401               	 ;  0 "" 2
 5402               	.LM796:
 5403               	/* #NOAPP */
 5404 1a7a 1899      		sbic 35-32,0
 5405 1a7c 00C0      		rjmp .L425
 5406               	.LM797:
 5407 1a7e 8091 0000 		lds r24,last_buttonstate
 5408 1a82 81FD      		sbrc r24,1
 5409 1a84 00C0      		rjmp .L426
 5410               	.LBB442:
 5411               	.LBB443:
 5412               	.LM798:
 5413               	/* #APP */
 5414               	 ;  140 "iv.c" 1
 5415 1a86 7894      		sei
 5416               	 ;  0 "" 2
 5417               	.LM799:
 5418               	/* #NOAPP */
 5419 1a88 1092 0000 		sts (milliseconds)+1,__zero_reg__
 5420 1a8c 1092 0000 		sts milliseconds,__zero_reg__
 5421               	.L427:
 5422               	.LM800:
 5423 1a90 8091 0000 		lds r24,milliseconds
 5424 1a94 9091 0000 		lds r25,(milliseconds)+1
 5425 1a98 0A97      		sbiw r24,10
 5426 1a9a 00F0      		brlo .L427
 5427               	.LBE443:
 5428               	.LBE442:
 5429               	.LM801:
 5430 1a9c 1899      		sbic 35-32,0
 5431 1a9e 00C0      		rjmp .L426
 5432               	.L428:
 5433               	.LM802:
 5434 1aa0 0E94 0000 		call tick
 5435               	.LM803:
 5436 1aa4 8091 0000 		lds r24,alarming
 5437 1aa8 8823      		tst r24
 5438 1aaa 01F0      		breq .L430
 5439               	.LM804:
 5440 1aac 0E94 0000 		call setsnooze
 5441 1ab0 00C0      		rjmp .L426
 5442               	.L430:
 5443               	.LM805:
 5444 1ab2 8091 0000 		lds r24,last_buttonstate
 5445 1ab6 8260      		ori r24,lo8(2)
 5446 1ab8 8093 0000 		sts last_buttonstate,r24
 5447               	.LM806:
 5448 1abc 8091 0000 		lds r24,just_pressed
 5449 1ac0 8260      		ori r24,lo8(2)
 5450 1ac2 8093 0000 		sts just_pressed,r24
 5451               	.LM807:
 5452 1ac6 80E0      		ldi r24,lo8(__c.2140)
 5453 1ac8 90E0      		ldi r25,hi8(__c.2140)
 5454 1aca 61E0      		ldi r22,lo8(1)
 5455 1acc 0E94 0000 		call ROM_putstring
 5456 1ad0 00C0      		rjmp .L426
 5457               	.L425:
 5458               	.LM808:
 5459 1ad2 8091 0000 		lds r24,last_buttonstate
 5460 1ad6 8D7F      		andi r24,lo8(-3)
 5461 1ad8 8093 0000 		sts last_buttonstate,r24
 5462               	.L426:
 5463               	.LM809:
 5464 1adc 81E0      		ldi r24,lo8(1)
 5465 1ade 8093 6B00 		sts 107,r24
 5466               	/* epilogue start */
 5467               	.LM810:
 5468 1ae2 FF91      		pop r31
 5469 1ae4 EF91      		pop r30
 5470 1ae6 BF91      		pop r27
 5471 1ae8 AF91      		pop r26
 5472 1aea 9F91      		pop r25
 5473 1aec 8F91      		pop r24
 5474 1aee 7F91      		pop r23
 5475 1af0 6F91      		pop r22
 5476 1af2 5F91      		pop r21
 5477 1af4 4F91      		pop r20
 5478 1af6 3F91      		pop r19
 5479 1af8 2F91      		pop r18
 5480 1afa 0F90      		pop r0
 5481 1afc 0FBE      		out __SREG__,r0
 5482 1afe 0F90      		pop r0
 5483 1b00 1F90      		pop __zero_reg__
 5484 1b02 1895      		reti
 5485               	.LFE31:
 5487               	.global	__vector_5
 5489               	__vector_5:
 5490               	.LFB30:
 5491               	.LM811:
 5492 1b04 1F92      		push __zero_reg__
 5493 1b06 0F92      		push r0
 5494 1b08 0FB6      		in r0,__SREG__
 5495 1b0a 0F92      		push r0
 5496 1b0c 1124      		clr __zero_reg__
 5497 1b0e 2F93      		push r18
 5498 1b10 3F93      		push r19
 5499 1b12 4F93      		push r20
 5500 1b14 5F93      		push r21
 5501 1b16 6F93      		push r22
 5502 1b18 7F93      		push r23
 5503 1b1a 8F93      		push r24
 5504 1b1c 9F93      		push r25
 5505 1b1e AF93      		push r26
 5506 1b20 BF93      		push r27
 5507 1b22 EF93      		push r30
 5508 1b24 FF93      		push r31
 5509               	/* prologue: Signal */
 5510               	/* frame size = 0 */
 5511               	.LM812:
 5512 1b26 1092 6D00 		sts 109,__zero_reg__
 5513               	.LM813:
 5514               	/* #APP */
 5515               	 ;  231 "iv.c" 1
 5516 1b2a 7894      		sei
 5517               	 ;  0 "" 2
 5518               	/* #NOAPP */
 5519               	.LBB444:
 5520               	.LBB445:
 5521               	.LM814:
 5522               	/* #APP */
 5523               	 ;  162 "iv.c" 1
 5524 1b2c A895      		wdr
 5525               	 ;  0 "" 2
 5526               	/* #NOAPP */
 5527               	.LBE445:
 5528               	.LBE444:
 5529               	.LM815:
 5530 1b2e 4D99      		sbic 41-32,5
 5531 1b30 00C0      		rjmp .L434
 5532               	.LM816:
 5533 1b32 8091 0000 		lds r24,last_buttonstate
 5534 1b36 80FD      		sbrc r24,0
 5535 1b38 00C0      		rjmp .L435
 5536               	.LBB446:
 5537               	.LBB447:
 5538               	.LM817:
 5539               	/* #APP */
 5540               	 ;  140 "iv.c" 1
 5541 1b3a 7894      		sei
 5542               	 ;  0 "" 2
 5543               	.LM818:
 5544               	/* #NOAPP */
 5545 1b3c 1092 0000 		sts (milliseconds)+1,__zero_reg__
 5546 1b40 1092 0000 		sts milliseconds,__zero_reg__
 5547               	.L436:
 5548               	.LM819:
 5549 1b44 8091 0000 		lds r24,milliseconds
 5550 1b48 9091 0000 		lds r25,(milliseconds)+1
 5551 1b4c 0A97      		sbiw r24,10
 5552 1b4e 00F0      		brlo .L436
 5553               	.LBE447:
 5554               	.LBE446:
 5555               	.LM820:
 5556 1b50 4D99      		sbic 41-32,5
 5557 1b52 00C0      		rjmp .L441
 5558               	.L437:
 5559               	.LM821:
 5560 1b54 0E94 0000 		call tick
 5561               	.LM822:
 5562 1b58 8091 0000 		lds r24,alarming
 5563 1b5c 8823      		tst r24
 5564 1b5e 01F4      		brne .L451
 5565               	.L439:
 5566               	.LM823:
 5567 1b60 8091 0000 		lds r24,last_buttonstate
 5568 1b64 8160      		ori r24,lo8(1)
 5569 1b66 8093 0000 		sts last_buttonstate,r24
 5570               	.LM824:
 5571 1b6a 8091 0000 		lds r24,just_pressed
 5572 1b6e 8160      		ori r24,lo8(1)
 5573 1b70 8093 0000 		sts just_pressed,r24
 5574               	.LM825:
 5575 1b74 80E0      		ldi r24,lo8(__c.2086)
 5576 1b76 90E0      		ldi r25,hi8(__c.2086)
 5577 1b78 61E0      		ldi r22,lo8(1)
 5578 1b7a 0E94 0000 		call ROM_putstring
 5579 1b7e 00C0      		rjmp .L435
 5580               	.L434:
 5581               	.LM826:
 5582 1b80 8091 0000 		lds r24,last_buttonstate
 5583 1b84 8E7F      		andi r24,lo8(-2)
 5584 1b86 8093 0000 		sts last_buttonstate,r24
 5585               	.L435:
 5586               	.LM827:
 5587 1b8a 4C99      		sbic 41-32,4
 5588 1b8c 00C0      		rjmp .L440
 5589               	.LM828:
 5590 1b8e 8091 0000 		lds r24,last_buttonstate
 5591 1b92 82FD      		sbrc r24,2
 5592 1b94 00C0      		rjmp .L441
 5593               	.LBB448:
 5594               	.LBB449:
 5595               	.LM829:
 5596               	/* #APP */
 5597               	 ;  140 "iv.c" 1
 5598 1b96 7894      		sei
 5599               	 ;  0 "" 2
 5600               	.LM830:
 5601               	/* #NOAPP */
 5602 1b98 1092 0000 		sts (milliseconds)+1,__zero_reg__
 5603 1b9c 1092 0000 		sts milliseconds,__zero_reg__
 5604               	.L442:
 5605               	.LM831:
 5606 1ba0 8091 0000 		lds r24,milliseconds
 5607 1ba4 9091 0000 		lds r25,(milliseconds)+1
 5608 1ba8 0A97      		sbiw r24,10
 5609 1baa 00F0      		brlo .L442
 5610               	.LBE449:
 5611               	.LBE448:
 5612               	.LM832:
 5613 1bac 4C99      		sbic 41-32,4
 5614 1bae 00C0      		rjmp .L441
 5615               	.L443:
 5616               	.LM833:
 5617 1bb0 82E0      		ldi r24,lo8(2)
 5618 1bb2 8093 0000 		sts buttonholdcounter,r24
 5619 1bb6 00C0      		rjmp .L444
 5620               	.L446:
 5621               	.LM834:
 5622 1bb8 4C9B      		sbis 41-32,4
 5623 1bba 00C0      		rjmp .L444
 5624               	.LM835:
 5625 1bbc 0E94 0000 		call tick
 5626               	.LM836:
 5627 1bc0 8091 0000 		lds r24,last_buttonstate
 5628 1bc4 8B7F      		andi r24,lo8(-5)
 5629 1bc6 8093 0000 		sts last_buttonstate,r24
 5630               	.LM837:
 5631 1bca 8091 0000 		lds r24,alarming
 5632 1bce 8823      		tst r24
 5633 1bd0 01F0      		breq .L445
 5634               	.L451:
 5635               	.LM838:
 5636 1bd2 0E94 0000 		call setsnooze
 5637 1bd6 00C0      		rjmp .L441
 5638               	.L445:
 5639               	.LM839:
 5640 1bd8 80E0      		ldi r24,lo8(__c.2088)
 5641 1bda 90E0      		ldi r25,hi8(__c.2088)
 5642 1bdc 61E0      		ldi r22,lo8(1)
 5643 1bde 0E94 0000 		call ROM_putstring
 5644               	.LM840:
 5645 1be2 8091 0000 		lds r24,just_pressed
 5646 1be6 8460      		ori r24,lo8(4)
 5647 1be8 8093 0000 		sts just_pressed,r24
 5648 1bec 00C0      		rjmp .L441
 5649               	.L444:
 5650               	.LM841:
 5651 1bee 8091 0000 		lds r24,buttonholdcounter
 5652 1bf2 8823      		tst r24
 5653 1bf4 01F4      		brne .L446
 5654               	.LM842:
 5655 1bf6 8091 0000 		lds r24,last_buttonstate
 5656 1bfa 8460      		ori r24,lo8(4)
 5657 1bfc 8093 0000 		sts last_buttonstate,r24
 5658               	.LM843:
 5659 1c00 8091 0000 		lds r24,pressed
 5660 1c04 8460      		ori r24,lo8(4)
 5661 1c06 8093 0000 		sts pressed,r24
 5662 1c0a 00C0      		rjmp .L441
 5663               	.L440:
 5664               	.LM844:
 5665 1c0c 1092 0000 		sts pressed,__zero_reg__
 5666               	.LM845:
 5667 1c10 8091 0000 		lds r24,last_buttonstate
 5668 1c14 8B7F      		andi r24,lo8(-5)
 5669 1c16 8093 0000 		sts last_buttonstate,r24
 5670               	.L441:
 5671               	.LM846:
 5672 1c1a 80E3      		ldi r24,lo8(48)
 5673 1c1c 8093 6D00 		sts 109,r24
 5674               	/* epilogue start */
 5675               	.LM847:
 5676 1c20 FF91      		pop r31
 5677 1c22 EF91      		pop r30
 5678 1c24 BF91      		pop r27
 5679 1c26 AF91      		pop r26
 5680 1c28 9F91      		pop r25
 5681 1c2a 8F91      		pop r24
 5682 1c2c 7F91      		pop r23
 5683 1c2e 6F91      		pop r22
 5684 1c30 5F91      		pop r21
 5685 1c32 4F91      		pop r20
 5686 1c34 3F91      		pop r19
 5687 1c36 2F91      		pop r18
 5688 1c38 0F90      		pop r0
 5689 1c3a 0FBE      		out __SREG__,r0
 5690 1c3c 0F90      		pop r0
 5691 1c3e 1F90      		pop __zero_reg__
 5692 1c40 1895      		reti
 5693               	.LFE30:
 5695               		.data
 5696               	.LC26:
 5697 00b4 0A0D 5469 		.string	"\n\rTimezone offset hour:\t"
 5697      6D65 7A6F 
 5697      6E65 206F 
 5697      6666 7365 
 5697      7420 686F 
 5698               		.text
 5699               	.global	set_timezone
 5701               	set_timezone:
 5702               	.LFB44:
 5703               	.LM848:
 5704 1c42 CF92      		push r12
 5705 1c44 DF92      		push r13
 5706 1c46 EF92      		push r14
 5707 1c48 FF92      		push r15
 5708 1c4a 0F93      		push r16
 5709 1c4c 1F93      		push r17
 5710 1c4e CF93      		push r28
 5711 1c50 DF93      		push r29
 5712               	/* prologue: function */
 5713               	/* frame size = 0 */
 5714               	.LM849:
 5715 1c52 1091 0000 		lds r17,intTimeZoneHour
 5716               	.LVL270:
 5717               	.LM850:
 5718 1c56 0091 0000 		lds r16,intTimeZoneMin
 5719               	.LVL271:
 5720               	.LM851:
 5721 1c5a 8AE0      		ldi r24,lo8(10)
 5722 1c5c 8093 0000 		sts timeoutcounter,r24
 5723 1c60 FF24      		clr r15
 5724               	.LVL272:
 5725               	.LM852:
 5726 1c62 9AE0      		ldi r25,lo8(10)
 5727 1c64 E92E      		mov r14,r25
 5728               	.LBB450:
 5729               	.LBB451:
 5730               	.LM853:
 5731 1c66 8EE0      		ldi r24,lo8(14)
 5732 1c68 C82E      		mov r12,r24
 5733 1c6a D12C      		mov r13,__zero_reg__
 5734               	.LBE451:
 5735               	.LBE450:
 5736               	.LBB453:
 5737               	.LBB454:
 5738 1c6c CDE0      		ldi r28,lo8(13)
 5739 1c6e D0E0      		ldi r29,hi8(13)
 5740               	.L473:
 5741               	.LBE454:
 5742               	.LBE453:
 5743               	.LM854:
 5744 1c70 8091 0000 		lds r24,just_pressed
 5745 1c74 80FD      		sbrc r24,0
 5746 1c76 00C0      		rjmp .L467
 5747               	.LM855:
 5748 1c78 8091 0000 		lds r24,just_pressed
 5749 1c7c 8823      		tst r24
 5750 1c7e 01F4      		brne .L454
 5751 1c80 8091 0000 		lds r24,pressed
 5752 1c84 8823      		tst r24
 5753 1c86 01F0      		breq .L455
 5754               	.L454:
 5755               	.LM856:
 5756 1c88 E092 0000 		sts timeoutcounter,r14
 5757 1c8c 00C0      		rjmp .L456
 5758               	.L455:
 5759               	.LM857:
 5760 1c8e 8091 0000 		lds r24,timeoutcounter
 5761 1c92 8823      		tst r24
 5762 1c94 01F0      		breq .L459
 5763               	.L456:
 5764               	.LM858:
 5765 1c96 8091 0000 		lds r24,just_pressed
 5766 1c9a 81FF      		sbrs r24,1
 5767 1c9c 00C0      		rjmp .L457
 5768               	.LM859:
 5769 1c9e 1092 0000 		sts just_pressed,__zero_reg__
 5770               	.LM860:
 5771 1ca2 FF20      		tst r15
 5772 1ca4 01F4      		brne .L458
 5773               	.LM861:
 5774 1ca6 812F      		mov r24,r17
 5775 1ca8 602F      		mov r22,r16
 5776 1caa 0E94 0000 		call display_timezone
 5777               	.LM862:
 5778 1cae 8091 0000 		lds r24,display+1
 5779 1cb2 8160      		ori r24,lo8(1)
 5780 1cb4 8093 0000 		sts display+1,r24
 5781               	.LM863:
 5782 1cb8 8091 0000 		lds r24,display+2
 5783 1cbc 8160      		ori r24,lo8(1)
 5784 1cbe 8093 0000 		sts display+2,r24
 5785 1cc2 FF24      		clr r15
 5786 1cc4 F394      		inc r15
 5787 1cc6 00C0      		rjmp .L457
 5788               	.L458:
 5789               	.LM864:
 5790 1cc8 81E0      		ldi r24,lo8(1)
 5791 1cca F816      		cp r15,r24
 5792 1ccc 01F4      		brne .L459
 5793               	.LM865:
 5794 1cce 812F      		mov r24,r17
 5795 1cd0 602F      		mov r22,r16
 5796 1cd2 0E94 0000 		call display_timezone
 5797               	.LM866:
 5798 1cd6 8091 0000 		lds r24,display+4
 5799 1cda 8160      		ori r24,lo8(1)
 5800 1cdc 8093 0000 		sts display+4,r24
 5801               	.LM867:
 5802 1ce0 8091 0000 		lds r24,display+5
 5803 1ce4 8160      		ori r24,lo8(1)
 5804 1ce6 8093 0000 		sts display+5,r24
 5805 1cea B2E0      		ldi r27,lo8(2)
 5806 1cec FB2E      		mov r15,r27
 5807 1cee 00C0      		rjmp .L457
 5808               	.L459:
 5809               	.LM868:
 5810 1cf0 1092 0000 		sts displaymode,__zero_reg__
 5811 1cf4 00C0      		rjmp .L467
 5812               	.L457:
 5813               	.LM869:
 5814 1cf6 8091 0000 		lds r24,just_pressed
 5815 1cfa 82FD      		sbrc r24,2
 5816 1cfc 00C0      		rjmp .L460
 5817 1cfe 8091 0000 		lds r24,pressed
 5818 1d02 82FF      		sbrs r24,2
 5819 1d04 00C0      		rjmp .L473
 5820               	.L460:
 5821               	.LM870:
 5822 1d06 1092 0000 		sts just_pressed,__zero_reg__
 5823               	.LM871:
 5824 1d0a 81E0      		ldi r24,lo8(1)
 5825 1d0c F816      		cp r15,r24
 5826 1d0e 01F4      		brne .L462
 5827               	.LM872:
 5828 1d10 812F      		mov r24,r17
 5829 1d12 9927      		clr r25
 5830 1d14 87FD      		sbrc r24,7
 5831 1d16 9095      		com r25
 5832               	.LVL273:
 5833 1d18 0D96      		adiw r24,13
 5834               	.LVL274:
 5835 1d1a 69E1      		ldi r22,lo8(25)
 5836 1d1c 70E0      		ldi r23,hi8(25)
 5837 1d1e 0E94 0000 		call __divmodhi4
 5838 1d22 182F      		mov r17,r24
 5839               	.LVL275:
 5840 1d24 1C50      		subi r17,lo8(-(-12))
 5841               	.LM873:
 5842 1d26 812F      		mov r24,r17
 5843 1d28 602F      		mov r22,r16
 5844 1d2a 0E94 0000 		call display_timezone
 5845               	.LM874:
 5846 1d2e 8091 0000 		lds r24,display+1
 5847 1d32 8160      		ori r24,lo8(1)
 5848 1d34 8093 0000 		sts display+1,r24
 5849               	.LM875:
 5850 1d38 8091 0000 		lds r24,display+2
 5851 1d3c 8160      		ori r24,lo8(1)
 5852 1d3e 8093 0000 		sts display+2,r24
 5853               	.LM876:
 5854 1d42 1093 0000 		sts intTimeZoneHour,r17
 5855               	.L463:
 5856               	.LBB456:
 5857               	.LBB455:
 5858               	.LM877:
 5859 1d46 F999      		sbic 63-32,1
 5860 1d48 00C0      		rjmp .L463
 5861               	.LM878:
 5862 1d4a 1FBA      		out 63-32,__zero_reg__
 5863               	.LM879:
 5864 1d4c D2BD      		out (65)+1-32,r29
 5865 1d4e C1BD      		out 65-32,r28
 5866               	.LM880:
 5867 1d50 10BD      		out 64-32,r17
 5868               	.LM881:
 5869               	/* #APP */
 5870               	 ;  324 "/Applications/Arduino.app/Contents/Resources/Java/hardware/tools/avr/bin/../lib/gcc/avr/4.
 5871               		/* START EEPROM WRITE CRITICAL SECTION */
 5872 1d52 0FB6      		in	r0, 63		
 5873 1d54 F894      		cli				
 5874 1d56 FA9A      		sbi	31, 2	
 5875 1d58 F99A      		sbi	31, 1	
 5876 1d5a 0FBE      		out	63, r0		
 5877               		/* END EEPROM WRITE CRITICAL SECTION */
 5878               	 ;  0 "" 2
 5879               	/* #NOAPP */
 5880               	.LBE455:
 5881               	.LBE456:
 5882               	.LM882:
 5883 1d5c 80E0      		ldi r24,lo8(.LC26)
 5884 1d5e 90E0      		ldi r25,hi8(.LC26)
 5885 1d60 0E94 0000 		call uart_puts
 5886               	.LM883:
 5887 1d64 812F      		mov r24,r17
 5888 1d66 9927      		clr r25
 5889 1d68 87FD      		sbrc r24,7
 5890 1d6a 9095      		com r25
 5891 1d6c 0E94 0000 		call uart_putw_dec
 5892 1d70 00C0      		rjmp .L464
 5893               	.L462:
 5894               	.LM884:
 5895 1d72 82E0      		ldi r24,lo8(2)
 5896 1d74 F816      		cp r15,r24
 5897 1d76 01F4      		brne .L464
 5898               	.LM885:
 5899 1d78 802F      		mov r24,r16
 5900 1d7a 90E0      		ldi r25,lo8(0)
 5901               	.LVL276:
 5902 1d7c 0196      		adiw r24,1
 5903 1d7e 6CE3      		ldi r22,lo8(60)
 5904 1d80 70E0      		ldi r23,hi8(60)
 5905 1d82 0E94 0000 		call __divmodhi4
 5906 1d86 082F      		mov r16,r24
 5907               	.LM886:
 5908 1d88 812F      		mov r24,r17
 5909 1d8a 602F      		mov r22,r16
 5910 1d8c 0E94 0000 		call display_timezone
 5911               	.LVL277:
 5912               	.LM887:
 5913 1d90 8091 0000 		lds r24,display+4
 5914 1d94 8160      		ori r24,lo8(1)
 5915 1d96 8093 0000 		sts display+4,r24
 5916               	.LM888:
 5917 1d9a 8091 0000 		lds r24,display+5
 5918 1d9e 8160      		ori r24,lo8(1)
 5919 1da0 8093 0000 		sts display+5,r24
 5920               	.LM889:
 5921 1da4 0093 0000 		sts intTimeZoneMin,r16
 5922               	.L465:
 5923               	.LBB457:
 5924               	.LBB452:
 5925               	.LM890:
 5926 1da8 F999      		sbic 63-32,1
 5927 1daa 00C0      		rjmp .L465
 5928               	.LM891:
 5929 1dac 1FBA      		out 63-32,__zero_reg__
 5930               	.LM892:
 5931 1dae D2BC      		out (65)+1-32,r13
 5932 1db0 C1BC      		out 65-32,r12
 5933               	.LM893:
 5934 1db2 00BD      		out 64-32,r16
 5935               	.LM894:
 5936               	/* #APP */
 5937               	 ;  324 "/Applications/Arduino.app/Contents/Resources/Java/hardware/tools/avr/bin/../lib/gcc/avr/4.
 5938               		/* START EEPROM WRITE CRITICAL SECTION */
 5939 1db4 0FB6      		in	r0, 63		
 5940 1db6 F894      		cli				
 5941 1db8 FA9A      		sbi	31, 2	
 5942 1dba F99A      		sbi	31, 1	
 5943 1dbc 0FBE      		out	63, r0		
 5944               		/* END EEPROM WRITE CRITICAL SECTION */
 5945               	 ;  0 "" 2
 5946               	/* #NOAPP */
 5947               	.L464:
 5948               	.LBE452:
 5949               	.LBE457:
 5950               	.LM895:
 5951 1dbe 8091 0000 		lds r24,pressed
 5952 1dc2 82FF      		sbrs r24,2
 5953 1dc4 00C0      		rjmp .L473
 5954               	.LBB458:
 5955               	.LBB459:
 5956               	.LM896:
 5957               	/* #APP */
 5958               	 ;  140 "iv.c" 1
 5959 1dc6 7894      		sei
 5960               	 ;  0 "" 2
 5961               	.LM897:
 5962               	/* #NOAPP */
 5963 1dc8 1092 0000 		sts (milliseconds)+1,__zero_reg__
 5964 1dcc 1092 0000 		sts milliseconds,__zero_reg__
 5965               	.L466:
 5966               	.LM898:
 5967 1dd0 8091 0000 		lds r24,milliseconds
 5968 1dd4 9091 0000 		lds r25,(milliseconds)+1
 5969 1dd8 8B34      		cpi r24,75
 5970 1dda 9105      		cpc r25,__zero_reg__
 5971 1ddc 00F0      		brlo .L466
 5972 1dde 00C0      		rjmp .L473
 5973               	.L467:
 5974               	/* epilogue start */
 5975               	.LBE459:
 5976               	.LBE458:
 5977               	.LM899:
 5978 1de0 DF91      		pop r29
 5979 1de2 CF91      		pop r28
 5980 1de4 1F91      		pop r17
 5981               	.LVL278:
 5982 1de6 0F91      		pop r16
 5983               	.LVL279:
 5984 1de8 FF90      		pop r15
 5985               	.LVL280:
 5986 1dea EF90      		pop r14
 5987 1dec DF90      		pop r13
 5988 1dee CF90      		pop r12
 5989 1df0 0895      		ret
 5990               	.LFE44:
 5992               	.global	__vector_1
 5994               	__vector_1:
 5995               	.LFB33:
 5996               	.LM900:
 5997 1df2 1F92      		push __zero_reg__
 5998 1df4 0F92      		push r0
 5999 1df6 0FB6      		in r0,__SREG__
 6000 1df8 0F92      		push r0
 6001 1dfa 1124      		clr __zero_reg__
 6002 1dfc 2F93      		push r18
 6003 1dfe 3F93      		push r19
 6004 1e00 4F93      		push r20
 6005 1e02 5F93      		push r21
 6006 1e04 6F93      		push r22
 6007 1e06 7F93      		push r23
 6008 1e08 8F93      		push r24
 6009 1e0a 9F93      		push r25
 6010 1e0c AF93      		push r26
 6011 1e0e BF93      		push r27
 6012 1e10 EF93      		push r30
 6013 1e12 FF93      		push r31
 6014               	/* prologue: Signal */
 6015               	/* frame size = 0 */
 6016               	.LM901:
 6017 1e14 1DBA      		out 61-32,__zero_reg__
 6018               	.LM902:
 6019 1e16 89E6      		ldi r24,lo8(105)
 6020 1e18 0E94 0000 		call uart_putchar
 6021               	.LM903:
 6022 1e1c 29B1      		in r18,41-32
 6023               	.LM904:
 6024               	/* #APP */
 6025               	 ;  377 "iv.c" 1
 6026 1e1e 7894      		sei
 6027               	 ;  0 "" 2
 6028               	/* #NOAPP */
 6029               	.LBB460:
 6030               	.LBB461:
 6031               	.LM905:
 6032               	/* #APP */
 6033               	 ;  140 "iv.c" 1
 6034 1e20 7894      		sei
 6035               	 ;  0 "" 2
 6036               	.LM906:
 6037               	/* #NOAPP */
 6038 1e22 1092 0000 		sts (milliseconds)+1,__zero_reg__
 6039 1e26 1092 0000 		sts milliseconds,__zero_reg__
 6040               	.L475:
 6041               	.LM907:
 6042 1e2a 8091 0000 		lds r24,milliseconds
 6043 1e2e 9091 0000 		lds r25,(milliseconds)+1
 6044 1e32 0A97      		sbiw r24,10
 6045 1e34 00F0      		brlo .L475
 6046               	.LBE461:
 6047               	.LBE460:
 6048               	.LM908:
 6049 1e36 89B1      		in r24,41-32
 6050 1e38 2470      		andi r18,lo8(4)
 6051 1e3a 30E0      		ldi r19,lo8(0)
 6052 1e3c 90E0      		ldi r25,lo8(0)
 6053 1e3e 8470      		andi r24,lo8(4)
 6054 1e40 9070      		andi r25,hi8(4)
 6055 1e42 2817      		cp r18,r24
 6056 1e44 3907      		cpc r19,r25
 6057 1e46 01F4      		brne .L480
 6058               	.L476:
 6059               	.LM909:
 6060 1e48 0E94 0000 		call setalarmstate
 6061               	.L480:
 6062               	.LM910:
 6063 1e4c 81E0      		ldi r24,lo8(1)
 6064 1e4e 8DBB      		out 61-32,r24
 6065               	/* epilogue start */
 6066               	.LM911:
 6067 1e50 FF91      		pop r31
 6068 1e52 EF91      		pop r30
 6069 1e54 BF91      		pop r27
 6070 1e56 AF91      		pop r26
 6071 1e58 9F91      		pop r25
 6072 1e5a 8F91      		pop r24
 6073 1e5c 7F91      		pop r23
 6074 1e5e 6F91      		pop r22
 6075 1e60 5F91      		pop r21
 6076 1e62 4F91      		pop r20
 6077 1e64 3F91      		pop r19
 6078 1e66 2F91      		pop r18
 6079 1e68 0F90      		pop r0
 6080 1e6a 0FBE      		out __SREG__,r0
 6081 1e6c 0F90      		pop r0
 6082 1e6e 1F90      		pop __zero_reg__
 6083 1e70 1895      		reti
 6084               	.LFE33:
 6086               	.global	twiError
 6088               	twiError:
 6089               	.LFB14:
 6090               	.LM912:
 6091               	.LVL281:
 6092 1e72 0F93      		push r16
 6093 1e74 1F93      		push r17
 6094 1e76 DF93      		push r29
 6095 1e78 CF93      		push r28
 6096 1e7a CDB7      		in r28,__SP_L__
 6097 1e7c DEB7      		in r29,__SP_H__
 6098 1e7e 2C97      		sbiw r28,12
 6099 1e80 0FB6      		in __tmp_reg__,__SREG__
 6100 1e82 F894      		cli
 6101 1e84 DEBF      		out __SP_H__,r29
 6102 1e86 0FBE      		out __SREG__,__tmp_reg__
 6103 1e88 CDBF      		out __SP_L__,r28
 6104               	/* prologue: function */
 6105               	/* frame size = 12 */
 6106 1e8a 482F      		mov r20,r24
 6107 1e8c 262F      		mov r18,r22
 6108               	.LM913:
 6109 1e8e 8E01      		movw r16,r28
 6110 1e90 0F5F      		subi r16,lo8(-(1))
 6111 1e92 1F4F      		sbci r17,hi8(-(1))
 6112 1e94 C801      		movw r24,r16
 6113               	.LVL282:
 6114 1e96 60E0      		ldi r22,lo8(twi_fmt)
 6115 1e98 70E0      		ldi r23,hi8(twi_fmt)
 6116               	.LVL283:
 6117 1e9a 50E0      		ldi r21,lo8(0)
 6118 1e9c 30E0      		ldi r19,lo8(0)
 6119 1e9e 0E94 0000 		call sprintf_P
 6120               	.LVL284:
 6121               	.LM914:
 6122 1ea2 C801      		movw r24,r16
 6123 1ea4 0E94 0000 		call uart_puts
 6124               	/* epilogue start */
 6125               	.LM915:
 6126 1ea8 2C96      		adiw r28,12
 6127 1eaa 0FB6      		in __tmp_reg__,__SREG__
 6128 1eac F894      		cli
 6129 1eae DEBF      		out __SP_H__,r29
 6130 1eb0 0FBE      		out __SREG__,__tmp_reg__
 6131 1eb2 CDBF      		out __SP_L__,r28
 6132 1eb4 CF91      		pop r28
 6133 1eb6 DF91      		pop r29
 6134 1eb8 1F91      		pop r17
 6135 1eba 0F91      		pop r16
 6136 1ebc 0895      		ret
 6137               	.LFE14:
 6140               	twiStart:
 6141               	.LFB15:
 6142               	.LM916:
 6143               	/* prologue: function */
 6144               	/* frame size = 0 */
 6145               	.LM917:
 6146 1ebe 84EA      		ldi r24,lo8(-92)
 6147 1ec0 8093 BC00 		sts 188,r24
 6148               	.L484:
 6149               	.LM918:
 6150 1ec4 8091 BC00 		lds r24,188
 6151 1ec8 87FF      		sbrs r24,7
 6152 1eca 00C0      		rjmp .L484
 6153               	.LM919:
 6154 1ecc 6091 B900 		lds r22,185
 6155               	.LVL285:
 6156 1ed0 687F      		andi r22,lo8(-8)
 6157               	.LM920:
 6158 1ed2 6830      		cpi r22,lo8(8)
 6159 1ed4 01F0      		breq .L485
 6160 1ed6 6031      		cpi r22,lo8(16)
 6161 1ed8 01F0      		breq .L485
 6162               	.LM921:
 6163 1eda 88E0      		ldi r24,lo8(8)
 6164 1edc 0E94 0000 		call twiError
 6165               	.LVL286:
 6166 1ee0 81E0      		ldi r24,lo8(1)
 6167 1ee2 0895      		ret
 6168               	.LVL287:
 6169               	.L485:
 6170               	.LM922:
 6171 1ee4 80E0      		ldi r24,lo8(0)
 6172               	.LM923:
 6173 1ee6 0895      		ret
 6174               	.LFE15:
 6176               	.global	twiReadRegN
 6178               	twiReadRegN:
 6179               	.LFB23:
 6180               	.LM924:
 6181               	.LVL288:
 6182 1ee8 FF92      		push r15
 6183 1eea 0F93      		push r16
 6184 1eec 1F93      		push r17
 6185 1eee CF93      		push r28
 6186 1ef0 DF93      		push r29
 6187               	/* prologue: function */
 6188               	/* frame size = 0 */
 6189 1ef2 182F      		mov r17,r24
 6190 1ef4 F62E      		mov r15,r22
 6191 1ef6 042F      		mov r16,r20
 6192 1ef8 E901      		movw r28,r18
 6193               	.LM925:
 6194 1efa 0E94 0000 		call twiStart
 6195               	.LVL289:
 6196 1efe 8823      		tst r24
 6197 1f00 01F0      		breq .+2
 6198 1f02 00C0      		rjmp .L490
 6199               	.LM926:
 6200 1f04 812F      		mov r24,r17
 6201 1f06 8E7F      		andi r24,lo8(-2)
 6202               	.LBB462:
 6203               	.LBB463:
 6204               	.LM927:
 6205 1f08 8093 BB00 		sts 187,r24
 6206               	.LM928:
 6207 1f0c 84E8      		ldi r24,lo8(-124)
 6208 1f0e 8093 BC00 		sts 188,r24
 6209               	.L491:
 6210               	.LM929:
 6211 1f12 8091 BC00 		lds r24,188
 6212 1f16 87FF      		sbrs r24,7
 6213 1f18 00C0      		rjmp .L491
 6214               	.LBE463:
 6215               	.LBE462:
 6216               	.LM930:
 6217 1f1a 8091 B900 		lds r24,185
 6218 1f1e 8831      		cpi r24,lo8(24)
 6219 1f20 01F0      		breq .L492
 6220               	.LM931:
 6221 1f22 6091 B900 		lds r22,185
 6222 1f26 88E1      		ldi r24,lo8(24)
 6223 1f28 00C0      		rjmp .L510
 6224               	.L492:
 6225               	.LBB464:
 6226               	.LBB465:
 6227               	.LM932:
 6228 1f2a F092 BB00 		sts 187,r15
 6229               	.LM933:
 6230 1f2e 84E8      		ldi r24,lo8(-124)
 6231 1f30 8093 BC00 		sts 188,r24
 6232               	.L493:
 6233               	.LM934:
 6234 1f34 8091 BC00 		lds r24,188
 6235 1f38 87FF      		sbrs r24,7
 6236 1f3a 00C0      		rjmp .L493
 6237               	.LBE465:
 6238               	.LBE464:
 6239               	.LM935:
 6240 1f3c 8091 B900 		lds r24,185
 6241 1f40 8832      		cpi r24,lo8(40)
 6242 1f42 01F0      		breq .L494
 6243               	.LM936:
 6244 1f44 6091 B900 		lds r22,185
 6245 1f48 88E2      		ldi r24,lo8(40)
 6246 1f4a 00C0      		rjmp .L510
 6247               	.L494:
 6248               	.LM937:
 6249 1f4c 0E94 0000 		call twiStart
 6250 1f50 8823      		tst r24
 6251 1f52 01F0      		breq .+2
 6252 1f54 00C0      		rjmp .L490
 6253               	.LM938:
 6254 1f56 1160      		ori r17,lo8(1)
 6255               	.LBB466:
 6256               	.LBB467:
 6257               	.LM939:
 6258 1f58 1093 BB00 		sts 187,r17
 6259               	.LM940:
 6260 1f5c 84E8      		ldi r24,lo8(-124)
 6261 1f5e 8093 BC00 		sts 188,r24
 6262               	.L495:
 6263               	.LM941:
 6264 1f62 8091 BC00 		lds r24,188
 6265 1f66 87FF      		sbrs r24,7
 6266 1f68 00C0      		rjmp .L495
 6267               	.LBE467:
 6268               	.LBE466:
 6269               	.LM942:
 6270 1f6a 8091 B900 		lds r24,185
 6271 1f6e 8034      		cpi r24,lo8(64)
 6272 1f70 01F0      		breq .L496
 6273               	.LM943:
 6274 1f72 6091 B900 		lds r22,185
 6275 1f76 80E4      		ldi r24,lo8(64)
 6276               	.L510:
 6277 1f78 0E94 0000 		call twiError
 6278 1f7c 00C0      		rjmp .L490
 6279               	.L502:
 6280               	.LM944:
 6281 1f7e 0130      		cpi r16,lo8(1)
 6282 1f80 01F4      		brne .L497
 6283               	.LBB468:
 6284               	.LBB469:
 6285               	.LM945:
 6286 1f82 9093 BC00 		sts 188,r25
 6287               	.L498:
 6288               	.LM946:
 6289 1f86 8091 BC00 		lds r24,188
 6290 1f8a 87FF      		sbrs r24,7
 6291 1f8c 00C0      		rjmp .L498
 6292               	.LBE469:
 6293               	.LBE468:
 6294               	.LM947:
 6295 1f8e 8091 B900 		lds r24,185
 6296 1f92 8835      		cpi r24,lo8(88)
 6297 1f94 01F0      		breq .L499
 6298               	.LM948:
 6299 1f96 6091 B900 		lds r22,185
 6300 1f9a 88E5      		ldi r24,lo8(88)
 6301 1f9c 00C0      		rjmp .L510
 6302               	.L497:
 6303               	.LBB471:
 6304               	.LBB472:
 6305               	.LM949:
 6306 1f9e 2093 BC00 		sts 188,r18
 6307               	.L501:
 6308               	.LM950:
 6309 1fa2 8091 BC00 		lds r24,188
 6310 1fa6 87FF      		sbrs r24,7
 6311 1fa8 00C0      		rjmp .L501
 6312               	.LBE472:
 6313               	.LBE471:
 6314               	.LM951:
 6315 1faa 8091 B900 		lds r24,185
 6316 1fae 8035      		cpi r24,lo8(80)
 6317 1fb0 01F0      		breq .L499
 6318               	.LM952:
 6319 1fb2 6091 B900 		lds r22,185
 6320 1fb6 80E5      		ldi r24,lo8(80)
 6321 1fb8 00C0      		rjmp .L510
 6322               	.L499:
 6323               	.LM953:
 6324 1fba 8091 BB00 		lds r24,187
 6325 1fbe 8993      		st Y+,r24
 6326               	.LM954:
 6327 1fc0 0150      		subi r16,lo8(-(-1))
 6328 1fc2 00C0      		rjmp .L509
 6329               	.L496:
 6330               	.LBB474:
 6331               	.LBB473:
 6332               	.LM955:
 6333 1fc4 24EC      		ldi r18,lo8(-60)
 6334               	.LBE473:
 6335               	.LBE474:
 6336               	.LBB475:
 6337               	.LBB470:
 6338               	.LM956:
 6339 1fc6 94E8      		ldi r25,lo8(-124)
 6340               	.L509:
 6341               	.LBE470:
 6342               	.LBE475:
 6343               	.LM957:
 6344 1fc8 0023      		tst r16
 6345 1fca 01F4      		brne .L502
 6346               	.LBB476:
 6347               	.LBB477:
 6348               	.LM958:
 6349 1fcc 84E9      		ldi r24,lo8(-108)
 6350 1fce 8093 BC00 		sts 188,r24
 6351 1fd2 20E0      		ldi r18,lo8(0)
 6352 1fd4 30E0      		ldi r19,hi8(0)
 6353 1fd6 00C0      		rjmp .L500
 6354               	.L490:
 6355               	.LBE477:
 6356               	.LBE476:
 6357               	.LM959:
 6358 1fd8 1092 BC00 		sts 188,__zero_reg__
 6359 1fdc 2FEF      		ldi r18,lo8(-1)
 6360 1fde 3FEF      		ldi r19,hi8(-1)
 6361               	.L500:
 6362               	.LM960:
 6363 1fe0 C901      		movw r24,r18
 6364               	/* epilogue start */
 6365 1fe2 DF91      		pop r29
 6366 1fe4 CF91      		pop r28
 6367               	.LVL290:
 6368 1fe6 1F91      		pop r17
 6369               	.LVL291:
 6370 1fe8 0F91      		pop r16
 6371               	.LVL292:
 6372 1fea FF90      		pop r15
 6373               	.LVL293:
 6374 1fec 0895      		ret
 6375               	.LFE23:
 6377               	.global	twiReadReg
 6379               	twiReadReg:
 6380               	.LFB22:
 6381               	.LM961:
 6382               	.LVL294:
 6383 1fee 0F93      		push r16
 6384 1ff0 1F93      		push r17
 6385               	/* prologue: function */
 6386               	/* frame size = 0 */
 6387 1ff2 182F      		mov r17,r24
 6388 1ff4 062F      		mov r16,r22
 6389               	.LM962:
 6390 1ff6 0E94 0000 		call twiStart
 6391               	.LVL295:
 6392 1ffa 8823      		tst r24
 6393 1ffc 01F0      		breq .+2
 6394 1ffe 00C0      		rjmp .L512
 6395               	.LM963:
 6396 2000 812F      		mov r24,r17
 6397 2002 8E7F      		andi r24,lo8(-2)
 6398               	.LBB478:
 6399               	.LBB479:
 6400               	.LM964:
 6401 2004 8093 BB00 		sts 187,r24
 6402               	.LM965:
 6403 2008 84E8      		ldi r24,lo8(-124)
 6404 200a 8093 BC00 		sts 188,r24
 6405               	.L513:
 6406               	.LM966:
 6407 200e 8091 BC00 		lds r24,188
 6408 2012 87FF      		sbrs r24,7
 6409 2014 00C0      		rjmp .L513
 6410               	.LBE479:
 6411               	.LBE478:
 6412               	.LM967:
 6413 2016 8091 B900 		lds r24,185
 6414 201a 8831      		cpi r24,lo8(24)
 6415 201c 01F0      		breq .L514
 6416               	.LM968:
 6417 201e 6091 B900 		lds r22,185
 6418 2022 88E1      		ldi r24,lo8(24)
 6419 2024 00C0      		rjmp .L527
 6420               	.L514:
 6421               	.LBB480:
 6422               	.LBB481:
 6423               	.LM969:
 6424 2026 0093 BB00 		sts 187,r16
 6425               	.LM970:
 6426 202a 84E8      		ldi r24,lo8(-124)
 6427 202c 8093 BC00 		sts 188,r24
 6428               	.L515:
 6429               	.LM971:
 6430 2030 8091 BC00 		lds r24,188
 6431 2034 87FF      		sbrs r24,7
 6432 2036 00C0      		rjmp .L515
 6433               	.LBE481:
 6434               	.LBE480:
 6435               	.LM972:
 6436 2038 8091 B900 		lds r24,185
 6437 203c 8832      		cpi r24,lo8(40)
 6438 203e 01F0      		breq .L516
 6439               	.LM973:
 6440 2040 6091 B900 		lds r22,185
 6441 2044 88E2      		ldi r24,lo8(40)
 6442 2046 00C0      		rjmp .L527
 6443               	.L516:
 6444               	.LM974:
 6445 2048 0E94 0000 		call twiStart
 6446 204c 8823      		tst r24
 6447 204e 01F4      		brne .L512
 6448               	.LM975:
 6449 2050 1160      		ori r17,lo8(1)
 6450               	.LBB482:
 6451               	.LBB483:
 6452               	.LM976:
 6453 2052 1093 BB00 		sts 187,r17
 6454               	.LM977:
 6455 2056 84E8      		ldi r24,lo8(-124)
 6456 2058 8093 BC00 		sts 188,r24
 6457               	.L517:
 6458               	.LM978:
 6459 205c 8091 BC00 		lds r24,188
 6460 2060 87FF      		sbrs r24,7
 6461 2062 00C0      		rjmp .L517
 6462               	.LBE483:
 6463               	.LBE482:
 6464               	.LM979:
 6465 2064 8091 B900 		lds r24,185
 6466 2068 8034      		cpi r24,lo8(64)
 6467 206a 01F0      		breq .L518
 6468               	.LM980:
 6469 206c 6091 B900 		lds r22,185
 6470 2070 80E4      		ldi r24,lo8(64)
 6471 2072 00C0      		rjmp .L527
 6472               	.L518:
 6473               	.LBB484:
 6474               	.LBB485:
 6475               	.LM981:
 6476 2074 84E8      		ldi r24,lo8(-124)
 6477 2076 8093 BC00 		sts 188,r24
 6478               	.L519:
 6479               	.LM982:
 6480 207a 8091 BC00 		lds r24,188
 6481 207e 87FF      		sbrs r24,7
 6482 2080 00C0      		rjmp .L519
 6483               	.LBE485:
 6484               	.LBE484:
 6485               	.LM983:
 6486 2082 8091 B900 		lds r24,185
 6487 2086 8835      		cpi r24,lo8(88)
 6488 2088 01F0      		breq .L520
 6489               	.LM984:
 6490 208a 6091 B900 		lds r22,185
 6491 208e 88E5      		ldi r24,lo8(88)
 6492               	.L527:
 6493 2090 0E94 0000 		call twiError
 6494 2094 00C0      		rjmp .L512
 6495               	.L520:
 6496               	.LM985:
 6497 2096 9091 BB00 		lds r25,187
 6498               	.LVL296:
 6499               	.LBB486:
 6500               	.LBB487:
 6501               	.LM986:
 6502 209a 84E9      		ldi r24,lo8(-108)
 6503 209c 8093 BC00 		sts 188,r24
 6504               	.LBE487:
 6505               	.LBE486:
 6506               	.LM987:
 6507 20a0 292F      		mov r18,r25
 6508 20a2 30E0      		ldi r19,lo8(0)
 6509 20a4 00C0      		rjmp .L521
 6510               	.LVL297:
 6511               	.L512:
 6512               	.LM988:
 6513 20a6 1092 BC00 		sts 188,__zero_reg__
 6514 20aa 2FEF      		ldi r18,lo8(-1)
 6515 20ac 3FEF      		ldi r19,hi8(-1)
 6516               	.LVL298:
 6517               	.L521:
 6518               	.LM989:
 6519 20ae C901      		movw r24,r18
 6520               	/* epilogue start */
 6521 20b0 1F91      		pop r17
 6522               	.LVL299:
 6523 20b2 0F91      		pop r16
 6524               	.LVL300:
 6525 20b4 0895      		ret
 6526               	.LFE22:
 6528               	.global	clock_init
 6530               	clock_init:
 6531               	.LFB49:
 6532               	.LM990:
 6533 20b6 0F93      		push r16
 6534 20b8 1F93      		push r17
 6535 20ba DF93      		push r29
 6536 20bc CF93      		push r28
 6537 20be CDB7      		in r28,__SP_L__
 6538 20c0 DEB7      		in r29,__SP_H__
 6539 20c2 2797      		sbiw r28,7
 6540 20c4 0FB6      		in __tmp_reg__,__SREG__
 6541 20c6 F894      		cli
 6542 20c8 DEBF      		out __SP_H__,r29
 6543 20ca 0FBE      		out __SREG__,__tmp_reg__
 6544 20cc CDBF      		out __SP_L__,r28
 6545               	/* prologue: function */
 6546               	/* frame size = 7 */
 6547               	.L529:
 6548               	.LBB488:
 6549               	.LBB489:
 6550               	.LM991:
 6551 20ce F999      		sbic 63-32,1
 6552 20d0 00C0      		rjmp .L529
 6553               	.LM992:
 6554 20d2 8FE0      		ldi r24,lo8(15)
 6555 20d4 90E0      		ldi r25,hi8(15)
 6556 20d6 92BD      		out (65)+1-32,r25
 6557 20d8 81BD      		out 65-32,r24
 6558               	.LM993:
 6559               	/* #APP */
 6560               	 ;  208 "/Applications/Arduino.app/Contents/Resources/Java/hardware/tools/avr/bin/../lib/gcc/avr/4.
 6561               		/* START EEPROM READ CRITICAL SECTION */ 
 6562 20da F89A      		sbi 31, 0 
 6563 20dc 80B5      		in r24, 32 
 6564               		/* END EEPROM READ CRITICAL SECTION */ 
 6565               		
 6566               	 ;  0 "" 2
 6567               	.LVL301:
 6568               	/* #NOAPP */
 6569               	.LBE489:
 6570               	.LBE488:
 6571               	.LM994:
 6572 20de 8823      		tst r24
 6573 20e0 01F0      		breq .L530
 6574               	.LM995:
 6575 20e2 8091 0000 		lds r24,flags
 6576               	.LVL302:
 6577 20e6 8460      		ori r24,lo8(4)
 6578 20e8 00C0      		rjmp .L542
 6579               	.LVL303:
 6580               	.L530:
 6581               	.LM996:
 6582 20ea 8091 0000 		lds r24,flags
 6583               	.LVL304:
 6584 20ee 8B7F      		andi r24,lo8(-5)
 6585               	.L542:
 6586 20f0 8093 0000 		sts flags,r24
 6587               	.LM997:
 6588 20f4 80ED      		ldi r24,lo8(-48)
 6589 20f6 67E0      		ldi r22,lo8(7)
 6590 20f8 47E0      		ldi r20,lo8(7)
 6591 20fa 8E01      		movw r16,r28
 6592 20fc 0F5F      		subi r16,lo8(-(1))
 6593 20fe 1F4F      		sbci r17,hi8(-(1))
 6594 2100 9801      		movw r18,r16
 6595 2102 0E94 0000 		call twiReadRegN
 6596 2106 F801      		movw r30,r16
 6597 2108 21E0      		ldi r18,lo8(1)
 6598 210a 30E0      		ldi r19,hi8(1)
 6599               	.LVL305:
 6600               	.L533:
 6601               	.LM998:
 6602 210c 8081      		ld r24,Z
 6603               	.LVL306:
 6604 210e 90E0      		ldi r25,lo8(0)
 6605 2110 8217      		cp r24,r18
 6606 2112 9307      		cpc r25,r19
 6607 2114 01F4      		brne .L532
 6608 2116 822F      		mov r24,r18
 6609               	.LVL307:
 6610 2118 3196      		adiw r30,1
 6611 211a 2F5F      		subi r18,lo8(-(1))
 6612 211c 3F4F      		sbci r19,hi8(-(1))
 6613               	.LM999:
 6614 211e 2830      		cpi r18,8
 6615 2120 3105      		cpc r19,__zero_reg__
 6616 2122 01F4      		brne .L533
 6617               	.LM1000:
 6618 2124 8730      		cpi r24,lo8(7)
 6619 2126 01F0      		breq .L534
 6620               	.L532:
 6621               	.LM1001:
 6622 2128 80E0      		ldi r24,lo8(__c.2819)
 6623 212a 90E0      		ldi r25,hi8(__c.2819)
 6624               	.LVL308:
 6625 212c 61E0      		ldi r22,lo8(1)
 6626 212e 0E94 0000 		call ROM_putstring
 6627               	.LM1002:
 6628 2132 8091 0000 		lds r24,flags
 6629 2136 8260      		ori r24,lo8(2)
 6630 2138 00C0      		rjmp .L543
 6631               	.LVL309:
 6632               	.L534:
 6633               	.LM1003:
 6634               	/* #APP */
 6635               	 ;  1295 "iv.c" 1
 6636 213a F894      		cli
 6637               	 ;  0 "" 2
 6638               	.LM1004:
 6639               	/* #NOAPP */
 6640 213c 80ED      		ldi r24,lo8(-48)
 6641               	.LVL310:
 6642 213e 60E0      		ldi r22,lo8(0)
 6643 2140 0E94 0000 		call twiReadReg
 6644 2144 8093 0000 		sts time_s,r24
 6645               	.LM1005:
 6646 2148 8E01      		movw r16,r28
 6647 214a 0F5F      		subi r16,lo8(-(1))
 6648 214c 1F4F      		sbci r17,hi8(-(1))
 6649               	.L536:
 6650 214e 80ED      		ldi r24,lo8(-48)
 6651 2150 60E0      		ldi r22,lo8(0)
 6652 2152 47E0      		ldi r20,lo8(7)
 6653 2154 9801      		movw r18,r16
 6654 2156 0E94 0000 		call twiReadRegN
 6655 215a 4981      		ldd r20,Y+1
 6656 215c 8091 0000 		lds r24,time_s
 6657 2160 242F      		mov r18,r20
 6658 2162 30E0      		ldi r19,lo8(0)
 6659 2164 9927      		clr r25
 6660 2166 87FD      		sbrc r24,7
 6661 2168 9095      		com r25
 6662 216a 2817      		cp r18,r24
 6663 216c 3907      		cpc r19,r25
 6664 216e 01F0      		breq .L536
 6665               	.LM1006:
 6666 2170 83B5      		in r24,67-32
 6667 2172 8268      		ori r24,lo8(-126)
 6668 2174 83BD      		out 67-32,r24
 6669               	.LM1007:
 6670 2176 1092 B200 		sts 178,__zero_reg__
 6671               	.LM1008:
 6672 217a 83B5      		in r24,67-32
 6673 217c 8F77      		andi r24,lo8(127)
 6674 217e 83BD      		out 67-32,r24
 6675               	.LM1009:
 6676 2180 842F      		mov r24,r20
 6677 2182 8295      		swap r24
 6678 2184 8F70      		andi r24,lo8(15)
 6679 2186 3AE0      		ldi r19,lo8(10)
 6680 2188 839F      		mul r24,r19
 6681 218a C001      		movw r24,r0
 6682 218c 1124      		clr r1
 6683 218e 4F70      		andi r20,lo8(15)
 6684 2190 480F      		add r20,r24
 6685 2192 4093 0000 		sts time_s,r20
 6686               	.LM1010:
 6687 2196 2A81      		ldd r18,Y+2
 6688 2198 822F      		mov r24,r18
 6689 219a 8295      		swap r24
 6690 219c 8F70      		andi r24,lo8(15)
 6691 219e 839F      		mul r24,r19
 6692 21a0 C001      		movw r24,r0
 6693 21a2 1124      		clr r1
 6694 21a4 2F70      		andi r18,lo8(15)
 6695 21a6 280F      		add r18,r24
 6696 21a8 2093 0000 		sts time_m,r18
 6697               	.LM1011:
 6698 21ac 2B81      		ldd r18,Y+3
 6699 21ae 822F      		mov r24,r18
 6700 21b0 8F73      		andi r24,lo8(63)
 6701 21b2 8295      		swap r24
 6702 21b4 8F70      		andi r24,lo8(15)
 6703 21b6 839F      		mul r24,r19
 6704 21b8 C001      		movw r24,r0
 6705 21ba 1124      		clr r1
 6706 21bc 2F70      		andi r18,lo8(15)
 6707 21be 280F      		add r18,r24
 6708 21c0 2093 0000 		sts time_h,r18
 6709               	.LM1012:
 6710 21c4 2D81      		ldd r18,Y+5
 6711 21c6 822F      		mov r24,r18
 6712 21c8 8295      		swap r24
 6713 21ca 8F70      		andi r24,lo8(15)
 6714 21cc 839F      		mul r24,r19
 6715 21ce C001      		movw r24,r0
 6716 21d0 1124      		clr r1
 6717 21d2 2F70      		andi r18,lo8(15)
 6718 21d4 280F      		add r18,r24
 6719 21d6 2093 0000 		sts date_d,r18
 6720               	.LM1013:
 6721 21da 2E81      		ldd r18,Y+6
 6722 21dc 822F      		mov r24,r18
 6723 21de 8F71      		andi r24,lo8(31)
 6724 21e0 8295      		swap r24
 6725 21e2 8F70      		andi r24,lo8(15)
 6726 21e4 839F      		mul r24,r19
 6727 21e6 C001      		movw r24,r0
 6728 21e8 1124      		clr r1
 6729 21ea 2F70      		andi r18,lo8(15)
 6730 21ec 280F      		add r18,r24
 6731 21ee 2093 0000 		sts date_m,r18
 6732               	.LM1014:
 6733 21f2 2F81      		ldd r18,Y+7
 6734 21f4 822F      		mov r24,r18
 6735 21f6 8295      		swap r24
 6736 21f8 8F70      		andi r24,lo8(15)
 6737 21fa 839F      		mul r24,r19
 6738 21fc C001      		movw r24,r0
 6739 21fe 1124      		clr r1
 6740 2200 2F70      		andi r18,lo8(15)
 6741 2202 280F      		add r18,r24
 6742 2204 2093 0000 		sts date_y,r18
 6743               	.LM1015:
 6744               	/* #APP */
 6745               	 ;  1313 "iv.c" 1
 6746 2208 7894      		sei
 6747               	 ;  0 "" 2
 6748               	.LM1016:
 6749               	/* #NOAPP */
 6750 220a 8091 0000 		lds r24,flags
 6751 220e 8D7F      		andi r24,lo8(-3)
 6752 2210 8093 0000 		sts flags,r24
 6753               	.LM1017:
 6754 2214 8091 0000 		lds r24,date_y
 6755 2218 6091 0000 		lds r22,date_m
 6756 221c 4091 0000 		lds r20,date_d
 6757 2220 2091 0000 		lds r18,time_h
 6758               	.LBB490:
 6759               	.LM1018:
 6760 2224 0E94 0000 		call dst
 6761               	.LBB491:
 6762 2228 8823      		tst r24
 6763 222a 01F0      		breq .L537
 6764               	.LM1019:
 6765 222c 8091 0000 		lds r24,flags
 6766 2230 8160      		ori r24,lo8(1)
 6767 2232 00C0      		rjmp .L543
 6768               	.L537:
 6769               	.LM1020:
 6770 2234 8091 0000 		lds r24,flags
 6771 2238 8E7F      		andi r24,lo8(-2)
 6772               	.L543:
 6773 223a 8093 0000 		sts flags,r24
 6774               	/* epilogue start */
 6775               	.LBE491:
 6776               	.LBE490:
 6777               	.LM1021:
 6778 223e 2796      		adiw r28,7
 6779 2240 0FB6      		in __tmp_reg__,__SREG__
 6780 2242 F894      		cli
 6781 2244 DEBF      		out __SP_H__,r29
 6782 2246 0FBE      		out __SREG__,__tmp_reg__
 6783 2248 CDBF      		out __SP_L__,r28
 6784 224a CF91      		pop r28
 6785 224c DF91      		pop r29
 6786 224e 1F91      		pop r17
 6787 2250 0F91      		pop r16
 6788 2252 0895      		ret
 6789               	.LFE49:
 6791               	.global	twiWriteRegN
 6793               	twiWriteRegN:
 6794               	.LFB21:
 6795               	.LM1022:
 6796               	.LVL311:
 6797 2254 FF92      		push r15
 6798 2256 0F93      		push r16
 6799 2258 1F93      		push r17
 6800 225a CF93      		push r28
 6801 225c DF93      		push r29
 6802               	/* prologue: function */
 6803               	/* frame size = 0 */
 6804 225e 182F      		mov r17,r24
 6805 2260 F62E      		mov r15,r22
 6806 2262 042F      		mov r16,r20
 6807 2264 E901      		movw r28,r18
 6808               	.LM1023:
 6809 2266 0E94 0000 		call twiStart
 6810               	.LVL312:
 6811 226a 8823      		tst r24
 6812 226c 01F4      		brne .L545
 6813               	.LM1024:
 6814 226e 1E7F      		andi r17,lo8(-2)
 6815               	.LBB492:
 6816               	.LBB493:
 6817               	.LM1025:
 6818 2270 1093 BB00 		sts 187,r17
 6819               	.LM1026:
 6820 2274 84E8      		ldi r24,lo8(-124)
 6821 2276 8093 BC00 		sts 188,r24
 6822               	.L546:
 6823               	.LM1027:
 6824 227a 8091 BC00 		lds r24,188
 6825 227e 87FF      		sbrs r24,7
 6826 2280 00C0      		rjmp .L546
 6827               	.LBE493:
 6828               	.LBE492:
 6829               	.LM1028:
 6830 2282 8091 B900 		lds r24,185
 6831 2286 8831      		cpi r24,lo8(24)
 6832 2288 01F0      		breq .L547
 6833               	.LM1029:
 6834 228a 6091 B900 		lds r22,185
 6835 228e 88E1      		ldi r24,lo8(24)
 6836 2290 00C0      		rjmp .L559
 6837               	.L547:
 6838               	.LBB494:
 6839               	.LBB495:
 6840               	.LM1030:
 6841 2292 F092 BB00 		sts 187,r15
 6842               	.LM1031:
 6843 2296 84E8      		ldi r24,lo8(-124)
 6844 2298 8093 BC00 		sts 188,r24
 6845               	.L548:
 6846               	.LM1032:
 6847 229c 8091 BC00 		lds r24,188
 6848 22a0 87FF      		sbrs r24,7
 6849 22a2 00C0      		rjmp .L548
 6850               	.LBE495:
 6851               	.LBE494:
 6852               	.LM1033:
 6853 22a4 8091 B900 		lds r24,185
 6854 22a8 8832      		cpi r24,lo8(40)
 6855 22aa 01F0      		breq .L549
 6856               	.L560:
 6857               	.LM1034:
 6858 22ac 6091 B900 		lds r22,185
 6859 22b0 88E2      		ldi r24,lo8(40)
 6860               	.L559:
 6861 22b2 0E94 0000 		call twiError
 6862 22b6 00C0      		rjmp .L545
 6863               	.L553:
 6864               	.LM1035:
 6865 22b8 8881      		ld r24,Y
 6866               	.LBB496:
 6867               	.LBB497:
 6868               	.LM1036:
 6869 22ba 8093 BB00 		sts 187,r24
 6870               	.LM1037:
 6871 22be 9093 BC00 		sts 188,r25
 6872               	.L550:
 6873               	.LM1038:
 6874 22c2 8091 BC00 		lds r24,188
 6875 22c6 87FF      		sbrs r24,7
 6876 22c8 00C0      		rjmp .L550
 6877               	.LBE497:
 6878               	.LBE496:
 6879               	.LM1039:
 6880 22ca 8091 B900 		lds r24,185
 6881 22ce 8832      		cpi r24,lo8(40)
 6882 22d0 01F4      		brne .L560
 6883               	.L551:
 6884               	.LM1040:
 6885 22d2 2196      		adiw r28,1
 6886               	.LM1041:
 6887 22d4 0150      		subi r16,lo8(-(-1))
 6888 22d6 00C0      		rjmp .L558
 6889               	.L549:
 6890               	.LBB499:
 6891               	.LBB498:
 6892               	.LM1042:
 6893 22d8 94E8      		ldi r25,lo8(-124)
 6894               	.L558:
 6895               	.LBE498:
 6896               	.LBE499:
 6897               	.LM1043:
 6898 22da 0023      		tst r16
 6899 22dc 01F4      		brne .L553
 6900               	.LBB500:
 6901               	.LBB501:
 6902               	.LM1044:
 6903 22de 84E9      		ldi r24,lo8(-108)
 6904 22e0 8093 BC00 		sts 188,r24
 6905 22e4 20E0      		ldi r18,lo8(0)
 6906 22e6 30E0      		ldi r19,hi8(0)
 6907 22e8 00C0      		rjmp .L552
 6908               	.L545:
 6909               	.LBE501:
 6910               	.LBE500:
 6911               	.LM1045:
 6912 22ea 1092 BC00 		sts 188,__zero_reg__
 6913 22ee 2FEF      		ldi r18,lo8(-1)
 6914 22f0 3FEF      		ldi r19,hi8(-1)
 6915               	.L552:
 6916               	.LM1046:
 6917 22f2 C901      		movw r24,r18
 6918               	/* epilogue start */
 6919 22f4 DF91      		pop r29
 6920 22f6 CF91      		pop r28
 6921               	.LVL313:
 6922 22f8 1F91      		pop r17
 6923               	.LVL314:
 6924 22fa 0F91      		pop r16
 6925               	.LVL315:
 6926 22fc FF90      		pop r15
 6927               	.LVL316:
 6928 22fe 0895      		ret
 6929               	.LFE21:
 6931               	.global	set_date
 6933               	set_date:
 6934               	.LFB43:
 6935               	.LM1047:
 6936 2300 9F92      		push r9
 6937 2302 AF92      		push r10
 6938 2304 BF92      		push r11
 6939 2306 CF92      		push r12
 6940 2308 DF92      		push r13
 6941 230a EF92      		push r14
 6942 230c FF92      		push r15
 6943 230e 0F93      		push r16
 6944 2310 1F93      		push r17
 6945 2312 DF93      		push r29
 6946 2314 CF93      		push r28
 6947 2316 00D0      		rcall .
 6948 2318 00D0      		rcall .
 6949 231a CDB7      		in r28,__SP_L__
 6950 231c DEB7      		in r29,__SP_H__
 6951               	/* prologue: function */
 6952               	/* frame size = 4 */
 6953               	.LM1048:
 6954 231e 8AE0      		ldi r24,lo8(10)
 6955 2320 8093 0000 		sts timeoutcounter,r24
 6956 2324 10E0      		ldi r17,lo8(0)
 6957               	.LVL317:
 6958               	.LM1049:
 6959 2326 0AE0      		ldi r16,lo8(10)
 6960               	.LM1050:
 6961 2328 9924      		clr r9
 6962 232a 9394      		inc r9
 6963               	.LVL318:
 6964               	.LBB502:
 6965               	.LBB503:
 6966               	.LM1051:
 6967 232c 41E0      		ldi r20,lo8(1)
 6968 232e C42E      		mov r12,r20
 6969 2330 D12C      		mov r13,__zero_reg__
 6970               	.LBE503:
 6971               	.LBE502:
 6972               	.LBB505:
 6973               	.LBB506:
 6974 2332 33E0      		ldi r19,lo8(3)
 6975 2334 A32E      		mov r10,r19
 6976 2336 B12C      		mov r11,__zero_reg__
 6977               	.LBE506:
 6978               	.LBE505:
 6979               	.LBB508:
 6980               	.LBB509:
 6981 2338 22E0      		ldi r18,lo8(2)
 6982 233a E22E      		mov r14,r18
 6983 233c F12C      		mov r15,__zero_reg__
 6984               	.LVL319:
 6985               	.L602:
 6986               	.LBE509:
 6987               	.LBE508:
 6988               	.LM1052:
 6989 233e 8091 0000 		lds r24,just_pressed
 6990 2342 8823      		tst r24
 6991 2344 01F4      		brne .L562
 6992 2346 8091 0000 		lds r24,pressed
 6993 234a 8823      		tst r24
 6994 234c 01F0      		breq .L563
 6995               	.L562:
 6996               	.LM1053:
 6997 234e 0093 0000 		sts timeoutcounter,r16
 6998 2352 00C0      		rjmp .L564
 6999               	.L563:
 7000               	.LM1054:
 7001 2354 8091 0000 		lds r24,timeoutcounter
 7002 2358 8823      		tst r24
 7003 235a 01F4      		brne .+2
 7004 235c 00C0      		rjmp .L605
 7005               	.L564:
 7006               	.LM1055:
 7007 235e 8091 0000 		lds r24,just_pressed
 7008 2362 80FD      		sbrc r24,0
 7009 2364 00C0      		rjmp .L594
 7010               	.LM1056:
 7011 2366 8091 0000 		lds r24,just_pressed
 7012 236a 81FF      		sbrs r24,1
 7013 236c 00C0      		rjmp .L566
 7014               	.LM1057:
 7015 236e 1092 0000 		sts just_pressed,__zero_reg__
 7016               	.LM1058:
 7017 2372 1123      		tst r17
 7018 2374 01F4      		brne .L567
 7019               	.LVL320:
 7020               	.LM1059:
 7021 2376 8091 0000 		lds r24,region
 7022 237a 8823      		tst r24
 7023 237c 01F4      		brne .L568
 7024 237e 11E0      		ldi r17,lo8(1)
 7025 2380 00C0      		rjmp .L569
 7026               	.LVL321:
 7027               	.L568:
 7028               	.LM1060:
 7029 2382 80E0      		ldi r24,lo8(__c.2575)
 7030 2384 90E0      		ldi r25,hi8(__c.2575)
 7031 2386 61E0      		ldi r22,lo8(1)
 7032 2388 0E94 0000 		call ROM_putstring
 7033 238c 12E0      		ldi r17,lo8(2)
 7034               	.L569:
 7035               	.LM1061:
 7036 238e 80E0      		ldi r24,lo8(0)
 7037 2390 0E94 0000 		call display_date
 7038               	.LM1062:
 7039 2394 8091 0000 		lds r24,display+1
 7040 2398 8160      		ori r24,lo8(1)
 7041 239a 8093 0000 		sts display+1,r24
 7042               	.LM1063:
 7043 239e 8091 0000 		lds r24,display+2
 7044 23a2 8160      		ori r24,lo8(1)
 7045 23a4 8093 0000 		sts display+2,r24
 7046 23a8 00C0      		rjmp .L566
 7047               	.LVL322:
 7048               	.L567:
 7049               	.LM1064:
 7050 23aa 1130      		cpi r17,lo8(1)
 7051 23ac 01F4      		brne .L570
 7052 23ae 8091 0000 		lds r24,region
 7053 23b2 8823      		tst r24
 7054 23b4 01F0      		breq .L571
 7055 23b6 00C0      		rjmp .L603
 7056               	.L570:
 7057 23b8 1230      		cpi r17,lo8(2)
 7058 23ba 01F4      		brne .L572
 7059 23bc 8091 0000 		lds r24,region
 7060 23c0 8130      		cpi r24,lo8(1)
 7061 23c2 01F4      		brne .L573
 7062               	.L571:
 7063               	.LM1065:
 7064 23c4 8091 0000 		lds r24,region
 7065 23c8 8823      		tst r24
 7066 23ca 01F0      		breq .L574
 7067 23cc 11E0      		ldi r17,lo8(1)
 7068 23ce 00C0      		rjmp .L575
 7069               	.LVL323:
 7070               	.L574:
 7071 23d0 12E0      		ldi r17,lo8(2)
 7072               	.L575:
 7073               	.LM1066:
 7074 23d2 80E0      		ldi r24,lo8(0)
 7075 23d4 0E94 0000 		call display_date
 7076               	.LM1067:
 7077 23d8 8091 0000 		lds r24,display+4
 7078 23dc 8160      		ori r24,lo8(1)
 7079 23de 8093 0000 		sts display+4,r24
 7080               	.LM1068:
 7081 23e2 8091 0000 		lds r24,display+5
 7082 23e6 8160      		ori r24,lo8(1)
 7083 23e8 8093 0000 		sts display+5,r24
 7084 23ec 00C0      		rjmp .L566
 7085               	.LVL324:
 7086               	.L573:
 7087               	.LM1069:
 7088 23ee 8823      		tst r24
 7089 23f0 01F0      		breq .L576
 7090 23f2 00C0      		rjmp .L577
 7091               	.L572:
 7092 23f4 1130      		cpi r17,lo8(1)
 7093 23f6 01F4      		brne .L577
 7094               	.L603:
 7095 23f8 8091 0000 		lds r24,region
 7096 23fc 8130      		cpi r24,lo8(1)
 7097 23fe 01F4      		brne .L577
 7098               	.L576:
 7099               	.LM1070:
 7100 2400 80E0      		ldi r24,lo8(0)
 7101 2402 0E94 0000 		call display_date
 7102               	.LM1071:
 7103 2406 8091 0000 		lds r24,display+7
 7104 240a 8160      		ori r24,lo8(1)
 7105 240c 8093 0000 		sts display+7,r24
 7106               	.LM1072:
 7107 2410 8091 0000 		lds r24,display+8
 7108 2414 8160      		ori r24,lo8(1)
 7109 2416 8093 0000 		sts display+8,r24
 7110 241a 13E0      		ldi r17,lo8(3)
 7111 241c 00C0      		rjmp .L566
 7112               	.LVL325:
 7113               	.L577:
 7114               	.LM1073:
 7115 241e 83E6      		ldi r24,lo8(99)
 7116 2420 8093 0000 		sts displaymode,r24
 7117               	.LM1074:
 7118 2424 80E0      		ldi r24,lo8(0)
 7119 2426 0E94 0000 		call display_date
 7120               	.LM1075:
 7121 242a 1091 0000 		lds r17,date_d
 7122               	.LVL326:
 7123               	.LM1076:
 7124 242e 0091 0000 		lds r16,date_m
 7125               	.LM1077:
 7126 2432 F090 0000 		lds r15,date_y
 7127               	.LM1078:
 7128               	/* #APP */
 7129               	 ;  967 "iv.c" 1
 7130 2436 7894      		sei
 7131               	 ;  0 "" 2
 7132               	.LM1079:
 7133               	/* #NOAPP */
 7134 2438 8F2D      		mov r24,r15
 7135 243a 602F      		mov r22,r16
 7136 243c 412F      		mov r20,r17
 7137 243e 0E94 0000 		call dow
 7138 2442 8983      		std Y+1,r24
 7139               	.LM1080:
 7140 2444 812F      		mov r24,r17
 7141 2446 0E94 0000 		call b2bcd
 7142 244a 8A83      		std Y+2,r24
 7143               	.LM1081:
 7144 244c 802F      		mov r24,r16
 7145 244e 0E94 0000 		call b2bcd
 7146 2452 8B83      		std Y+3,r24
 7147               	.LM1082:
 7148 2454 8F2D      		mov r24,r15
 7149 2456 0E94 0000 		call b2bcd
 7150 245a 8C83      		std Y+4,r24
 7151               	.LM1083:
 7152 245c 80ED      		ldi r24,lo8(-48)
 7153 245e 63E0      		ldi r22,lo8(3)
 7154 2460 44E0      		ldi r20,lo8(4)
 7155 2462 9E01      		movw r18,r28
 7156 2464 2F5F      		subi r18,lo8(-(1))
 7157 2466 3F4F      		sbci r19,hi8(-(1))
 7158 2468 0E94 0000 		call twiWriteRegN
 7159               	.LM1084:
 7160 246c 80E0      		ldi r24,lo8(0)
 7161 246e 0E94 0000 		call display_date
 7162               	.LBB511:
 7163               	.LBB512:
 7164               	.LM1085:
 7165               	/* #APP */
 7166               	 ;  140 "iv.c" 1
 7167 2472 7894      		sei
 7168               	 ;  0 "" 2
 7169               	.LM1086:
 7170               	/* #NOAPP */
 7171 2474 1092 0000 		sts (milliseconds)+1,__zero_reg__
 7172 2478 1092 0000 		sts milliseconds,__zero_reg__
 7173               	.L578:
 7174               	.LM1087:
 7175 247c 8091 0000 		lds r24,milliseconds
 7176 2480 9091 0000 		lds r25,(milliseconds)+1
 7177 2484 8C5D      		subi r24,lo8(1500)
 7178 2486 9540      		sbci r25,hi8(1500)
 7179 2488 00F0      		brlo .L578
 7180               	.LVL327:
 7181               	.L605:
 7182               	.LBE512:
 7183               	.LBE511:
 7184               	.LM1088:
 7185 248a 1092 0000 		sts displaymode,__zero_reg__
 7186 248e 00C0      		rjmp .L594
 7187               	.LVL328:
 7188               	.L566:
 7189               	.LM1089:
 7190 2490 8091 0000 		lds r24,just_pressed
 7191 2494 82FD      		sbrc r24,2
 7192 2496 00C0      		rjmp .L579
 7193 2498 8091 0000 		lds r24,pressed
 7194 249c 82FF      		sbrs r24,2
 7195 249e 00C0      		rjmp .L602
 7196               	.L579:
 7197               	.LM1090:
 7198 24a0 1092 0000 		sts just_pressed,__zero_reg__
 7199               	.LM1091:
 7200 24a4 1130      		cpi r17,lo8(1)
 7201 24a6 01F4      		brne .L581
 7202               	.LM1092:
 7203 24a8 8091 0000 		lds r24,date_m
 7204 24ac 8F5F      		subi r24,lo8(-(1))
 7205 24ae 8093 0000 		sts date_m,r24
 7206               	.LM1093:
 7207 24b2 8091 0000 		lds r24,date_m
 7208 24b6 8D30      		cpi r24,lo8(13)
 7209 24b8 04F0      		brlt .L582
 7210               	.LM1094:
 7211 24ba 1093 0000 		sts date_m,r17
 7212               	.L582:
 7213               	.LM1095:
 7214 24be 80E0      		ldi r24,lo8(0)
 7215 24c0 0E94 0000 		call display_date
 7216               	.LM1096:
 7217 24c4 8091 0000 		lds r24,region
 7218 24c8 8823      		tst r24
 7219 24ca 01F4      		brne .L583
 7220               	.LM1097:
 7221 24cc 8091 0000 		lds r24,display+1
 7222 24d0 8160      		ori r24,lo8(1)
 7223 24d2 8093 0000 		sts display+1,r24
 7224               	.LM1098:
 7225 24d6 8091 0000 		lds r24,display+2
 7226 24da 8160      		ori r24,lo8(1)
 7227 24dc 8093 0000 		sts display+2,r24
 7228 24e0 00C0      		rjmp .L584
 7229               	.L583:
 7230               	.LM1099:
 7231 24e2 8091 0000 		lds r24,display+4
 7232 24e6 8160      		ori r24,lo8(1)
 7233 24e8 8093 0000 		sts display+4,r24
 7234               	.LM1100:
 7235 24ec 8091 0000 		lds r24,display+5
 7236 24f0 8160      		ori r24,lo8(1)
 7237 24f2 8093 0000 		sts display+5,r24
 7238               	.L584:
 7239               	.LM1101:
 7240 24f6 8091 0000 		lds r24,date_m
 7241               	.L585:
 7242               	.LBB513:
 7243               	.LBB510:
 7244               	.LM1102:
 7245 24fa F999      		sbic 63-32,1
 7246 24fc 00C0      		rjmp .L585
 7247               	.LM1103:
 7248 24fe 1FBA      		out 63-32,__zero_reg__
 7249               	.LM1104:
 7250 2500 F2BC      		out (65)+1-32,r15
 7251 2502 E1BC      		out 65-32,r14
 7252 2504 00C0      		rjmp .L604
 7253               	.L581:
 7254               	.LBE510:
 7255               	.LBE513:
 7256               	.LM1105:
 7257 2506 1230      		cpi r17,lo8(2)
 7258 2508 01F4      		brne .L586
 7259               	.LM1106:
 7260 250a 8091 0000 		lds r24,date_d
 7261 250e 8F5F      		subi r24,lo8(-(1))
 7262 2510 8093 0000 		sts date_d,r24
 7263               	.LM1107:
 7264 2514 8091 0000 		lds r24,date_d
 7265 2518 8032      		cpi r24,lo8(32)
 7266 251a 04F0      		brlt .L587
 7267               	.LM1108:
 7268 251c 9092 0000 		sts date_d,r9
 7269               	.L587:
 7270               	.LM1109:
 7271 2520 80E0      		ldi r24,lo8(0)
 7272 2522 0E94 0000 		call display_date
 7273               	.LM1110:
 7274 2526 8091 0000 		lds r24,region
 7275 252a 8130      		cpi r24,lo8(1)
 7276 252c 01F4      		brne .L588
 7277               	.LM1111:
 7278 252e 8091 0000 		lds r24,display+1
 7279 2532 8160      		ori r24,lo8(1)
 7280 2534 8093 0000 		sts display+1,r24
 7281               	.LM1112:
 7282 2538 8091 0000 		lds r24,display+2
 7283 253c 8160      		ori r24,lo8(1)
 7284 253e 8093 0000 		sts display+2,r24
 7285 2542 00C0      		rjmp .L589
 7286               	.L588:
 7287               	.LM1113:
 7288 2544 8091 0000 		lds r24,display+4
 7289 2548 8160      		ori r24,lo8(1)
 7290 254a 8093 0000 		sts display+4,r24
 7291               	.LM1114:
 7292 254e 8091 0000 		lds r24,display+5
 7293 2552 8160      		ori r24,lo8(1)
 7294 2554 8093 0000 		sts display+5,r24
 7295               	.L589:
 7296               	.LM1115:
 7297 2558 8091 0000 		lds r24,date_d
 7298               	.L590:
 7299               	.LBB514:
 7300               	.LBB507:
 7301               	.LM1116:
 7302 255c F999      		sbic 63-32,1
 7303 255e 00C0      		rjmp .L590
 7304               	.LM1117:
 7305 2560 1FBA      		out 63-32,__zero_reg__
 7306               	.LM1118:
 7307 2562 B2BC      		out (65)+1-32,r11
 7308 2564 A1BC      		out 65-32,r10
 7309 2566 00C0      		rjmp .L604
 7310               	.L586:
 7311               	.LBE507:
 7312               	.LBE514:
 7313               	.LM1119:
 7314 2568 1330      		cpi r17,lo8(3)
 7315 256a 01F4      		brne .L591
 7316               	.LM1120:
 7317 256c 8091 0000 		lds r24,date_y
 7318 2570 8F5F      		subi r24,lo8(-(1))
 7319 2572 8093 0000 		sts date_y,r24
 7320               	.LM1121:
 7321 2576 8091 0000 		lds r24,date_y
 7322 257a 64E6      		ldi r22,lo8(100)
 7323 257c 0E94 0000 		call __divmodqi4
 7324 2580 9093 0000 		sts date_y,r25
 7325               	.LM1122:
 7326 2584 80E0      		ldi r24,lo8(0)
 7327 2586 0E94 0000 		call display_date
 7328               	.LM1123:
 7329 258a 8091 0000 		lds r24,display+7
 7330 258e 8160      		ori r24,lo8(1)
 7331 2590 8093 0000 		sts display+7,r24
 7332               	.LM1124:
 7333 2594 8091 0000 		lds r24,display+8
 7334 2598 8160      		ori r24,lo8(1)
 7335 259a 8093 0000 		sts display+8,r24
 7336               	.LM1125:
 7337 259e 8091 0000 		lds r24,date_y
 7338               	.L592:
 7339               	.LBB515:
 7340               	.LBB504:
 7341               	.LM1126:
 7342 25a2 F999      		sbic 63-32,1
 7343 25a4 00C0      		rjmp .L592
 7344               	.LM1127:
 7345 25a6 1FBA      		out 63-32,__zero_reg__
 7346               	.LM1128:
 7347 25a8 D2BC      		out (65)+1-32,r13
 7348 25aa C1BC      		out 65-32,r12
 7349               	.L604:
 7350               	.LM1129:
 7351 25ac 80BD      		out 64-32,r24
 7352               	.LM1130:
 7353               	/* #APP */
 7354               	 ;  324 "/Applications/Arduino.app/Contents/Resources/Java/hardware/tools/avr/bin/../lib/gcc/avr/4.
 7355               		/* START EEPROM WRITE CRITICAL SECTION */
 7356 25ae 0FB6      		in	r0, 63		
 7357 25b0 F894      		cli				
 7358 25b2 FA9A      		sbi	31, 2	
 7359 25b4 F99A      		sbi	31, 1	
 7360 25b6 0FBE      		out	63, r0		
 7361               		/* END EEPROM WRITE CRITICAL SECTION */
 7362               	 ;  0 "" 2
 7363               	/* #NOAPP */
 7364               	.L591:
 7365               	.LBE504:
 7366               	.LBE515:
 7367               	.LM1131:
 7368 25b8 8091 0000 		lds r24,pressed
 7369 25bc 82FF      		sbrs r24,2
 7370 25be 00C0      		rjmp .L602
 7371               	.LBB516:
 7372               	.LBB517:
 7373               	.LM1132:
 7374               	/* #APP */
 7375               	 ;  140 "iv.c" 1
 7376 25c0 7894      		sei
 7377               	 ;  0 "" 2
 7378               	.LM1133:
 7379               	/* #NOAPP */
 7380 25c2 1092 0000 		sts (milliseconds)+1,__zero_reg__
 7381 25c6 1092 0000 		sts milliseconds,__zero_reg__
 7382               	.L593:
 7383               	.LM1134:
 7384 25ca 8091 0000 		lds r24,milliseconds
 7385 25ce 9091 0000 		lds r25,(milliseconds)+1
 7386 25d2 CC97      		sbiw r24,60
 7387 25d4 00F0      		brlo .L593
 7388 25d6 00C0      		rjmp .L602
 7389               	.LVL329:
 7390               	.L594:
 7391               	/* epilogue start */
 7392               	.LBE517:
 7393               	.LBE516:
 7394               	.LM1135:
 7395 25d8 0F90      		pop __tmp_reg__
 7396 25da 0F90      		pop __tmp_reg__
 7397 25dc 0F90      		pop __tmp_reg__
 7398 25de 0F90      		pop __tmp_reg__
 7399 25e0 CF91      		pop r28
 7400 25e2 DF91      		pop r29
 7401 25e4 1F91      		pop r17
 7402 25e6 0F91      		pop r16
 7403 25e8 FF90      		pop r15
 7404 25ea EF90      		pop r14
 7405 25ec DF90      		pop r13
 7406 25ee CF90      		pop r12
 7407 25f0 BF90      		pop r11
 7408 25f2 AF90      		pop r10
 7409 25f4 9F90      		pop r9
 7410               	.LVL330:
 7411 25f6 0895      		ret
 7412               	.LFE43:
 7414               	.global	twiWriteReg
 7416               	twiWriteReg:
 7417               	.LFB20:
 7418               	.LM1136:
 7419               	.LVL331:
 7420 25f8 FF92      		push r15
 7421 25fa 0F93      		push r16
 7422 25fc 1F93      		push r17
 7423               	/* prologue: function */
 7424               	/* frame size = 0 */
 7425 25fe 182F      		mov r17,r24
 7426 2600 062F      		mov r16,r22
 7427 2602 F42E      		mov r15,r20
 7428               	.LM1137:
 7429 2604 0E94 0000 		call twiStart
 7430               	.LVL332:
 7431 2608 8823      		tst r24
 7432 260a 01F4      		brne .L607
 7433               	.LM1138:
 7434 260c 1E7F      		andi r17,lo8(-2)
 7435               	.LBB518:
 7436               	.LBB519:
 7437               	.LM1139:
 7438 260e 1093 BB00 		sts 187,r17
 7439               	.LM1140:
 7440 2612 84E8      		ldi r24,lo8(-124)
 7441 2614 8093 BC00 		sts 188,r24
 7442               	.L608:
 7443               	.LM1141:
 7444 2618 8091 BC00 		lds r24,188
 7445 261c 87FF      		sbrs r24,7
 7446 261e 00C0      		rjmp .L608
 7447               	.LBE519:
 7448               	.LBE518:
 7449               	.LM1142:
 7450 2620 8091 B900 		lds r24,185
 7451 2624 8831      		cpi r24,lo8(24)
 7452 2626 01F0      		breq .L609
 7453               	.LM1143:
 7454 2628 6091 B900 		lds r22,185
 7455 262c 88E1      		ldi r24,lo8(24)
 7456 262e 00C0      		rjmp .L620
 7457               	.L609:
 7458               	.LBB520:
 7459               	.LBB521:
 7460               	.LM1144:
 7461 2630 0093 BB00 		sts 187,r16
 7462               	.LM1145:
 7463 2634 84E8      		ldi r24,lo8(-124)
 7464 2636 8093 BC00 		sts 188,r24
 7465               	.L610:
 7466               	.LM1146:
 7467 263a 8091 BC00 		lds r24,188
 7468 263e 87FF      		sbrs r24,7
 7469 2640 00C0      		rjmp .L610
 7470               	.LBE521:
 7471               	.LBE520:
 7472               	.LM1147:
 7473 2642 8091 B900 		lds r24,185
 7474 2646 8832      		cpi r24,lo8(40)
 7475 2648 01F4      		brne .L619
 7476               	.L611:
 7477               	.LBB522:
 7478               	.LBB523:
 7479               	.LM1148:
 7480 264a F092 BB00 		sts 187,r15
 7481               	.LM1149:
 7482 264e 84E8      		ldi r24,lo8(-124)
 7483 2650 8093 BC00 		sts 188,r24
 7484               	.L612:
 7485               	.LM1150:
 7486 2654 8091 BC00 		lds r24,188
 7487 2658 87FF      		sbrs r24,7
 7488 265a 00C0      		rjmp .L612
 7489               	.LBE523:
 7490               	.LBE522:
 7491               	.LM1151:
 7492 265c 8091 B900 		lds r24,185
 7493 2660 8832      		cpi r24,lo8(40)
 7494 2662 01F0      		breq .L613
 7495               	.L619:
 7496               	.LM1152:
 7497 2664 6091 B900 		lds r22,185
 7498 2668 88E2      		ldi r24,lo8(40)
 7499               	.L620:
 7500 266a 0E94 0000 		call twiError
 7501 266e 00C0      		rjmp .L607
 7502               	.L613:
 7503               	.LBB524:
 7504               	.LBB525:
 7505               	.LM1153:
 7506 2670 84E9      		ldi r24,lo8(-108)
 7507 2672 8093 BC00 		sts 188,r24
 7508 2676 20E0      		ldi r18,lo8(0)
 7509 2678 30E0      		ldi r19,hi8(0)
 7510 267a 00C0      		rjmp .L614
 7511               	.L607:
 7512               	.LBE525:
 7513               	.LBE524:
 7514               	.LM1154:
 7515 267c 1092 BC00 		sts 188,__zero_reg__
 7516 2680 2FEF      		ldi r18,lo8(-1)
 7517 2682 3FEF      		ldi r19,hi8(-1)
 7518               	.L614:
 7519               	.LM1155:
 7520 2684 C901      		movw r24,r18
 7521               	/* epilogue start */
 7522 2686 1F91      		pop r17
 7523               	.LVL333:
 7524 2688 0F91      		pop r16
 7525               	.LVL334:
 7526 268a FF90      		pop r15
 7527               	.LVL335:
 7528 268c 0895      		ret
 7529               	.LFE20:
 7531               	.global	set_time
 7533               	set_time:
 7534               	.LFB42:
 7535               	.LM1156:
 7536 268e 9F92      		push r9
 7537 2690 AF92      		push r10
 7538 2692 BF92      		push r11
 7539 2694 CF92      		push r12
 7540 2696 DF92      		push r13
 7541 2698 EF92      		push r14
 7542 269a FF92      		push r15
 7543 269c 0F93      		push r16
 7544 269e 1F93      		push r17
 7545 26a0 DF93      		push r29
 7546 26a2 CF93      		push r28
 7547 26a4 00D0      		rcall .
 7548 26a6 0F92      		push __tmp_reg__
 7549 26a8 CDB7      		in r28,__SP_L__
 7550 26aa DEB7      		in r29,__SP_H__
 7551               	/* prologue: function */
 7552               	/* frame size = 3 */
 7553               	.LM1157:
 7554 26ac F090 0000 		lds r15,time_h
 7555               	.LVL336:
 7556               	.LM1158:
 7557 26b0 0091 0000 		lds r16,time_m
 7558               	.LVL337:
 7559               	.LM1159:
 7560 26b4 E090 0000 		lds r14,time_s
 7561               	.LVL338:
 7562               	.LM1160:
 7563 26b8 8AE0      		ldi r24,lo8(10)
 7564 26ba 8093 0000 		sts timeoutcounter,r24
 7565 26be 10E0      		ldi r17,lo8(0)
 7566               	.LVL339:
 7567               	.LM1161:
 7568 26c0 7AE0      		ldi r23,lo8(10)
 7569 26c2 972E      		mov r9,r23
 7570               	.LBB526:
 7571               	.LBB527:
 7572               	.LM1162:
 7573 26c4 65E0      		ldi r22,lo8(5)
 7574 26c6 A62E      		mov r10,r22
 7575 26c8 B12C      		mov r11,__zero_reg__
 7576               	.LBE527:
 7577               	.LBE526:
 7578               	.LBB529:
 7579               	.LBB530:
 7580 26ca 54E0      		ldi r21,lo8(4)
 7581 26cc C52E      		mov r12,r21
 7582 26ce D12C      		mov r13,__zero_reg__
 7583               	.L646:
 7584               	.LBE530:
 7585               	.LBE529:
 7586               	.LM1163:
 7587 26d0 8091 0000 		lds r24,just_pressed
 7588 26d4 80FD      		sbrc r24,0
 7589 26d6 00C0      		rjmp .L639
 7590               	.LM1164:
 7591 26d8 8091 0000 		lds r24,just_pressed
 7592 26dc 8823      		tst r24
 7593 26de 01F4      		brne .L623
 7594 26e0 8091 0000 		lds r24,pressed
 7595 26e4 8823      		tst r24
 7596 26e6 01F0      		breq .L624
 7597               	.L623:
 7598               	.LM1165:
 7599 26e8 9092 0000 		sts timeoutcounter,r9
 7600 26ec 00C0      		rjmp .L625
 7601               	.L624:
 7602               	.LM1166:
 7603 26ee 8091 0000 		lds r24,timeoutcounter
 7604 26f2 8823      		tst r24
 7605 26f4 01F4      		brne .+2
 7606 26f6 00C0      		rjmp .L647
 7607               	.L625:
 7608               	.LM1167:
 7609 26f8 8091 0000 		lds r24,just_pressed
 7610 26fc 81FF      		sbrs r24,1
 7611 26fe 00C0      		rjmp .L626
 7612               	.LM1168:
 7613 2700 1092 0000 		sts just_pressed,__zero_reg__
 7614               	.LM1169:
 7615 2704 1123      		tst r17
 7616 2706 01F4      		brne .L627
 7617               	.LM1170:
 7618 2708 F090 0000 		lds r15,time_h
 7619               	.LM1171:
 7620 270c 0091 0000 		lds r16,time_m
 7621               	.LM1172:
 7622 2710 E090 0000 		lds r14,time_s
 7623               	.LM1173:
 7624 2714 8F2D      		mov r24,r15
 7625 2716 602F      		mov r22,r16
 7626 2718 4E2D      		mov r20,r14
 7627 271a 0E94 0000 		call display_time
 7628               	.LM1174:
 7629 271e 8091 0000 		lds r24,display+1
 7630 2722 8160      		ori r24,lo8(1)
 7631 2724 8093 0000 		sts display+1,r24
 7632               	.LM1175:
 7633 2728 8091 0000 		lds r24,display+2
 7634 272c 8160      		ori r24,lo8(1)
 7635 272e 8093 0000 		sts display+2,r24
 7636 2732 11E0      		ldi r17,lo8(1)
 7637 2734 00C0      		rjmp .L626
 7638               	.L627:
 7639               	.LM1176:
 7640 2736 1130      		cpi r17,lo8(1)
 7641 2738 01F4      		brne .L628
 7642               	.LM1177:
 7643 273a 8F2D      		mov r24,r15
 7644 273c 602F      		mov r22,r16
 7645 273e 4E2D      		mov r20,r14
 7646 2740 0E94 0000 		call display_time
 7647               	.LM1178:
 7648 2744 8091 0000 		lds r24,display+4
 7649 2748 8160      		ori r24,lo8(1)
 7650 274a 8093 0000 		sts display+4,r24
 7651               	.LM1179:
 7652 274e 8091 0000 		lds r24,display+5
 7653 2752 8160      		ori r24,lo8(1)
 7654 2754 8093 0000 		sts display+5,r24
 7655 2758 12E0      		ldi r17,lo8(2)
 7656 275a 00C0      		rjmp .L626
 7657               	.L628:
 7658               	.LM1180:
 7659 275c 1230      		cpi r17,lo8(2)
 7660 275e 01F0      		breq .L629
 7661 2760 10E0      		ldi r17,lo8(0)
 7662               	.LVL340:
 7663 2762 00C0      		rjmp .L630
 7664               	.LVL341:
 7665               	.L629:
 7666               	.LM1181:
 7667 2764 8F2D      		mov r24,r15
 7668 2766 602F      		mov r22,r16
 7669 2768 4E2D      		mov r20,r14
 7670 276a 0E94 0000 		call display_time
 7671               	.LM1182:
 7672 276e 8091 0000 		lds r24,display+7
 7673 2772 8160      		ori r24,lo8(1)
 7674 2774 8093 0000 		sts display+7,r24
 7675               	.LM1183:
 7676 2778 8091 0000 		lds r24,display+8
 7677 277c 8160      		ori r24,lo8(1)
 7678 277e 8093 0000 		sts display+8,r24
 7679 2782 13E0      		ldi r17,lo8(3)
 7680 2784 00C0      		rjmp .L626
 7681               	.LVL342:
 7682               	.L630:
 7683 2786 612F      		mov r22,r17
 7684 2788 695F      		subi r22,lo8(-(7))
 7685               	.LBB532:
 7686               	.LM1184:
 7687 278a 1F5F      		subi r17,lo8(-(1))
 7688 278c 80ED      		ldi r24,lo8(-48)
 7689 278e 412F      		mov r20,r17
 7690 2790 0E94 0000 		call twiWriteReg
 7691               	.LM1185:
 7692 2794 1730      		cpi r17,lo8(7)
 7693 2796 01F4      		brne .L630
 7694               	.LM1186:
 7695 2798 F092 0000 		sts time_h,r15
 7696               	.LM1187:
 7697 279c 0093 0000 		sts time_m,r16
 7698               	.LM1188:
 7699 27a0 E092 0000 		sts time_s,r14
 7700               	.LM1189:
 7701 27a4 1092 B200 		sts 178,__zero_reg__
 7702               	.LM1190:
 7703 27a8 802F      		mov r24,r16
 7704 27aa 0E94 0000 		call b2bcd
 7705 27ae 8A83      		std Y+2,r24
 7706               	.LM1191:
 7707 27b0 8F2D      		mov r24,r15
 7708 27b2 0E94 0000 		call b2bcd
 7709 27b6 8B83      		std Y+3,r24
 7710               	.LM1192:
 7711 27b8 80ED      		ldi r24,lo8(-48)
 7712 27ba 60E0      		ldi r22,lo8(0)
 7713 27bc 43E0      		ldi r20,lo8(3)
 7714 27be 9E01      		movw r18,r28
 7715 27c0 2F5F      		subi r18,lo8(-(1))
 7716 27c2 3F4F      		sbci r19,hi8(-(1))
 7717 27c4 0E94 0000 		call twiWriteRegN
 7718               	.LM1193:
 7719 27c8 80E0      		ldi r24,lo8(__c.2500)
 7720 27ca 90E0      		ldi r25,hi8(__c.2500)
 7721 27cc 61E0      		ldi r22,lo8(1)
 7722 27ce 0E94 0000 		call ROM_putstring
 7723               	.LVL343:
 7724               	.L647:
 7725               	.LM1194:
 7726 27d2 1092 0000 		sts displaymode,__zero_reg__
 7727 27d6 00C0      		rjmp .L639
 7728               	.LVL344:
 7729               	.L626:
 7730               	.LBE532:
 7731               	.LM1195:
 7732 27d8 8091 0000 		lds r24,just_pressed
 7733 27dc 82FD      		sbrc r24,2
 7734 27de 00C0      		rjmp .L631
 7735 27e0 8091 0000 		lds r24,pressed
 7736 27e4 82FF      		sbrs r24,2
 7737 27e6 00C0      		rjmp .L646
 7738               	.L631:
 7739               	.LM1196:
 7740 27e8 1092 0000 		sts just_pressed,__zero_reg__
 7741               	.LM1197:
 7742 27ec 1130      		cpi r17,lo8(1)
 7743 27ee 01F4      		brne .L633
 7744               	.LM1198:
 7745 27f0 8F2D      		mov r24,r15
 7746 27f2 90E0      		ldi r25,lo8(0)
 7747               	.LVL345:
 7748 27f4 0196      		adiw r24,1
 7749 27f6 68E1      		ldi r22,lo8(24)
 7750 27f8 70E0      		ldi r23,hi8(24)
 7751 27fa 0E94 0000 		call __divmodhi4
 7752 27fe F82E      		mov r15,r24
 7753               	.LM1199:
 7754 2800 602F      		mov r22,r16
 7755 2802 4E2D      		mov r20,r14
 7756 2804 0E94 0000 		call display_time
 7757               	.LVL346:
 7758               	.LM1200:
 7759 2808 8091 0000 		lds r24,display+1
 7760 280c 8160      		ori r24,lo8(1)
 7761 280e 8093 0000 		sts display+1,r24
 7762               	.LM1201:
 7763 2812 8091 0000 		lds r24,display+2
 7764 2816 8160      		ori r24,lo8(1)
 7765 2818 8093 0000 		sts display+2,r24
 7766               	.LM1202:
 7767 281c F092 0000 		sts time_h,r15
 7768               	.LM1203:
 7769 2820 8091 0000 		lds r24,time_h
 7770               	.L634:
 7771               	.LBB533:
 7772               	.LBB531:
 7773               	.LM1204:
 7774 2824 F999      		sbic 63-32,1
 7775 2826 00C0      		rjmp .L634
 7776               	.LM1205:
 7777 2828 1FBA      		out 63-32,__zero_reg__
 7778               	.LM1206:
 7779 282a D2BC      		out (65)+1-32,r13
 7780 282c C1BC      		out 65-32,r12
 7781               	.LM1207:
 7782 282e 80BD      		out 64-32,r24
 7783               	.LM1208:
 7784               	/* #APP */
 7785               	 ;  324 "/Applications/Arduino.app/Contents/Resources/Java/hardware/tools/avr/bin/../lib/gcc/avr/4.
 7786               		/* START EEPROM WRITE CRITICAL SECTION */
 7787 2830 0FB6      		in	r0, 63		
 7788 2832 F894      		cli				
 7789 2834 FA9A      		sbi	31, 2	
 7790 2836 F99A      		sbi	31, 1	
 7791 2838 0FBE      		out	63, r0		
 7792               		/* END EEPROM WRITE CRITICAL SECTION */
 7793               	 ;  0 "" 2
 7794               	/* #NOAPP */
 7795 283a 00C0      		rjmp .L635
 7796               	.L633:
 7797               	.LBE531:
 7798               	.LBE533:
 7799               	.LM1209:
 7800 283c 1230      		cpi r17,lo8(2)
 7801 283e 01F4      		brne .L636
 7802               	.LM1210:
 7803 2840 802F      		mov r24,r16
 7804 2842 90E0      		ldi r25,lo8(0)
 7805               	.LVL347:
 7806 2844 0196      		adiw r24,1
 7807 2846 6CE3      		ldi r22,lo8(60)
 7808 2848 70E0      		ldi r23,hi8(60)
 7809 284a 0E94 0000 		call __divmodhi4
 7810 284e 082F      		mov r16,r24
 7811               	.LM1211:
 7812 2850 8F2D      		mov r24,r15
 7813 2852 602F      		mov r22,r16
 7814 2854 4E2D      		mov r20,r14
 7815 2856 0E94 0000 		call display_time
 7816               	.LVL348:
 7817               	.LM1212:
 7818 285a 8091 0000 		lds r24,display+4
 7819 285e 8160      		ori r24,lo8(1)
 7820 2860 8093 0000 		sts display+4,r24
 7821               	.LM1213:
 7822 2864 8091 0000 		lds r24,display+5
 7823 2868 8160      		ori r24,lo8(1)
 7824 286a 8093 0000 		sts display+5,r24
 7825               	.LM1214:
 7826 286e 8091 0000 		lds r24,time_m
 7827               	.L637:
 7828               	.LBB534:
 7829               	.LBB528:
 7830               	.LM1215:
 7831 2872 F999      		sbic 63-32,1
 7832 2874 00C0      		rjmp .L637
 7833               	.LM1216:
 7834 2876 1FBA      		out 63-32,__zero_reg__
 7835               	.LM1217:
 7836 2878 B2BC      		out (65)+1-32,r11
 7837 287a A1BC      		out 65-32,r10
 7838               	.LM1218:
 7839 287c 80BD      		out 64-32,r24
 7840               	.LM1219:
 7841               	/* #APP */
 7842               	 ;  324 "/Applications/Arduino.app/Contents/Resources/Java/hardware/tools/avr/bin/../lib/gcc/avr/4.
 7843               		/* START EEPROM WRITE CRITICAL SECTION */
 7844 287e 0FB6      		in	r0, 63		
 7845 2880 F894      		cli				
 7846 2882 FA9A      		sbi	31, 2	
 7847 2884 F99A      		sbi	31, 1	
 7848 2886 0FBE      		out	63, r0		
 7849               		/* END EEPROM WRITE CRITICAL SECTION */
 7850               	 ;  0 "" 2
 7851               	/* #NOAPP */
 7852               	.LBE528:
 7853               	.LBE534:
 7854               	.LM1220:
 7855 2888 0093 0000 		sts time_m,r16
 7856 288c 00C0      		rjmp .L635
 7857               	.L636:
 7858               	.LM1221:
 7859 288e 1330      		cpi r17,lo8(3)
 7860 2890 01F4      		brne .L635
 7861               	.LM1222:
 7862 2892 8E2D      		mov r24,r14
 7863 2894 90E0      		ldi r25,lo8(0)
 7864               	.LVL349:
 7865 2896 0196      		adiw r24,1
 7866 2898 6CE3      		ldi r22,lo8(60)
 7867 289a 70E0      		ldi r23,hi8(60)
 7868 289c 0E94 0000 		call __divmodhi4
 7869 28a0 E82E      		mov r14,r24
 7870               	.LM1223:
 7871 28a2 8F2D      		mov r24,r15
 7872 28a4 602F      		mov r22,r16
 7873 28a6 4E2D      		mov r20,r14
 7874 28a8 0E94 0000 		call display_time
 7875               	.LVL350:
 7876               	.LM1224:
 7877 28ac 8091 0000 		lds r24,display+7
 7878 28b0 8160      		ori r24,lo8(1)
 7879 28b2 8093 0000 		sts display+7,r24
 7880               	.LM1225:
 7881 28b6 8091 0000 		lds r24,display+8
 7882 28ba 8160      		ori r24,lo8(1)
 7883 28bc 8093 0000 		sts display+8,r24
 7884               	.LM1226:
 7885 28c0 E092 0000 		sts time_s,r14
 7886               	.L635:
 7887               	.LM1227:
 7888 28c4 8091 0000 		lds r24,pressed
 7889 28c8 82FF      		sbrs r24,2
 7890 28ca 00C0      		rjmp .L646
 7891               	.LBB535:
 7892               	.LBB536:
 7893               	.LM1228:
 7894               	/* #APP */
 7895               	 ;  140 "iv.c" 1
 7896 28cc 7894      		sei
 7897               	 ;  0 "" 2
 7898               	.LM1229:
 7899               	/* #NOAPP */
 7900 28ce 1092 0000 		sts (milliseconds)+1,__zero_reg__
 7901 28d2 1092 0000 		sts milliseconds,__zero_reg__
 7902               	.L638:
 7903               	.LM1230:
 7904 28d6 8091 0000 		lds r24,milliseconds
 7905 28da 9091 0000 		lds r25,(milliseconds)+1
 7906 28de 8B34      		cpi r24,75
 7907 28e0 9105      		cpc r25,__zero_reg__
 7908 28e2 00F0      		brlo .L638
 7909 28e4 00C0      		rjmp .L646
 7910               	.LVL351:
 7911               	.L639:
 7912               	/* epilogue start */
 7913               	.LBE536:
 7914               	.LBE535:
 7915               	.LM1231:
 7916 28e6 0F90      		pop __tmp_reg__
 7917 28e8 0F90      		pop __tmp_reg__
 7918 28ea 0F90      		pop __tmp_reg__
 7919 28ec CF91      		pop r28
 7920 28ee DF91      		pop r29
 7921 28f0 1F91      		pop r17
 7922               	.LVL352:
 7923 28f2 0F91      		pop r16
 7924               	.LVL353:
 7925 28f4 FF90      		pop r15
 7926               	.LVL354:
 7927 28f6 EF90      		pop r14
 7928               	.LVL355:
 7929 28f8 DF90      		pop r13
 7930 28fa CF90      		pop r12
 7931 28fc BF90      		pop r11
 7932 28fe AF90      		pop r10
 7933 2900 9F90      		pop r9
 7934 2902 0895      		ret
 7935               	.LFE42:
 7937               		.data
 7938               	.LC27:
 7939 00cd 0A0D 4865 		.string	"\n\rHello World!\n\r"
 7939      6C6C 6F20 
 7939      576F 726C 
 7939      6421 0A0D 
 7939      00
 7940               	.LC28:
 7941 00de 0A0D 4275 		.string	"\n\rBuffer size is:\t"
 7941      6666 6572 
 7941      2073 697A 
 7941      6520 6973 
 7941      3A09 00
 7942               	.LC29:
 7943 00f1 0A0D 00   		.string	"\n\r"
 7944               	.LC30:
 7945 00f4 7365 7420 		.string	"set alarm"
 7945      616C 6172 
 7945      6D00 
 7946               	.LC31:
 7947 00fe 7365 7420 		.string	"set time"
 7947      7469 6D65 
 7947      00
 7948               	.LC32:
 7949 0107 7365 7420 		.string	"set date"
 7949      6461 7465 
 7949      00
 7950               	.LC33:
 7951 0110 7365 7420 		.string	"set zone"
 7951      7A6F 6E65 
 7951      00
 7952               	.LC34:
 7953 0119 7365 7420 		.string	"set brit"
 7953      6272 6974 
 7953      00
 7954               	.LC35:
 7955 0122 7365 7420 		.string	"set vol "
 7955      766F 6C20 
 7955      00
 7956               	.LC36:
 7957 012b 7365 7420 		.string	"set regn"
 7957      7265 676E 
 7957      00
 7958               		.text
 7959               	.global	main
 7961               	main:
 7962               	.LFB38:
 7963               	.LM1232:
 7964 2904 9F92      		push r9
 7965 2906 AF92      		push r10
 7966 2908 BF92      		push r11
 7967 290a CF92      		push r12
 7968 290c DF92      		push r13
 7969 290e EF92      		push r14
 7970 2910 FF92      		push r15
 7971 2912 0F93      		push r16
 7972 2914 1F93      		push r17
 7973               	/* prologue: function */
 7974               	/* frame size = 0 */
 7975               	.LM1233:
 7976 2916 15BC      		out 69-32,__zero_reg__
 7977               	.LM1234:
 7978 2918 569A      		sbi 42-32,6
 7979               	.LM1235:
 7980 291a 5E98      		cbi 43-32,6
 7981               	.LM1236:
 7982 291c 84B7      		in r24,84-32
 7983               	.LVL356:
 7984               	.LM1237:
 7985 291e 14BE      		out 84-32,__zero_reg__
 7986               	.LM1238:
 7987 2920 90E0      		ldi r25,lo8(0)
 7988 2922 0E94 0000 		call uart_putw_hex
 7989               	.LVL357:
 7990               	.LM1239:
 7991 2926 88E1      		ldi r24,lo8(24)
 7992               	/* #APP */
 7993               	 ;  554 "iv.c" 1
 7994 2928 0FB6      		in __tmp_reg__, __SREG__
 7995 292a F894      		cli
 7996 292c 8093 6000 		sts 96, r24
 7997 2930 1092 6000 		sts 96, __zero_reg__
 7998 2934 0FBE      		out __SREG__,__tmp_reg__
 7999               		
 8000               	 ;  0 "" 2
 8001               	.LM1240:
 8002               	/* #NOAPP */
 8003 2936 2FE0      		ldi r18,lo8(15)
 8004 2938 88E1      		ldi r24,lo8(24)
 8005 293a 90E0      		ldi r25,hi8(24)
 8006               	/* #APP */
 8007               	 ;  558 "iv.c" 1
 8008 293c 0FB6      		in __tmp_reg__,__SREG__
 8009 293e F894      		cli
 8010 2940 A895      		wdr
 8011 2942 8093 6000 		sts 96,r24
 8012 2946 0FBE      		out __SREG__,__tmp_reg__
 8013 2948 2093 6000 		sts 96,r18
 8014               		
 8015               	 ;  0 "" 2
 8016               	/* #NOAPP */
 8017               	.LBB537:
 8018               	.LBB538:
 8019               	.LM1241:
 8020               	/* #APP */
 8021               	 ;  162 "iv.c" 1
 8022 294c A895      		wdr
 8023               	 ;  0 "" 2
 8024               	/* #NOAPP */
 8025               	.LBE538:
 8026               	.LBE537:
 8027               	.LM1242:
 8028 294e 1092 0000 		sts restored,__zero_reg__
 8029               	.LM1243:
 8030 2952 87E6      		ldi r24,lo8(103)
 8031 2954 90E0      		ldi r25,hi8(103)
 8032 2956 0E94 0000 		call uart_init
 8033               	.LM1244:
 8034 295a 80E0      		ldi r24,lo8(__c.2333)
 8035 295c 90E0      		ldi r25,hi8(__c.2333)
 8036 295e 61E0      		ldi r22,lo8(1)
 8037 2960 0E94 0000 		call ROM_putstring
 8038               	.LM1245:
 8039 2964 80E0      		ldi r24,lo8(.LC27)
 8040 2966 90E0      		ldi r25,hi8(.LC27)
 8041 2968 0E94 0000 		call uart_puts
 8042               	.LM1246:
 8043 296c 80E0      		ldi r24,lo8(.LC28)
 8044 296e 90E0      		ldi r25,hi8(.LC28)
 8045 2970 0E94 0000 		call uart_puts
 8046               	.LM1247:
 8047 2974 80E8      		ldi r24,lo8(128)
 8048 2976 90E0      		ldi r25,hi8(128)
 8049 2978 0E94 0000 		call uart_putw_dec
 8050               	.LM1248:
 8051 297c 80E0      		ldi r24,lo8(.LC29)
 8052 297e 90E0      		ldi r25,hi8(.LC29)
 8053 2980 0E94 0000 		call uart_puts
 8054               	.LBB539:
 8055               	.LBB540:
 8056               	.LM1249:
 8057 2984 8EE2      		ldi r24,lo8(46)
 8058 2986 84B9      		out 36-32,r24
 8059               	.LM1250:
 8060 2988 88E4      		ldi r24,lo8(72)
 8061 298a 8AB9      		out 42-32,r24
 8062               	.LM1251:
 8063 298c 89E0      		ldi r24,lo8(9)
 8064 298e 87B9      		out 39-32,r24
 8065               	.LM1252:
 8066 2990 84E3      		ldi r24,lo8(52)
 8067 2992 8BB9      		out 43-32,r24
 8068               	.LM1253:
 8069 2994 11E0      		ldi r17,lo8(1)
 8070 2996 15B9      		out 37-32,r17
 8071               	.LM1254:
 8072 2998 85E0      		ldi r24,lo8(5)
 8073 299a 8093 6800 		sts 104,r24
 8074               	.LM1255:
 8075 299e 1093 6B00 		sts 107,r17
 8076               	.LM1256:
 8077 29a2 80E3      		ldi r24,lo8(48)
 8078 29a4 8093 6D00 		sts 109,r24
 8079               	.LBE540:
 8080               	.LBE539:
 8081               	.LM1257:
 8082 29a8 5B98      		cbi 43-32,3
 8083               	.LM1258:
 8084 29aa 80E0      		ldi r24,lo8(__c.2335)
 8085 29ac 90E0      		ldi r25,hi8(__c.2335)
 8086 29ae 61E0      		ldi r22,lo8(1)
 8087 29b0 0E94 0000 		call ROM_putstring
 8088               	.LM1259:
 8089 29b4 80E0      		ldi r24,lo8(__c.2337)
 8090 29b6 90E0      		ldi r25,hi8(__c.2337)
 8091 29b8 61E0      		ldi r22,lo8(1)
 8092 29ba 0E94 0000 		call ROM_putstring
 8093               	.LM1260:
 8094 29be 1093 6900 		sts 105,r17
 8095               	.LM1261:
 8096 29c2 1DBB      		out 61-32,r17
 8097               	.LM1262:
 8098 29c4 1092 0000 		sts displaymode,__zero_reg__
 8099               	.LM1263:
 8100 29c8 80E0      		ldi r24,lo8(__c.2339)
 8101 29ca 90E0      		ldi r25,hi8(__c.2339)
 8102 29cc 61E0      		ldi r22,lo8(1)
 8103 29ce 0E94 0000 		call ROM_putstring
 8104               	.LBB541:
 8105               	.LBB542:
 8106               	.LM1264:
 8107 29d2 81E5      		ldi r24,lo8(81)
 8108 29d4 8CBD      		out 76-32,r24
 8109               	.LBE542:
 8110               	.LBE541:
 8111               	.LM1265:
 8112 29d6 0E94 0000 		call dimmer_init
 8113               	.LM1266:
 8114 29da 80E0      		ldi r24,lo8(__c.2341)
 8115 29dc 90E0      		ldi r25,hi8(__c.2341)
 8116 29de 61E0      		ldi r22,lo8(1)
 8117 29e0 0E94 0000 		call ROM_putstring
 8118               	.L649:
 8119               	.LBB543:
 8120               	.LBB544:
 8121               	.LM1267:
 8122 29e4 F999      		sbic 63-32,1
 8123 29e6 00C0      		rjmp .L649
 8124               	.LM1268:
 8125 29e8 89E0      		ldi r24,lo8(9)
 8126 29ea 90E0      		ldi r25,hi8(9)
 8127 29ec 92BD      		out (65)+1-32,r25
 8128 29ee 81BD      		out 65-32,r24
 8129               	.LM1269:
 8130               	/* #APP */
 8131               	 ;  208 "/Applications/Arduino.app/Contents/Resources/Java/hardware/tools/avr/bin/../lib/gcc/avr/4.
 8132               		/* START EEPROM READ CRITICAL SECTION */ 
 8133 29f0 F89A      		sbi 31, 0 
 8134 29f2 80B5      		in r24, 32 
 8135               		/* END EEPROM READ CRITICAL SECTION */ 
 8136               		
 8137               	 ;  0 "" 2
 8138               	.LVL358:
 8139               	/* #NOAPP */
 8140               	.LBE544:
 8141               	.LBE543:
 8142               	.LM1270:
 8143 29f4 8093 0000 		sts brightness_level,r24
 8144               	.LM1271:
 8145 29f8 8091 0000 		lds r24,brightness_level
 8146               	.LVL359:
 8147 29fc 0E94 0000 		call boost_init
 8148               	.LM1272:
 8149               	/* #APP */
 8150               	 ;  603 "iv.c" 1
 8151 2a00 7894      		sei
 8152               	 ;  0 "" 2
 8153               	/* #NOAPP */
 8154               	.L650:
 8155               	.LBB545:
 8156               	.LBB546:
 8157               	.LM1273:
 8158 2a02 F999      		sbic 63-32,1
 8159 2a04 00C0      		rjmp .L650
 8160               	.LM1274:
 8161 2a06 8DE0      		ldi r24,lo8(13)
 8162 2a08 90E0      		ldi r25,hi8(13)
 8163 2a0a 92BD      		out (65)+1-32,r25
 8164 2a0c 81BD      		out 65-32,r24
 8165               	.LM1275:
 8166               	/* #APP */
 8167               	 ;  208 "/Applications/Arduino.app/Contents/Resources/Java/hardware/tools/avr/bin/../lib/gcc/avr/4.
 8168               		/* START EEPROM READ CRITICAL SECTION */ 
 8169 2a0e F89A      		sbi 31, 0 
 8170 2a10 80B5      		in r24, 32 
 8171               		/* END EEPROM READ CRITICAL SECTION */ 
 8172               		
 8173               	 ;  0 "" 2
 8174               	.LVL360:
 8175               	/* #NOAPP */
 8176               	.LBE546:
 8177               	.LBE545:
 8178               	.LM1276:
 8179 2a12 8093 0000 		sts intTimeZoneHour,r24
 8180               	.LM1277:
 8181 2a16 845F      		subi r24,lo8(-(12))
 8182 2a18 8931      		cpi r24,lo8(25)
 8183 2a1a 00F0      		brlo .L671
 8184               	.LM1278:
 8185 2a1c 1092 0000 		sts intTimeZoneHour,__zero_reg__
 8186               	.L671:
 8187               	.LBB547:
 8188               	.LBB548:
 8189               	.LM1279:
 8190 2a20 F999      		sbic 63-32,1
 8191 2a22 00C0      		rjmp .L671
 8192               	.LM1280:
 8193 2a24 8EE0      		ldi r24,lo8(14)
 8194 2a26 90E0      		ldi r25,hi8(14)
 8195               	.LVL361:
 8196 2a28 92BD      		out (65)+1-32,r25
 8197 2a2a 81BD      		out 65-32,r24
 8198               	.LM1281:
 8199               	/* #APP */
 8200               	 ;  208 "/Applications/Arduino.app/Contents/Resources/Java/hardware/tools/avr/bin/../lib/gcc/avr/4.
 8201               		/* START EEPROM READ CRITICAL SECTION */ 
 8202 2a2c F89A      		sbi 31, 0 
 8203 2a2e 80B5      		in r24, 32 
 8204               		/* END EEPROM READ CRITICAL SECTION */ 
 8205               		
 8206               	 ;  0 "" 2
 8207               	.LVL362:
 8208               	/* #NOAPP */
 8209               	.LBE548:
 8210               	.LBE547:
 8211               	.LM1282:
 8212 2a30 8093 0000 		sts intTimeZoneMin,r24
 8213               	.LM1283:
 8214 2a34 8D33      		cpi r24,lo8(61)
 8215 2a36 00F0      		brlo .L670
 8216               	.LM1284:
 8217 2a38 1092 0000 		sts intTimeZoneMin,__zero_reg__
 8218               	.L670:
 8219               	.LBB549:
 8220               	.LBB550:
 8221               	.LM1285:
 8222 2a3c F999      		sbic 63-32,1
 8223 2a3e 00C0      		rjmp .L670
 8224               	.LM1286:
 8225 2a40 8BE0      		ldi r24,lo8(11)
 8226 2a42 90E0      		ldi r25,hi8(11)
 8227               	.LVL363:
 8228 2a44 92BD      		out (65)+1-32,r25
 8229 2a46 81BD      		out 65-32,r24
 8230               	.LM1287:
 8231               	/* #APP */
 8232               	 ;  208 "/Applications/Arduino.app/Contents/Resources/Java/hardware/tools/avr/bin/../lib/gcc/avr/4.
 8233               		/* START EEPROM READ CRITICAL SECTION */ 
 8234 2a48 F89A      		sbi 31, 0 
 8235 2a4a 80B5      		in r24, 32 
 8236               		/* END EEPROM READ CRITICAL SECTION */ 
 8237               		
 8238               	 ;  0 "" 2
 8239               	.LVL364:
 8240               	/* #NOAPP */
 8241               	.LBE550:
 8242               	.LBE549:
 8243               	.LM1288:
 8244 2a4c 8093 0000 		sts region,r24
 8245               	.LM1289:
 8246 2a50 80E0      		ldi r24,lo8(__c.2343)
 8247 2a52 90E0      		ldi r25,hi8(__c.2343)
 8248               	.LVL365:
 8249 2a54 61E0      		ldi r22,lo8(1)
 8250 2a56 0E94 0000 		call ROM_putstring
 8251               	.LM1290:
 8252 2a5a 0E94 0000 		call speaker_init
 8253               	.LM1291:
 8254 2a5e 80EA      		ldi r24,lo8(4000)
 8255 2a60 9FE0      		ldi r25,hi8(4000)
 8256 2a62 61E0      		ldi r22,lo8(1)
 8257 2a64 0E94 0000 		call beep
 8258               	.LM1292:
 8259 2a68 80E0      		ldi r24,lo8(__c.2345)
 8260 2a6a 90E0      		ldi r25,hi8(__c.2345)
 8261 2a6c 61E0      		ldi r22,lo8(1)
 8262 2a6e 0E94 0000 		call ROM_putstring
 8263               	.LBB551:
 8264               	.LBB552:
 8265               	.LM1293:
 8266 2a72 8091 B600 		lds r24,182
 8267 2a76 8064      		ori r24,lo8(64)
 8268 2a78 8093 B600 		sts 182,r24
 8269               	.LM1294:
 8270 2a7c 8091 B600 		lds r24,182
 8271 2a80 8062      		ori r24,lo8(32)
 8272 2a82 8093 B600 		sts 182,r24
 8273               	.LM1295:
 8274 2a86 1092 B000 		sts 176,__zero_reg__
 8275               	.LM1296:
 8276 2a8a 85E0      		ldi r24,lo8(5)
 8277 2a8c 8093 B100 		sts 177,r24
 8278               	.LM1297:
 8279 2a90 80E8      		ldi r24,lo8(-128)
 8280 2a92 8093 6100 		sts 97,r24
 8281               	.LM1298:
 8282 2a96 1092 6100 		sts 97,__zero_reg__
 8283               	.LM1299:
 8284 2a9a 81E0      		ldi r24,lo8(1)
 8285 2a9c 8093 7000 		sts 112,r24
 8286               	.LBE552:
 8287               	.LBE551:
 8288               	.LM1300:
 8289 2aa0 0E94 0000 		call clock_init
 8290               	.LM1301:
 8291               	/* #APP */
 8292               	 ;  625 "iv.c" 1
 8293 2aa4 7894      		sei
 8294               	 ;  0 "" 2
 8295               	.LM1302:
 8296               	/* #NOAPP */
 8297 2aa6 80E0      		ldi r24,lo8(__c.2347)
 8298 2aa8 90E0      		ldi r25,hi8(__c.2347)
 8299 2aaa 61E0      		ldi r22,lo8(1)
 8300 2aac 0E94 0000 		call ROM_putstring
 8301               	.LM1303:
 8302 2ab0 0E94 0000 		call alarm_init
 8303               	.LM1304:
 8304 2ab4 80E0      		ldi r24,lo8(__c.2349)
 8305 2ab6 90E0      		ldi r25,hi8(__c.2349)
 8306 2ab8 61E0      		ldi r22,lo8(1)
 8307 2aba 0E94 0000 		call ROM_putstring
 8308               	.LBB553:
 8309               	.LM1305:
 8310 2abe 83E6      		ldi r24,lo8(99)
 8311 2ac0 982E      		mov r9,r24
 8312               	.LM1306:
 8313 2ac2 0BE0      		ldi r16,lo8(11)
 8314 2ac4 B02E      		mov r11,r16
 8315               	.LM1307:
 8316 2ac6 18E0      		ldi r17,lo8(8)
 8317 2ac8 A12E      		mov r10,r17
 8318               	.LM1308:
 8319 2aca B7E0      		ldi r27,lo8(7)
 8320 2acc CB2E      		mov r12,r27
 8321               	.LM1309:
 8322 2ace A6E0      		ldi r26,lo8(6)
 8323 2ad0 DA2E      		mov r13,r26
 8324               	.LM1310:
 8325 2ad2 F5E0      		ldi r31,lo8(5)
 8326 2ad4 EF2E      		mov r14,r31
 8327               	.LM1311:
 8328 2ad6 E3E0      		ldi r30,lo8(3)
 8329 2ad8 FE2E      		mov r15,r30
 8330               	.LM1312:
 8331 2ada 04E0      		ldi r16,lo8(4)
 8332               	.L678:
 8333               	.LBB554:
 8334               	.LBB555:
 8335               	.LM1313:
 8336               	/* #APP */
 8337               	 ;  162 "iv.c" 1
 8338 2adc A895      		wdr
 8339               	 ;  0 "" 2
 8340               	/* #NOAPP */
 8341               	.LBE555:
 8342               	.LBE554:
 8343               	.LM1314:
 8344 2ade 00B6      		in __tmp_reg__,80-32
 8345 2ae0 05FE      		sbrs __tmp_reg__,5
 8346 2ae2 00C0      		rjmp .L653
 8347               	.LM1315:
 8348 2ae4 0E94 0000 		call gotosleep
 8349 2ae8 00C0      		rjmp .L678
 8350               	.L653:
 8351               	.LM1316:
 8352 2aea 8091 0000 		lds r24,just_pressed
 8353 2aee 80FF      		sbrs r24,0
 8354 2af0 00C0      		rjmp .L655
 8355               	.LM1317:
 8356 2af2 1092 0000 		sts just_pressed,__zero_reg__
 8357               	.LM1318:
 8358 2af6 8091 0000 		lds r24,displaymode
 8359 2afa 8530      		cpi r24,lo8(5)
 8360 2afc 01F0      		breq .L660
 8361 2afe 8630      		cpi r24,lo8(6)
 8362 2b00 00F4      		brsh .L664
 8363 2b02 8330      		cpi r24,lo8(3)
 8364 2b04 01F0      		breq .L658
 8365 2b06 8430      		cpi r24,lo8(4)
 8366 2b08 00F4      		brsh .L659
 8367 2b0a 8823      		tst r24
 8368 2b0c 01F0      		breq .L657
 8369 2b0e 00C0      		rjmp .L679
 8370               	.L664:
 8371 2b10 8730      		cpi r24,lo8(7)
 8372 2b12 01F0      		breq .L662
 8373 2b14 8730      		cpi r24,lo8(7)
 8374 2b16 00F0      		brlo .L661
 8375 2b18 8B30      		cpi r24,lo8(11)
 8376 2b1a 01F0      		breq .+2
 8377 2b1c 00C0      		rjmp .L679
 8378 2b1e 00C0      		rjmp .L680
 8379               	.L657:
 8380               	.LM1319:
 8381 2b20 0093 0000 		sts displaymode,r16
 8382               	.LM1320:
 8383 2b24 80E0      		ldi r24,lo8(.LC30)
 8384 2b26 90E0      		ldi r25,hi8(.LC30)
 8385 2b28 0E94 0000 		call display_str
 8386               	.LM1321:
 8387 2b2c 0E94 0000 		call set_alarm
 8388 2b30 00C0      		rjmp .L665
 8389               	.L659:
 8390               	.LM1322:
 8391 2b32 F092 0000 		sts displaymode,r15
 8392               	.LM1323:
 8393 2b36 80E0      		ldi r24,lo8(.LC31)
 8394 2b38 90E0      		ldi r25,hi8(.LC31)
 8395 2b3a 0E94 0000 		call display_str
 8396               	.LM1324:
 8397 2b3e 0E94 0000 		call set_time
 8398 2b42 00C0      		rjmp .L665
 8399               	.L658:
 8400               	.LM1325:
 8401 2b44 E092 0000 		sts displaymode,r14
 8402               	.LM1326:
 8403 2b48 80E0      		ldi r24,lo8(.LC32)
 8404 2b4a 90E0      		ldi r25,hi8(.LC32)
 8405 2b4c 0E94 0000 		call display_str
 8406               	.LM1327:
 8407 2b50 0E94 0000 		call set_date
 8408 2b54 00C0      		rjmp .L665
 8409               	.L660:
 8410               	.LM1328:
 8411 2b56 B092 0000 		sts displaymode,r11
 8412               	.LM1329:
 8413 2b5a 80E0      		ldi r24,lo8(.LC33)
 8414 2b5c 90E0      		ldi r25,hi8(.LC33)
 8415 2b5e 0E94 0000 		call display_str
 8416               	.LM1330:
 8417 2b62 0E94 0000 		call set_timezone
 8418 2b66 00C0      		rjmp .L665
 8419               	.L680:
 8420               	.LM1331:
 8421 2b68 D092 0000 		sts displaymode,r13
 8422               	.LM1332:
 8423 2b6c 80E0      		ldi r24,lo8(.LC34)
 8424 2b6e 90E0      		ldi r25,hi8(.LC34)
 8425 2b70 0E94 0000 		call display_str
 8426               	.LM1333:
 8427 2b74 0E94 0000 		call set_brightness
 8428 2b78 00C0      		rjmp .L665
 8429               	.L661:
 8430               	.LM1334:
 8431 2b7a C092 0000 		sts displaymode,r12
 8432               	.LM1335:
 8433 2b7e 80E0      		ldi r24,lo8(.LC35)
 8434 2b80 90E0      		ldi r25,hi8(.LC35)
 8435 2b82 0E94 0000 		call display_str
 8436               	.LM1336:
 8437 2b86 0E94 0000 		call set_volume
 8438 2b8a 00C0      		rjmp .L665
 8439               	.L662:
 8440               	.LM1337:
 8441 2b8c A092 0000 		sts displaymode,r10
 8442               	.LM1338:
 8443 2b90 80E0      		ldi r24,lo8(.LC36)
 8444 2b92 90E0      		ldi r25,hi8(.LC36)
 8445 2b94 0E94 0000 		call display_str
 8446               	.LM1339:
 8447 2b98 0E94 0000 		call set_region
 8448 2b9c 00C0      		rjmp .L665
 8449               	.L655:
 8450               	.LM1340:
 8451 2b9e 8091 0000 		lds r24,just_pressed
 8452 2ba2 81FD      		sbrc r24,1
 8453 2ba4 00C0      		rjmp .L666
 8454 2ba6 8091 0000 		lds r24,just_pressed
 8455 2baa 82FF      		sbrs r24,2
 8456 2bac 00C0      		rjmp .L665
 8457               	.L666:
 8458               	.LM1341:
 8459 2bae 1092 0000 		sts just_pressed,__zero_reg__
 8460               	.LM1342:
 8461 2bb2 9092 0000 		sts displaymode,r9
 8462               	.LM1343:
 8463 2bb6 81E0      		ldi r24,lo8(1)
 8464 2bb8 0E94 0000 		call display_date
 8465               	.LBB556:
 8466               	.LBB557:
 8467               	.LM1344:
 8468               	/* #APP */
 8469               	 ;  162 "iv.c" 1
 8470 2bbc A895      		wdr
 8471               	 ;  0 "" 2
 8472               	/* #NOAPP */
 8473               	.LBE557:
 8474               	.LBE556:
 8475               	.LBB558:
 8476               	.LBB559:
 8477               	.LM1345:
 8478               	/* #APP */
 8479               	 ;  140 "iv.c" 1
 8480 2bbe 7894      		sei
 8481               	 ;  0 "" 2
 8482               	.LM1346:
 8483               	/* #NOAPP */
 8484 2bc0 1092 0000 		sts (milliseconds)+1,__zero_reg__
 8485 2bc4 1092 0000 		sts milliseconds,__zero_reg__
 8486               	.L667:
 8487               	.LM1347:
 8488 2bc8 8091 0000 		lds r24,milliseconds
 8489 2bcc 9091 0000 		lds r25,(milliseconds)+1
 8490 2bd0 8C5D      		subi r24,lo8(1500)
 8491 2bd2 9540      		sbci r25,hi8(1500)
 8492 2bd4 00F0      		brlo .L667
 8493               	.LBE559:
 8494               	.LBE558:
 8495               	.LBB560:
 8496               	.LBB561:
 8497               	.LM1348:
 8498               	/* #APP */
 8499               	 ;  162 "iv.c" 1
 8500 2bd6 A895      		wdr
 8501               	 ;  0 "" 2
 8502               	/* #NOAPP */
 8503               	.L679:
 8504               	.LBE561:
 8505               	.LBE560:
 8506               	.LM1349:
 8507 2bd8 1092 0000 		sts displaymode,__zero_reg__
 8508               	.L665:
 8509               	.LM1350:
 8510 2bdc 2091 0000 		lds r18,time_h
 8511 2be0 8091 0000 		lds r24,flags
 8512 2be4 90E0      		ldi r25,lo8(0)
 8513 2be6 8170      		andi r24,lo8(1)
 8514 2be8 9070      		andi r25,hi8(1)
 8515 2bea 3327      		clr r19
 8516 2bec 27FD      		sbrc r18,7
 8517 2bee 3095      		com r19
 8518 2bf0 820F      		add r24,r18
 8519 2bf2 931F      		adc r25,r19
 8520 2bf4 68E1      		ldi r22,lo8(24)
 8521 2bf6 70E0      		ldi r23,hi8(24)
 8522 2bf8 0E94 0000 		call __divmodhi4
 8523 2bfc 182F      		mov r17,r24
 8524               	.LM1351:
 8525 2bfe 6091 0000 		lds r22,time_m
 8526 2c02 4091 0000 		lds r20,time_s
 8527 2c06 0E94 0000 		call display_time
 8528               	.LM1352:
 8529 2c0a 1230      		cpi r17,lo8(2)
 8530 2c0c 01F0      		breq .+2
 8531 2c0e 00C0      		rjmp .L678
 8532 2c10 8091 0000 		lds r24,time_m
 8533 2c14 8E31      		cpi r24,lo8(30)
 8534 2c16 01F0      		breq .+2
 8535 2c18 00C0      		rjmp .L678
 8536 2c1a 8091 0000 		lds r24,time_s
 8537 2c1e 8823      		tst r24
 8538 2c20 01F0      		breq .+2
 8539 2c22 00C0      		rjmp .L678
 8540               	.LM1353:
 8541 2c24 0E94 0000 		call clock_init
 8542 2c28 00C0      		rjmp .L678
 8543               	.LBE553:
 8544               	.LFE38:
 8546               	.global	app_start
 8547               	.global	app_start
 8548               		.section .bss
 8551               	app_start:
 8552 0000 0000      		.skip 2,0
 8553               	.global	alphatable
 8554               		.section	.progmem.data,"a",@progbits
 8557               	alphatable:
 8558 0000 FA        		.byte	-6
 8559 0001 3E        		.byte	62
 8560 0002 1A        		.byte	26
 8561 0003 7A        		.byte	122
 8562 0004 DE        		.byte	-34
 8563 0005 8E        		.byte	-114
 8564 0006 F6        		.byte	-10
 8565 0007 2E        		.byte	46
 8566 0008 60        		.byte	96
 8567 0009 78        		.byte	120
 8568 000a AE        		.byte	-82
 8569 000b 1C        		.byte	28
 8570 000c AA        		.byte	-86
 8571 000d 2A        		.byte	42
 8572 000e 3A        		.byte	58
 8573 000f CE        		.byte	-50
 8574 0010 F3        		.byte	-13
 8575 0011 0A        		.byte	10
 8576 0012 B6        		.byte	-74
 8577 0013 1E        		.byte	30
 8578 0014 38        		.byte	56
 8579 0015 38        		.byte	56
 8580 0016 B8        		.byte	-72
 8581 0017 6E        		.byte	110
 8582 0018 76        		.byte	118
 8583 0019 DA        		.byte	-38
 8584               	.global	alphatable_p
 8587               	alphatable_p:
 8588 001a 0000      		.word	alphatable
 8589               	.global	numbertable
 8592               	numbertable:
 8593 001c FC        		.byte	-4
 8594 001d 60        		.byte	96
 8595 001e DA        		.byte	-38
 8596 001f F2        		.byte	-14
 8597 0020 66        		.byte	102
 8598 0021 B6        		.byte	-74
 8599 0022 BE        		.byte	-66
 8600 0023 E0        		.byte	-32
 8601 0024 FE        		.byte	-2
 8602 0025 F6        		.byte	-10
 8603               	.global	numbertable_p
 8606               	numbertable_p:
 8607 0026 0000      		.word	numbertable
 8608               	.global	twi_fmt
 8611               	twi_fmt:
 8612 0028 7477 6920 		.string	"twi %02x:%02x\r\n"
 8612      2530 3278 
 8612      3A25 3032 
 8612      780D 0A00 
 8613               	.global	region
 8614               	.global	region
 8615               		.section .bss
 8618               	region:
 8619 0002 00        		.skip 1,0
 8620               	.global	sleepmode
 8621               	.global	sleepmode
 8624               	sleepmode:
 8625 0003 00        		.skip 1,0
 8626               	.global	restored
 8627               	.global	restored
 8630               	restored:
 8631 0004 00        		.skip 1,0
 8632               	.global	intBufferStatus
 8633               	.global	intBufferStatus
 8636               	intBufferStatus:
 8637 0005 00        		.skip 1,0
 8638               	.global	intTimeZoneHour
 8639               		.data
 8642               	intTimeZoneHour:
 8643 0134 FA        		.byte	-6
 8644               	.global	intTimeZoneMin
 8645               	.global	intTimeZoneMin
 8646               		.section .bss
 8649               	intTimeZoneMin:
 8650 0006 00        		.skip 1,0
 8651               	.global	secondDisp
 8652               	.global	secondDisp
 8655               	secondDisp:
 8656 0007 00        		.skip 1,0
 8657               	.global	currdigit
 8658               	.global	currdigit
 8661               	currdigit:
 8662 0008 00        		.skip 1,0
 8663               	.global	digittable
 8664               		.section	.progmem.data
 8667               	digittable:
 8668 0038 03        		.byte	3
 8669 0039 07        		.byte	7
 8670 003a 08        		.byte	8
 8671 003b 09        		.byte	9
 8672 003c 06        		.byte	6
 8673 003d 0A        		.byte	10
 8674 003e 05        		.byte	5
 8675 003f 0C        		.byte	12
 8676 0040 04        		.byte	4
 8677               	.global	digittable_p
 8680               	digittable_p:
 8681 0041 0000      		.word	digittable
 8682               	.global	segmenttable
 8685               	segmenttable:
 8686 0043 0B        		.byte	11
 8687 0044 10        		.byte	16
 8688 0045 12        		.byte	18
 8689 0046 0F        		.byte	15
 8690 0047 0D        		.byte	13
 8691 0048 0E        		.byte	14
 8692 0049 11        		.byte	17
 8693 004a 13        		.byte	19
 8694               	.global	segmenttable_p
 8697               	segmenttable_p:
 8698 004b 0000      		.word	segmenttable
 8699               	.global	muxdiv
 8700               	.global	muxdiv
 8701               		.section .bss
 8704               	muxdiv:
 8705 0009 0000      		.skip 2,0
 8706               	.global	alarmdiv
 8707               	.global	alarmdiv
 8710               	alarmdiv:
 8711 000b 0000      		.skip 2,0
 8712               	.global	snoozetimer
 8713               	.global	snoozetimer
 8716               	snoozetimer:
 8717 000d 0000      		.skip 2,0
 8718               	.global	milliseconds
 8719               	.global	milliseconds
 8722               	milliseconds:
 8723 000f 0000      		.skip 2,0
 8724               	.global	last_buttonstate
 8725               	.global	last_buttonstate
 8728               	last_buttonstate:
 8729 0011 00        		.skip 1,0
 8730               	.global	just_pressed
 8731               	.global	just_pressed
 8734               	just_pressed:
 8735 0012 00        		.skip 1,0
 8736               	.global	pressed
 8737               	.global	pressed
 8740               	pressed:
 8741 0013 00        		.skip 1,0
 8742               	.global	buttonholdcounter
 8743               	.global	buttonholdcounter
 8746               	buttonholdcounter:
 8747 0014 00        		.skip 1,0
 8748               	.global	timeoutcounter
 8749               	.global	timeoutcounter
 8752               	timeoutcounter:
 8753 0015 00        		.skip 1,0
 8754               	.global	dow_tbl
 8755               		.section	.progmem.data
 8758               	dow_tbl:
 8759 004d 00        		.byte	0
 8760 004e 03        		.byte	3
 8761 004f 02        		.byte	2
 8762 0050 05        		.byte	5
 8763 0051 00        		.byte	0
 8764 0052 03        		.byte	3
 8765 0053 05        		.byte	5
 8766 0054 01        		.byte	1
 8767 0055 04        		.byte	4
 8768 0056 06        		.byte	6
 8769 0057 02        		.byte	2
 8770 0058 04        		.byte	4
 8771               	.global	mon_tbl
 8774               	mon_tbl:
 8775 0059 1F        		.byte	31
 8776 005a 1C        		.byte	28
 8777 005b 1F        		.byte	31
 8778 005c 1E        		.byte	30
 8779 005d 1F        		.byte	31
 8780 005e 1E        		.byte	30
 8781 005f 1F        		.byte	31
 8782 0060 1F        		.byte	31
 8783 0061 1E        		.byte	30
 8784 0062 1F        		.byte	31
 8785 0063 1E        		.byte	30
 8786 0064 1F        		.byte	31
 8787               	.global	mon_tbl_p
 8790               	mon_tbl_p:
 8791 0065 0000      		.word	mon_tbl
 8794               	__c.3534:
 8795 0067 616C 6172 		.string	"alarm on!"
 8795      6D20 6F6E 
 8795      2100 
 8798               	__c.2897:
 8799 0071 616C 6172 		.string	"alarm off"
 8799      6D20 6F66 
 8799      6600 
 8802               	__c.2819:
 8803 007b 4368 726F 		.string	"ChronoDot check failed!"
 8803      6E6F 446F 
 8803      7420 6368 
 8803      6563 6B20 
 8803      6661 696C 
 8806               	__c.2575:
 8807 0093 5365 7420 		.string	"Set day"
 8807      6461 7900 
 8810               	__c.2500:
 8811 009b 4368 726F 		.string	"ChronoDot set!"
 8811      6E6F 446F 
 8811      7420 7365 
 8811      7421 00
 8814               	__c.2349:
 8815 00aa 646F 6E65 		.string	"done"
 8815      00
 8818               	__c.2347:
 8819 00af 616C 6172 		.string	"alarm init"
 8819      6D20 696E 
 8819      6974 00
 8822               	__c.2345:
 8823 00ba 636C 6F63 		.string	"clock init"
 8823      6B20 696E 
 8823      6974 00
 8826               	__c.2343:
 8827 00c5 7370 6561 		.string	"speaker init"
 8827      6B65 7220 
 8827      696E 6974 
 8827      00
 8830               	__c.2341:
 8831 00d2 626F 6F73 		.string	"boost init"
 8831      7420 696E 
 8831      6974 00
 8834               	__c.2339:
 8835 00dd 7666 6420 		.string	"vfd init"
 8835      696E 6974 
 8835      00
 8838               	__c.2337:
 8839 00e6 7475 726E 		.string	"turning on alarmsw"
 8839      696E 6720 
 8839      6F6E 2061 
 8839      6C61 726D 
 8839      7377 00
 8842               	__c.2335:
 8843 00f9 7475 726E 		.string	"turning on buttons"
 8843      696E 6720 
 8843      6F6E 2062 
 8843      7574 746F 
 8843      6E73 00
 8846               	__c.2333:
 8847 010c 2100      		.string	"!"
 8850               	__c.2301:
 8851 010e 7761 6B65 		.string	"waketime"
 8851      7469 6D65 
 8851      00
 8854               	__c.2219:
 8855 0117 5741 4B45 		.string	"WAKERESET"
 8855      5245 5345 
 8855      5400 
 8858               	__c.2217:
 8859 0121 7A00      		.string	"z"
 8862               	__c.2140:
 8863 0123 6232 00   		.string	"b2"
 8866               	__c.2088:
 8867 0126 6233 00   		.string	"b3"
 8870               	__c.2086:
 8871 0129 6231 00   		.string	"b1"
 8874               	__c.2037:
 8875 012c 736E 6F6F 		.string	"snooze"
 8875      7A65 00
 8876               		.comm time_s,1,1
 8877               		.comm time_m,1,1
 8878               		.comm time_h,1,1
 8879               		.comm date_m,1,1
 8880               		.comm date_d,1,1
 8881               		.comm date_y,1,1
 8882               		.comm volume,1,1
 8883               		.comm brightness_level,1,1
 8884               		.comm alarm_on,1,1
 8885               		.comm alarming,1,1
 8886               		.comm alarm_h,1,1
 8887               		.comm alarm_m,1,1
 8888               		.comm displaymode,1,1
 8889               		.comm strBuffer,128,1
 8890               		.comm display,9,1
 8891               		.comm flags,1,1
 8892               		.comm t,4,1
 9365               	.Letext0:
DEFINED SYMBOLS
                            *ABS*:00000000 iv.c
/var/folders/b_/rxjz5f5j4k59tw1p9srxlnl00000gp/T//ccdwuZNU.s:2      *ABS*:0000003f __SREG__
/var/folders/b_/rxjz5f5j4k59tw1p9srxlnl00000gp/T//ccdwuZNU.s:3      *ABS*:0000003e __SP_H__
/var/folders/b_/rxjz5f5j4k59tw1p9srxlnl00000gp/T//ccdwuZNU.s:4      *ABS*:0000003d __SP_L__
/var/folders/b_/rxjz5f5j4k59tw1p9srxlnl00000gp/T//ccdwuZNU.s:5      *ABS*:00000034 __CCP__
/var/folders/b_/rxjz5f5j4k59tw1p9srxlnl00000gp/T//ccdwuZNU.s:6      *ABS*:00000000 __tmp_reg__
/var/folders/b_/rxjz5f5j4k59tw1p9srxlnl00000gp/T//ccdwuZNU.s:7      *ABS*:00000001 __zero_reg__
/var/folders/b_/rxjz5f5j4k59tw1p9srxlnl00000gp/T//ccdwuZNU.s:20     .text:00000000 twiInit
/var/folders/b_/rxjz5f5j4k59tw1p9srxlnl00000gp/T//ccdwuZNU.s:37     .text:0000000c delayms
/var/folders/b_/rxjz5f5j4k59tw1p9srxlnl00000gp/T//ccdwuZNU.s:8722   .bss:0000000f milliseconds
/var/folders/b_/rxjz5f5j4k59tw1p9srxlnl00000gp/T//ccdwuZNU.s:68     .text:00000028 kickthedog
/var/folders/b_/rxjz5f5j4k59tw1p9srxlnl00000gp/T//ccdwuZNU.s:86     .text:0000002c gotosleep
/var/folders/b_/rxjz5f5j4k59tw1p9srxlnl00000gp/T//ccdwuZNU.s:8624   .bss:00000003 sleepmode
                            *COM*:00000001 volume
/var/folders/b_/rxjz5f5j4k59tw1p9srxlnl00000gp/T//ccdwuZNU.s:167    .text:00000086 initbuttons
/var/folders/b_/rxjz5f5j4k59tw1p9srxlnl00000gp/T//ccdwuZNU.s:202    .text:000000ac b2bcd
/var/folders/b_/rxjz5f5j4k59tw1p9srxlnl00000gp/T//ccdwuZNU.s:231    .text:000000ce bcd2b
/var/folders/b_/rxjz5f5j4k59tw1p9srxlnl00000gp/T//ccdwuZNU.s:256    .text:000000e2 display_brightness
/var/folders/b_/rxjz5f5j4k59tw1p9srxlnl00000gp/T//ccdwuZNU.s:8557   .progmem.data:00000000 alphatable
                            *COM*:00000009 display
                            *COM*:00000001 brightness_level
/var/folders/b_/rxjz5f5j4k59tw1p9srxlnl00000gp/T//ccdwuZNU.s:8592   .progmem.data:0000001c numbertable
/var/folders/b_/rxjz5f5j4k59tw1p9srxlnl00000gp/T//ccdwuZNU.s:382    .text:00000158 rtc_init
/var/folders/b_/rxjz5f5j4k59tw1p9srxlnl00000gp/T//ccdwuZNU.s:419    .text:00000184 alarm_init
                            *COM*:00000001 alarm_m
                            *COM*:00000001 alarm_h
/var/folders/b_/rxjz5f5j4k59tw1p9srxlnl00000gp/T//ccdwuZNU.s:489    .text:000001ba dow
/var/folders/b_/rxjz5f5j4k59tw1p9srxlnl00000gp/T//ccdwuZNU.s:8758   .progmem.data:0000004d dow_tbl
/var/folders/b_/rxjz5f5j4k59tw1p9srxlnl00000gp/T//ccdwuZNU.s:573    .text:0000022a leapyear
/var/folders/b_/rxjz5f5j4k59tw1p9srxlnl00000gp/T//ccdwuZNU.s:613    .text:0000025c monthlen
/var/folders/b_/rxjz5f5j4k59tw1p9srxlnl00000gp/T//ccdwuZNU.s:8774   .progmem.data:00000059 mon_tbl
/var/folders/b_/rxjz5f5j4k59tw1p9srxlnl00000gp/T//ccdwuZNU.s:664    .text:00000284 dst
                            *COM*:00000001 flags
/var/folders/b_/rxjz5f5j4k59tw1p9srxlnl00000gp/T//ccdwuZNU.s:8618   .bss:00000002 region
/var/folders/b_/rxjz5f5j4k59tw1p9srxlnl00000gp/T//ccdwuZNU.s:795    .text:00000324 speaker_init
/var/folders/b_/rxjz5f5j4k59tw1p9srxlnl00000gp/T//ccdwuZNU.s:869    .text:0000038e tick
/var/folders/b_/rxjz5f5j4k59tw1p9srxlnl00000gp/T//ccdwuZNU.s:941    .text:000003de beep
/var/folders/b_/rxjz5f5j4k59tw1p9srxlnl00000gp/T//ccdwuZNU.s:1071   .text:0000046c dimmer_init
/var/folders/b_/rxjz5f5j4k59tw1p9srxlnl00000gp/T//ccdwuZNU.s:1117   .text:000004a2 dimmer_update
/var/folders/b_/rxjz5f5j4k59tw1p9srxlnl00000gp/T//ccdwuZNU.s:1136   .text:000004b6 __vector_21
/var/folders/b_/rxjz5f5j4k59tw1p9srxlnl00000gp/T//ccdwuZNU.s:1280   .text:00000570 boost_init
/var/folders/b_/rxjz5f5j4k59tw1p9srxlnl00000gp/T//ccdwuZNU.s:1338   .text:000005a2 set_vfd_brightness
/var/folders/b_/rxjz5f5j4k59tw1p9srxlnl00000gp/T//ccdwuZNU.s:1370   .text:000005ba display_time
/var/folders/b_/rxjz5f5j4k59tw1p9srxlnl00000gp/T//ccdwuZNU.s:8655   .bss:00000007 secondDisp
/var/folders/b_/rxjz5f5j4k59tw1p9srxlnl00000gp/T//ccdwuZNU.s:1639   .text:0000070a display_alarm
/var/folders/b_/rxjz5f5j4k59tw1p9srxlnl00000gp/T//ccdwuZNU.s:1862   .text:0000080a set_alarm
/var/folders/b_/rxjz5f5j4k59tw1p9srxlnl00000gp/T//ccdwuZNU.s:8752   .bss:00000015 timeoutcounter
/var/folders/b_/rxjz5f5j4k59tw1p9srxlnl00000gp/T//ccdwuZNU.s:8734   .bss:00000012 just_pressed
/var/folders/b_/rxjz5f5j4k59tw1p9srxlnl00000gp/T//ccdwuZNU.s:8740   .bss:00000013 pressed
                            *COM*:00000001 displaymode
/var/folders/b_/rxjz5f5j4k59tw1p9srxlnl00000gp/T//ccdwuZNU.s:2195   .text:000009de display_timezone
/var/folders/b_/rxjz5f5j4k59tw1p9srxlnl00000gp/T//ccdwuZNU.s:2348   .text:00000a80 display_str
/var/folders/b_/rxjz5f5j4k59tw1p9srxlnl00000gp/T//ccdwuZNU.s:2474   .text:00000ace display_date
                            *COM*:00000001 date_m
                            *COM*:00000001 date_d
                            *COM*:00000001 date_y
/var/folders/b_/rxjz5f5j4k59tw1p9srxlnl00000gp/T//ccdwuZNU.s:3041   .text:00000dea set_region
/var/folders/b_/rxjz5f5j4k59tw1p9srxlnl00000gp/T//ccdwuZNU.s:3228   .text:00000ec6 set_volume
/var/folders/b_/rxjz5f5j4k59tw1p9srxlnl00000gp/T//ccdwuZNU.s:3456   .text:00001002 set_brightness
/var/folders/b_/rxjz5f5j4k59tw1p9srxlnl00000gp/T//ccdwuZNU.s:3619   .text:000010ea vfd_init
/var/folders/b_/rxjz5f5j4k59tw1p9srxlnl00000gp/T//ccdwuZNU.s:3634   .text:000010f0 vfd_send
/var/folders/b_/rxjz5f5j4k59tw1p9srxlnl00000gp/T//ccdwuZNU.s:3707   .text:00001122 setdisplay
/var/folders/b_/rxjz5f5j4k59tw1p9srxlnl00000gp/T//ccdwuZNU.s:8667   .progmem.data:00000038 digittable
                            *COM*:00000004 t
/var/folders/b_/rxjz5f5j4k59tw1p9srxlnl00000gp/T//ccdwuZNU.s:8685   .progmem.data:00000043 segmenttable
/var/folders/b_/rxjz5f5j4k59tw1p9srxlnl00000gp/T//ccdwuZNU.s:3838   .text:000011da __vector_16
/var/folders/b_/rxjz5f5j4k59tw1p9srxlnl00000gp/T//ccdwuZNU.s:8704   .bss:00000009 muxdiv
/var/folders/b_/rxjz5f5j4k59tw1p9srxlnl00000gp/T//ccdwuZNU.s:8661   .bss:00000008 currdigit
                            *COM*:00000001 alarming
/var/folders/b_/rxjz5f5j4k59tw1p9srxlnl00000gp/T//ccdwuZNU.s:8716   .bss:0000000d snoozetimer
/var/folders/b_/rxjz5f5j4k59tw1p9srxlnl00000gp/T//ccdwuZNU.s:8710   .bss:0000000b alarmdiv
/var/folders/b_/rxjz5f5j4k59tw1p9srxlnl00000gp/T//ccdwuZNU.s:3999   .text:00001312 fix_time
                            *COM*:00000001 time_s
                            *COM*:00000001 time_m
                            *COM*:00000001 time_h
/var/folders/b_/rxjz5f5j4k59tw1p9srxlnl00000gp/T//ccdwuZNU.s:4584   .text:00001640 spi_xfer
/var/folders/b_/rxjz5f5j4k59tw1p9srxlnl00000gp/T//ccdwuZNU.s:4604   .text:0000164a check_alarm
                            *COM*:00000001 alarm_on
/var/folders/b_/rxjz5f5j4k59tw1p9srxlnl00000gp/T//ccdwuZNU.s:8794   .progmem.data:00000067 __c.3534
/var/folders/b_/rxjz5f5j4k59tw1p9srxlnl00000gp/T//ccdwuZNU.s:4644   .text:00001682 __vector_9
/var/folders/b_/rxjz5f5j4k59tw1p9srxlnl00000gp/T//ccdwuZNU.s:8746   .bss:00000014 buttonholdcounter
/var/folders/b_/rxjz5f5j4k59tw1p9srxlnl00000gp/T//ccdwuZNU.s:4792   .text:0000178c setalarmstate
/var/folders/b_/rxjz5f5j4k59tw1p9srxlnl00000gp/T//ccdwuZNU.s:8798   .progmem.data:00000071 __c.2897
/var/folders/b_/rxjz5f5j4k59tw1p9srxlnl00000gp/T//ccdwuZNU.s:4900   .text:00001834 wakeup
/var/folders/b_/rxjz5f5j4k59tw1p9srxlnl00000gp/T//ccdwuZNU.s:8850   .progmem.data:0000010e __c.2301
/var/folders/b_/rxjz5f5j4k59tw1p9srxlnl00000gp/T//ccdwuZNU.s:5088   .text:000018f0 __vector_23
/var/folders/b_/rxjz5f5j4k59tw1p9srxlnl00000gp/T//ccdwuZNU.s:8630   .bss:00000004 restored
/var/folders/b_/rxjz5f5j4k59tw1p9srxlnl00000gp/T//ccdwuZNU.s:8858   .progmem.data:00000121 __c.2217
/var/folders/b_/rxjz5f5j4k59tw1p9srxlnl00000gp/T//ccdwuZNU.s:8854   .progmem.data:00000117 __c.2219
/var/folders/b_/rxjz5f5j4k59tw1p9srxlnl00000gp/T//ccdwuZNU.s:8551   .bss:00000000 app_start
/var/folders/b_/rxjz5f5j4k59tw1p9srxlnl00000gp/T//ccdwuZNU.s:5322   .text:00001a10 setsnooze
/var/folders/b_/rxjz5f5j4k59tw1p9srxlnl00000gp/T//ccdwuZNU.s:8874   .progmem.data:0000012c __c.2037
/var/folders/b_/rxjz5f5j4k59tw1p9srxlnl00000gp/T//ccdwuZNU.s:5373   .text:00001a52 __vector_3
/var/folders/b_/rxjz5f5j4k59tw1p9srxlnl00000gp/T//ccdwuZNU.s:8728   .bss:00000011 last_buttonstate
/var/folders/b_/rxjz5f5j4k59tw1p9srxlnl00000gp/T//ccdwuZNU.s:8862   .progmem.data:00000123 __c.2140
/var/folders/b_/rxjz5f5j4k59tw1p9srxlnl00000gp/T//ccdwuZNU.s:5489   .text:00001b04 __vector_5
/var/folders/b_/rxjz5f5j4k59tw1p9srxlnl00000gp/T//ccdwuZNU.s:8870   .progmem.data:00000129 __c.2086
/var/folders/b_/rxjz5f5j4k59tw1p9srxlnl00000gp/T//ccdwuZNU.s:8866   .progmem.data:00000126 __c.2088
/var/folders/b_/rxjz5f5j4k59tw1p9srxlnl00000gp/T//ccdwuZNU.s:5701   .text:00001c42 set_timezone
/var/folders/b_/rxjz5f5j4k59tw1p9srxlnl00000gp/T//ccdwuZNU.s:8642   .data:00000134 intTimeZoneHour
/var/folders/b_/rxjz5f5j4k59tw1p9srxlnl00000gp/T//ccdwuZNU.s:8649   .bss:00000006 intTimeZoneMin
/var/folders/b_/rxjz5f5j4k59tw1p9srxlnl00000gp/T//ccdwuZNU.s:5994   .text:00001df2 __vector_1
/var/folders/b_/rxjz5f5j4k59tw1p9srxlnl00000gp/T//ccdwuZNU.s:6088   .text:00001e72 twiError
/var/folders/b_/rxjz5f5j4k59tw1p9srxlnl00000gp/T//ccdwuZNU.s:8611   .progmem.data:00000028 twi_fmt
/var/folders/b_/rxjz5f5j4k59tw1p9srxlnl00000gp/T//ccdwuZNU.s:6140   .text:00001ebe twiStart
/var/folders/b_/rxjz5f5j4k59tw1p9srxlnl00000gp/T//ccdwuZNU.s:6178   .text:00001ee8 twiReadRegN
/var/folders/b_/rxjz5f5j4k59tw1p9srxlnl00000gp/T//ccdwuZNU.s:6379   .text:00001fee twiReadReg
/var/folders/b_/rxjz5f5j4k59tw1p9srxlnl00000gp/T//ccdwuZNU.s:6530   .text:000020b6 clock_init
/var/folders/b_/rxjz5f5j4k59tw1p9srxlnl00000gp/T//ccdwuZNU.s:8802   .progmem.data:0000007b __c.2819
/var/folders/b_/rxjz5f5j4k59tw1p9srxlnl00000gp/T//ccdwuZNU.s:6793   .text:00002254 twiWriteRegN
/var/folders/b_/rxjz5f5j4k59tw1p9srxlnl00000gp/T//ccdwuZNU.s:6933   .text:00002300 set_date
/var/folders/b_/rxjz5f5j4k59tw1p9srxlnl00000gp/T//ccdwuZNU.s:8806   .progmem.data:00000093 __c.2575
/var/folders/b_/rxjz5f5j4k59tw1p9srxlnl00000gp/T//ccdwuZNU.s:7416   .text:000025f8 twiWriteReg
/var/folders/b_/rxjz5f5j4k59tw1p9srxlnl00000gp/T//ccdwuZNU.s:7533   .text:0000268e set_time
/var/folders/b_/rxjz5f5j4k59tw1p9srxlnl00000gp/T//ccdwuZNU.s:8810   .progmem.data:0000009b __c.2500
/var/folders/b_/rxjz5f5j4k59tw1p9srxlnl00000gp/T//ccdwuZNU.s:7961   .text:00002904 main
/var/folders/b_/rxjz5f5j4k59tw1p9srxlnl00000gp/T//ccdwuZNU.s:8846   .progmem.data:0000010c __c.2333
/var/folders/b_/rxjz5f5j4k59tw1p9srxlnl00000gp/T//ccdwuZNU.s:8842   .progmem.data:000000f9 __c.2335
/var/folders/b_/rxjz5f5j4k59tw1p9srxlnl00000gp/T//ccdwuZNU.s:8838   .progmem.data:000000e6 __c.2337
/var/folders/b_/rxjz5f5j4k59tw1p9srxlnl00000gp/T//ccdwuZNU.s:8834   .progmem.data:000000dd __c.2339
/var/folders/b_/rxjz5f5j4k59tw1p9srxlnl00000gp/T//ccdwuZNU.s:8830   .progmem.data:000000d2 __c.2341
/var/folders/b_/rxjz5f5j4k59tw1p9srxlnl00000gp/T//ccdwuZNU.s:8826   .progmem.data:000000c5 __c.2343
/var/folders/b_/rxjz5f5j4k59tw1p9srxlnl00000gp/T//ccdwuZNU.s:8822   .progmem.data:000000ba __c.2345
/var/folders/b_/rxjz5f5j4k59tw1p9srxlnl00000gp/T//ccdwuZNU.s:8818   .progmem.data:000000af __c.2347
/var/folders/b_/rxjz5f5j4k59tw1p9srxlnl00000gp/T//ccdwuZNU.s:8814   .progmem.data:000000aa __c.2349
/var/folders/b_/rxjz5f5j4k59tw1p9srxlnl00000gp/T//ccdwuZNU.s:8587   .progmem.data:0000001a alphatable_p
/var/folders/b_/rxjz5f5j4k59tw1p9srxlnl00000gp/T//ccdwuZNU.s:8606   .progmem.data:00000026 numbertable_p
/var/folders/b_/rxjz5f5j4k59tw1p9srxlnl00000gp/T//ccdwuZNU.s:8636   .bss:00000005 intBufferStatus
/var/folders/b_/rxjz5f5j4k59tw1p9srxlnl00000gp/T//ccdwuZNU.s:8680   .progmem.data:00000041 digittable_p
/var/folders/b_/rxjz5f5j4k59tw1p9srxlnl00000gp/T//ccdwuZNU.s:8697   .progmem.data:0000004b segmenttable_p
/var/folders/b_/rxjz5f5j4k59tw1p9srxlnl00000gp/T//ccdwuZNU.s:8790   .progmem.data:00000065 mon_tbl_p
                            *COM*:00000080 strBuffer

UNDEFINED SYMBOLS
__do_copy_data
__do_clear_bss
__udivmodqi4
__divmodhi4
__udivmodhi4
__divmodsi4
__mulsi3
__udivmodsi4
__divmodqi4
ROM_putstring
uart_puts
uart_putw_dec
uart_putchar
sprintf_P
uart_putw_hex
uart_init
